
CH592F_SSD1306.elf:     file format elf32-littleriscv
CH592F_SSD1306.elf
architecture: riscv:rv32, flags 0x00000112:
EXEC_P, HAS_SYMS, D_PAGED
start address 0x00000000

Program Header:
    LOAD off    0x00001000 vaddr 0x00000000 paddr 0x00000000 align 2**12
         filesz 0x00000004 memsz 0x00000004 flags r-x
    LOAD off    0x00002000 vaddr 0x20000000 paddr 0x00000004 align 2**12
         filesz 0x00000b9c memsz 0x00000b9c flags r-x
    LOAD off    0x00002ba0 vaddr 0x00000ba0 paddr 0x00000ba0 align 2**12
         filesz 0x000060b0 memsz 0x000060b0 flags r-x
    LOAD off    0x00009b9c vaddr 0x20000b9c paddr 0x00006c50 align 2**12
         filesz 0x0000206c memsz 0x00002a80 flags rw-
    LOAD off    0x0000c600 vaddr 0x20006600 paddr 0x20006600 align 2**12
         filesz 0x00000000 memsz 0x00000200 flags rw-

Sections:
Idx Name            Size      VMA       LMA       File off  Algn  Flags
  0 .init           00000004  00000000  00000000  00001000  2**1  CONTENTS, ALLOC, LOAD, READONLY, CODE
  1 .highcodelalign 00000000  00000004  00000004  0000bc08  2**0  CONTENTS
  2 .highcode       00000b9c  20000000  00000004  00002000  2**1  CONTENTS, ALLOC, LOAD, READONLY, CODE
  3 .text           000060b0  00000ba0  00000ba0  00002ba0  2**2  CONTENTS, ALLOC, LOAD, READONLY, CODE
  4 .fini           00000000  00006c50  00006c50  0000bc08  2**0  CONTENTS, ALLOC, LOAD, CODE
  5 .dalign         00000000  20000b9c  20000b9c  0000bc08  2**0  CONTENTS
  6 .dlalign        00000000  00006c50  00006c50  0000bc08  2**0  CONTENTS
  7 .data           0000206c  20000b9c  00006c50  00009b9c  2**2  CONTENTS, ALLOC, LOAD, DATA
  8 .bss            00000a14  20002c08  00008cbc  0000bc08  2**2  ALLOC
  9 .stack          00000200  20006600  20006600  0000c600  2**0  ALLOC
 10 .debug_info     0000e292  00000000  00000000  0000bc08  2**0  CONTENTS, READONLY, DEBUGGING
 11 .debug_abbrev   0000204c  00000000  00000000  00019e9a  2**0  CONTENTS, READONLY, DEBUGGING
 12 .debug_loc      0000527e  00000000  00000000  0001bee6  2**0  CONTENTS, READONLY, DEBUGGING
 13 .debug_aranges  00000518  00000000  00000000  00021168  2**3  CONTENTS, READONLY, DEBUGGING
 14 .debug_ranges   00000570  00000000  00000000  00021680  2**3  CONTENTS, READONLY, DEBUGGING
 15 .debug_line     00009efb  00000000  00000000  00021bf0  2**0  CONTENTS, READONLY, DEBUGGING
 16 .debug_str      00002606  00000000  00000000  0002baeb  2**0  CONTENTS, READONLY, DEBUGGING
 17 .comment        00000033  00000000  00000000  0002e0f1  2**0  CONTENTS, READONLY
 18 .debug_frame    00001844  00000000  00000000  0002e124  2**2  CONTENTS, READONLY, DEBUGGING
 19 .stab           00000084  00000000  00000000  0002f968  2**2  CONTENTS, READONLY, DEBUGGING
 20 .stabstr        00000117  00000000  00000000  0002f9ec  2**0  CONTENTS, READONLY, DEBUGGING
SYMBOL TABLE:
00000000 l    d  .init	00000000 .init
00000004 l    d  .highcodelalign	00000000 .highcodelalign
20000000 l    d  .highcode	00000000 .highcode
00000ba0 l    d  .text	00000000 .text
00006c50 l    d  .fini	00000000 .fini
20000b9c l    d  .dalign	00000000 .dalign
00006c50 l    d  .dlalign	00000000 .dlalign
20000b9c l    d  .data	00000000 .data
20002c08 l    d  .bss	00000000 .bss
20006600 l    d  .stack	00000000 .stack
00000000 l    d  .debug_info	00000000 .debug_info
00000000 l    d  .debug_abbrev	00000000 .debug_abbrev
00000000 l    d  .debug_loc	00000000 .debug_loc
00000000 l    d  .debug_aranges	00000000 .debug_aranges
00000000 l    d  .debug_ranges	00000000 .debug_ranges
00000000 l    d  .debug_line	00000000 .debug_line
00000000 l    d  .debug_str	00000000 .debug_str
00000000 l    d  .comment	00000000 .comment
00000000 l    d  .debug_frame	00000000 .debug_frame
00000000 l    d  .stab	00000000 .stab
00000000 l    d  .stabstr	00000000 .stabstr
00000000 l    df *ABS*	00000000 ./Startup/startup_CH592.o
20000000 l       .highcode	00000000 _vector_base
00000000 l    df *ABS*	00000000 app_i2c.c
20002c20 l     O .bss	00000080 i2c_master_buffer
20002ca0 l     O .bss	00000080 i2c_slave_rxbuffer
20002d20 l     O .bss	00000080 i2c_slave_txbuffer
20002c08 l     O .bss	00000001 i2c_error
20002c09 l     O .bss	00000001 i2c_in_repstart
20002c0a l     O .bss	00000001 i2c_master_buffer_index
20002c0b l     O .bss	00000001 i2c_master_buffer_length
20002c0c l     O .bss	00000001 i2c_send_stop
20002c0d l     O .bss	00000001 i2c_slave_addr_rw
20002c0e l     O .bss	00000001 i2c_slave_rxbuffer_index
20002c0f l     O .bss	00000001 i2c_slave_txbuffer_index
20002c10 l     O .bss	00000001 i2c_slave_txbuffer_length
20002c11 l     O .bss	00000001 i2c_state
20002c12 l     O .bss	00000001 is_nack_sent
20002c14 l     O .bss	00000004 slave_cb
00000000 l    df *ABS*	00000000 CH59x_sys.c
20002c00 l     O .data	00000004 curbrk.3969
00000000 l    df *ABS*	00000000 ISP583.c
20000786 l       .highcode	00000000 .loop18
20000794 l       .highcode	00000000 .loop29
200007a2 l       .highcode	00000000 .loop40
20000a2e l       .highcode	00000000 .loop402
00000000 l    df *ABS*	00000000 Main.c
00000000 l    df *ABS*	00000000 driver_ssd1306.c
00000e88 l     F .text	00000058 a_ssd1306_write_byte
00000ee0 l     F .text	0000002a a_ssd1306_gram_draw_point
00000f0a l     F .text	0000005a a_ssd1306_multiple_write_byte
00004dd0 l     O .text	00000d5c gsc_ssd1306_ascii_2412
0000436c l     O .text	00000474 gsc_ssd1306_ascii_1206
000047e0 l     O .text	000005f0 gsc_ssd1306_ascii_1608
00000000 l    df *ABS*	00000000 driver_ssd1306_basic.c
20002da0 l     O .bss	0000043c gs_handle
00000000 l    df *ABS*	00000000 driver_ssd1306_display_test.c
20000b9c l     O .data	00002000 gs_image
200031dc l     O .bss	0000043c gs_handle
00000000 l    df *ABS*	00000000 driver_ssd1306_interface.c
00000000 l    df *ABS*	00000000 CH59x_gpio.c
00000000 l    df *ABS*	00000000 CH59x_i2c.c
00000000 l    df *ABS*	00000000 CH59x_uart1.c
00000000 l    df *ABS*	00000000 extendsfdf2.c
00000000 l    df *ABS*	00000000 libgcc2.c
00000000 l    df *ABS*	00000000 memcpy.c
00000000 l    df *ABS*	00000000 printf.c
00000000 l    df *ABS*	00000000 rand.c
00000000 l    df *ABS*	00000000 strlen.c
00000000 l    df *ABS*	00000000 strncpy.c
00000000 l    df *ABS*	00000000 findfp.c
00003246 l     F .text	0000006a std
00000000 l    df *ABS*	00000000 fwalk.c
00000000 l    df *ABS*	00000000 malloc.c
00000000 l    df *ABS*	00000000 nano-mallocr.c
00000000 l    df *ABS*	00000000 nano-mallocr.c
00000000 l    df *ABS*	00000000 nano-vfprintf.c
00003600 l     F .text	00000028 __sfputc_r
00000000 l    df *ABS*	00000000 nano-vfprintf_i.c
00000000 l    df *ABS*	00000000 sbrkr.c
00000000 l    df *ABS*	00000000 stdio.c
00000000 l    df *ABS*	00000000 wbuf.c
00000000 l    df *ABS*	00000000 writer.c
00000000 l    df *ABS*	00000000 wsetup.c
00000000 l    df *ABS*	00000000 closer.c
00000000 l    df *ABS*	00000000 fflush.c
00000000 l    df *ABS*	00000000 lseekr.c
00000000 l    df *ABS*	00000000 makebuf.c
00000000 l    df *ABS*	00000000 memchr.c
00000000 l    df *ABS*	00000000 mlock.c
00000000 l    df *ABS*	00000000 readr.c
00000000 l    df *ABS*	00000000 fstatr.c
00000000 l    df *ABS*	00000000 isattyr.c
00000000 l    df *ABS*	00000000 close.c
00000000 l    df *ABS*	00000000 fstat.c
00000000 l    df *ABS*	00000000 isatty.c
00000000 l    df *ABS*	00000000 lseek.c
00000000 l    df *ABS*	00000000 read.c
00000000 l    df *ABS*	00000000 libgcc2.c
00000000 l    df *ABS*	00000000 impure.c
20002b9c l     O .data	00000060 impure_data
00000000 l    df *ABS*	00000000 reent.c
000016e4 g     F .text	00000038 ssd1306_set_low_column_start_address
00004308 g     F .text	00000028 _isatty_r
00004172 g     F .text	0000002c _lseek_r
200007a2 g     F .highcode	0000000e FLASH_ROM_OUT
00001e0c g     F .text	0000003e ssd1306_set_com_pins_hardware_conf
0000192a g     F .text	00000076 ssd1306_set_left_horizontal_scroll
00001bbe g     F .text	00000026 ssd1306_set_entire_display
000016d6 g     F .text	0000000e ssd1306_set_addr_pin
00003144 g     F .text	00000042 printf
20003400 g       .data	00000000 __global_pointer$
00002ccc g     F .text	0000000e I2C_ReceiveData
00003d66 g     F .text	00000036 __sseek
00003300 g     F .text	0000006a __sinit
00003da2 g     F .text	000000c2 __swbuf_r
2000073e g     F .highcode	0000000e mDelayuS
200006be  w    F .highcode	00000080 HardFault_Handler
000032ba g     F .text	00000046 __sfmoreglue
20000090  w      .highcode	00000000 GPIOB_IRQHandler
00001aec g     F .text	0000003e ssd1306_set_display_start_line
00002e4a g     F .text	00000016 I2C_GetLastEvent
000042b0 g     F .text	00000002 __malloc_unlock
00001cbc g     F .text	00000050 ssd1306_set_display_offset
000019a0 g     F .text	00000088 ssd1306_set_vertical_right_horizontal_scroll
20000090  w      .highcode	00000000 GPIOA_IRQHandler
20000090  w      .highcode	00000000 SysTick_Handler
00001f1c g     F .text	00000016 ssd1306_basic_deinit
20000090  w      .highcode	00000000 NMI_Handler
00002a9e g     F .text	00000004 ssd1306_interface_spi_init
00001da6 g     F .text	00000066 ssd1306_set_precharge_period
20000090  w      .highcode	00000000 UART1_IRQHandler
00002ae6 g     F .text	00000004 ssd1306_interface_reset_gpio_init
000010fa g     F .text	000001e4 ssd1306_gram_write_string
000042de g     F .text	0000002a _fstat_r
20003618 g     O .bss	00000004 errno
20002c08 g       .bss	00000000 _sbss
00000200 g       *ABS*	00000000 __stack_size
20000794 g     F .highcode	0000000e FLASH_ROM_IN
00001e4a g     F .text	00000036 ssd1306_set_deselect_level
0000178c g     F .text	00000070 ssd1306_set_column_address_range
000013ac g     F .text	000000d2 ssd1306_gram_draw_picture
20000090  w      .highcode	00000000 UART0_IRQHandler
00002ca4 g     F .text	0000001e I2C_ITConfig
0000308e g     F .text	000000b6 memcpy
000032b0 g     F .text	0000000a _cleanup_r
00001c70 g     F .text	00000026 ssd1306_set_display
00002aee g     F .text	00000004 ssd1306_interface_reset_gpio_write
00003476 g     F .text	0000000e malloc
0000433c g     F .text	0000000c _fstat
00000004 g       .init	00000000 _einit
00002ade g     F .text	00000004 ssd1306_interface_spi_cmd_data_gpio_deinit
00001be4 g     F .text	00000026 ssd1306_set_display_mode
00001d72 g     F .text	00000034 ssd1306_set_zoom_in
20000090  w      .highcode	00000000 BB_IRQHandler
20000830 g     F .highcode	0000036a FLASH_EEPROM_CMD
20000090  w      .highcode	00000000 Break_Point_Handler
00002b98 g     F .text	000000a6 GPIOB_ModeCfg
00001b5e g     F .text	0000003a ssd1306_set_charge_pump
00002a04 g     F .text	0000009a ssd1306_interface_iic_write
00003cbe g     F .text	0000002a _sbrk_r
20000090  w      .highcode	00000000 TMR0_IRQHandler
000042b2 g     F .text	0000002c _read_r
20000774 g     F .highcode	00000012 FLASH_ROM_BEG
00001ace g     F .text	0000001e ssd1306_activate_scroll
00002f6c g     F .text	000000ac .hidden __extendsfdf2
2000074c g     F .highcode	00000028 mDelaymS
20000090  w      .highcode	00000000 Ecall_M_Mode_Handler
20006600 g       .stack	00000000 _heap_end
00004348 g     F .text	0000000c _isatty
00006c4c g     O .text	00000004 _global_impure_ptr
200007b0 g     F .highcode	00000048 FLASH_ROM_ADDR
00002cc2 g     F .text	0000000a I2C_SendData
000016c8 g     F .text	0000000e ssd1306_set_interface
00002eda g     F .text	00000030 _sbrk
00002cf4 g     F .text	00000156 I2C_Init
20000090  w      .highcode	00000000 RTC_IRQHandler
2000361c g       .bss	00000000 _ebss
00002f3a g     F .text	00000032 UART1_DefInit
00001d0c g     F .text	00000066 ssd1306_set_display_clock
200007f8 g     F .highcode	00000038 FLASH_ROM_WAIT
000018b4 g     F .text	00000076 ssd1306_set_right_horizontal_scroll
00002c3e g     F .text	00000022 I2C_GenerateSTART
00006bb0 g     O .text	00000020 __sf_fake_stderr
000029e6 g     F .text	0000001a ssd1306_interface_iic_init
20000090  w      .highcode	00000000 UART2_IRQHandler
20000090  w      .highcode	00000000 PWMX_IRQHandler
00000ff8 g     F .text	00000092 ssd1306_gram_update
00001b2a g     F .text	00000034 ssd1306_set_contrast
0000147e g     F .text	0000017a ssd1306_init
00003018 g     F .text	00000076 .hidden __clzsi2
00003628 g     F .text	00000042 __sfputs_r
00004294 g     F .text	0000001a memchr
0000108a g     F .text	00000070 ssd1306_gram_write_point
00003484 g     F .text	000000a8 _free_r
00000000 g       .init	00000000 _start
00003186 g     F .text	0000008a rand
00004354 g     F .text	0000000c _lseek
00002ada g     F .text	00000004 ssd1306_interface_spi_cmd_data_gpio_init
20000090  w      .highcode	00000000 ADC_IRQHandler
20000000 g       .highcode	00000000 _highcode_vma_start
00003222 g     F .text	00000024 strncpy
00000d42 g     F .text	00000064 i2c_app_init
20000090  w      .highcode	00000000 TMR2_IRQHandler
00002aaa g     F .text	0000000c ssd1306_interface_delay_ms
00003fa6 g     F .text	00000028 _close_r
00002e60 g     F .text	00000012 I2C_ClearFlag
20000b9c g       .data	00000000 _data_vma
00001b98 g     F .text	00000026 ssd1306_set_segment_remap
00001758 g     F .text	00000034 ssd1306_set_memory_addressing_mode
200004c4 g     F .highcode	000001a2 SetSysClock
20000090  w      .highcode	00000000 USB_IRQHandler
00003e92 g     F .text	00000114 __swsetup_r
0000336a g     F .text	000000a0 __sfp
00003ce8 g     F .text	00000030 __sread
000042ae g     F .text	00000002 __malloc_lock
0000410c g     F .text	00000066 _fflush_r
00006bd0 g     O .text	00000020 __sf_fake_stdin
20000092 g     F .highcode	00000432 I2C_IRQHandler
00000c4a g     F .text	000000a8 memset
00000cf2 g     F .text	00000050 main
00003d9c g     F .text	00000006 __sclose
0000352c g     F .text	000000d4 _malloc_r
00001e80 g     F .text	0000009c ssd1306_info
000017fc g     F .text	00000066 ssd1306_set_page_address_range
00002aa6 g     F .text	00000004 ssd1306_interface_spi_write_cmd
00000004 g       .highcodelalign	00000000 _highcode_lma
00002cda g     F .text	0000001a I2C_SoftwareResetCmd
00003144 g     F .text	00000042 iprintf
00006ab0 g     O .text	00000100 .hidden __clz_tab
20000090  w      .highcode	00000000 LLE_IRQHandler
00000000 g       .init	00000000 _sinit
00003e64 g     F .text	0000002e _write_r
00002a00 g     F .text	00000004 ssd1306_interface_iic_deinit
00003908 g     F .text	0000010c _printf_common
20002c04 g     O .data	00000004 _impure_ptr
00003fce g     F .text	0000013e __sflush_r
00002aea g     F .text	00000004 ssd1306_interface_reset_gpio_deinit
20000090  w      .highcode	00000000 WDOG_BAT_IRQHandler
20000090  w      .highcode	00000000 Ecall_U_Mode_Handler
000015f8 g     F .text	000000d0 ssd1306_deinit
20000090  w      .highcode	00000000 TMR3_IRQHandler
20006800 g       .stack	00000000 _eusrstack
20000090  w      .highcode	00000000 SW_Handler
00002af2 g     F .text	000000a6 GPIOA_ModeCfg
0000419e g     F .text	00000058 __swhatbuf_r
00002e72 g     F .text	00000040 GetSysClock
00002eb2 g     F .text	00000028 _write
20002c08 g       .data	00000000 _edata
20000090  w      .highcode	00000000 SPI0_IRQHandler
00001c0a g     F .text	00000066 ssd1306_set_multiplex_ratio
2000361c g       .bss	00000000 _end
20000b9c g       .highcode	00000000 _highcode_vma_end
00006c50 g       .dlalign	00000000 _data_lma
00003d18 g     F .text	0000004e __swrite
00000da6 g     F .text	000000e2 i2c_write_to
0000366a g     F .text	0000029e _vfiprintf_r
0000340a g     F .text	0000006c _fwalk_reent
00006bf0 g     O .text	00000020 __sf_fake_stdout
00000f64 g     F .text	00000094 ssd1306_clear
00004360 g     F .text	0000000c _read
00000ba0  w      .text	00000000 handle_reset
00001862 g     F .text	00000052 ssd1306_set_fade_blinking_mode
000041f6 g     F .text	0000009e __smakebuf_r
00002ae2 g     F .text	00000004 ssd1306_interface_spi_cmd_data_gpio_write
00002c82 g     F .text	00000022 I2C_AcknowledgeConfig
00003210 g     F .text	00000012 strlen
00003a14 g     F .text	000002aa _printf_i
20000090  w      .highcode	00000000 UART3_IRQHandler
20002c1c g     O .bss	00000004 __malloc_sbrk_start
00002c60 g     F .text	00000022 I2C_GenerateSTOP
20000786 g     F .highcode	0000000e FLASH_ROM_END
00001c96 g     F .text	00000026 ssd1306_set_scan_direction
20002c18 g     O .bss	00000004 __malloc_free_list
0000171c g     F .text	0000003c ssd1306_set_high_column_start_address
0000366a g     F .text	0000029e _vfprintf_r
20000090  w      .highcode	00000000 TMR1_IRQHandler
00001ab0 g     F .text	0000001e ssd1306_deactivate_scroll
000012de g     F .text	000000ce ssd1306_gram_fill_rect
00001a28 g     F .text	00000088 ssd1306_set_vertical_left_horizontal_scroll
20000666 g     F .highcode	00000058 SYS_ResetExecute
00001f32 g     F .text	00000ab4 ssd1306_display_test
00002aa2 g     F .text	00000004 ssd1306_interface_spi_deinit
00004330 g     F .text	0000000c _close
00002ab6 g     F .text	00000024 ssd1306_interface_debug_print
00002f0a g     F .text	00000030 UART1_BaudRateCfg



Disassembly of section .init:

00000000 <_sinit>:
_start():
c:\Users\Paul Scalise\CH592F_SSD1306\obj/../Startup/startup_CH592.S:17

	.section	.init,"ax",@progbits
	.global	_start
	.align	1
_start:
	j	handle_reset
   0:	3a10006f          	j	ba0 <handle_reset>

Disassembly of section .highcode:

20000000 <_highcode_vma_start>:
	...
_vector_base():
20000008:	0090                	addi	a2,sp,64
2000000a:	2000                	fld	fs0,0(s0)
2000000c:	06be                	slli	a3,a3,0xf
2000000e:	2000                	fld	fs0,0(s0)
20000010:	bda9                	j	1ffffe6a <_data_lma+0x1fff921a>
20000012:	f5f9                	bnez	a1,1fffffe0 <_data_lma+0x1fff9390>
20000014:	0090                	addi	a2,sp,64
20000016:	2000                	fld	fs0,0(s0)
	...
20000020:	0090                	addi	a2,sp,64
20000022:	2000                	fld	fs0,0(s0)
20000024:	0090                	addi	a2,sp,64
20000026:	2000                	fld	fs0,0(s0)
	...
20000030:	0090                	addi	a2,sp,64
20000032:	2000                	fld	fs0,0(s0)
20000034:	0000                	unimp
20000036:	0000                	unimp
20000038:	0090                	addi	a2,sp,64
2000003a:	2000                	fld	fs0,0(s0)
2000003c:	0000                	unimp
2000003e:	0000                	unimp
20000040:	0090                	addi	a2,sp,64
20000042:	2000                	fld	fs0,0(s0)
20000044:	0090                	addi	a2,sp,64
20000046:	2000                	fld	fs0,0(s0)
20000048:	0090                	addi	a2,sp,64
2000004a:	2000                	fld	fs0,0(s0)
2000004c:	0090                	addi	a2,sp,64
2000004e:	2000                	fld	fs0,0(s0)
20000050:	0090                	addi	a2,sp,64
20000052:	2000                	fld	fs0,0(s0)
20000054:	0090                	addi	a2,sp,64
20000056:	2000                	fld	fs0,0(s0)
20000058:	0090                	addi	a2,sp,64
2000005a:	2000                	fld	fs0,0(s0)
2000005c:	0000                	unimp
2000005e:	0000                	unimp
20000060:	0090                	addi	a2,sp,64
20000062:	2000                	fld	fs0,0(s0)
20000064:	0090                	addi	a2,sp,64
20000066:	2000                	fld	fs0,0(s0)
20000068:	0090                	addi	a2,sp,64
2000006a:	2000                	fld	fs0,0(s0)
2000006c:	0090                	addi	a2,sp,64
2000006e:	2000                	fld	fs0,0(s0)
20000070:	0090                	addi	a2,sp,64
20000072:	2000                	fld	fs0,0(s0)
20000074:	0090                	addi	a2,sp,64
20000076:	2000                	fld	fs0,0(s0)
20000078:	0092                	slli	ra,ra,0x4
2000007a:	2000                	fld	fs0,0(s0)
2000007c:	0090                	addi	a2,sp,64
2000007e:	2000                	fld	fs0,0(s0)
20000080:	0090                	addi	a2,sp,64
20000082:	2000                	fld	fs0,0(s0)
20000084:	0090                	addi	a2,sp,64
20000086:	2000                	fld	fs0,0(s0)
20000088:	0090                	addi	a2,sp,64
2000008a:	2000                	fld	fs0,0(s0)
2000008c:	0090                	addi	a2,sp,64
2000008e:	2000                	fld	fs0,0(s0)

20000090 <ADC_IRQHandler>:
GPIOB_IRQHandler():
c:\Users\Paul Scalise\CH592F_SSD1306\obj/../Startup/startup_CH592.S:119
TMR3_IRQHandler:
UART2_IRQHandler:
UART3_IRQHandler:
WDOG_BAT_IRQHandler: 
1:  
	j 1b
20000090:	a001                	j	20000090 <ADC_IRQHandler>

20000092 <I2C_IRQHandler>:
I2C_IRQHandler():
c:\Users\Paul Scalise\CH592F_SSD1306\obj/../User/app_i2c.c:254
#endif

__INTERRUPT
__HIGH_CODE
void I2C_IRQHandler(void)
{
20000092:	1141                	addi	sp,sp,-16
20000094:	c622                	sw	s0,12(sp)
20000096:	c426                	sw	s1,8(sp)
20000098:	c24a                	sw	s2,4(sp)
c:\Users\Paul Scalise\CH592F_SSD1306\obj/../User/app_i2c.c:255
    uint32_t event = I2C_GetLastEvent();
2000009a:	e0003097          	auipc	ra,0xe0003
2000009e:	db0080e7          	jalr	-592(ra) # 2e4a <I2C_GetLastEvent>
c:\Users\Paul Scalise\CH592F_SSD1306\obj/../User/app_i2c.c:259
    print_i2c_irq_sta(event);

    /* I2C Master */
    if (event & (RB_I2C_MSL << 16)) {
200000a2:	00f51793          	slli	a5,a0,0xf
c:\Users\Paul Scalise\CH592F_SSD1306\obj/../User/app_i2c.c:255
    uint32_t event = I2C_GetLastEvent();
200000a6:	842a                	mv	s0,a0
c:\Users\Paul Scalise\CH592F_SSD1306\obj/../User/app_i2c.c:259
    if (event & (RB_I2C_MSL << 16)) {
200000a8:	40057493          	andi	s1,a0,1024
200000ac:	2607d063          	bgez	a5,2000030c <I2C_IRQHandler+0x27a>
c:\Users\Paul Scalise\CH592F_SSD1306\obj/../User/app_i2c.c:260
        if (event & RB_I2C_SB) {
200000b0:	00157793          	andi	a5,a0,1
200000b4:	c799                	beqz	a5,200000c2 <I2C_IRQHandler+0x30>
c:\Users\Paul Scalise\CH592F_SSD1306\obj/../User/app_i2c.c:262
            /* Start condition sent, send address */
            I2C_SendData(i2c_slave_addr_rw);
200000b6:	80d1c503          	lbu	a0,-2035(gp) # 20002c0d <i2c_slave_addr_rw>
200000ba:	e0003097          	auipc	ra,0xe0003
200000be:	c08080e7          	jalr	-1016(ra) # 2cc2 <I2C_SendData>
c:\Users\Paul Scalise\CH592F_SSD1306\obj/../User/app_i2c.c:267
            I2C_DBG("Master selected, send address\n");
        }

        /* I2C Master transmitter */
        if (event & (RB_I2C_TRA << 16)) {
200000c2:	00d41793          	slli	a5,s0,0xd
200000c6:	0e07de63          	bgez	a5,200001c2 <I2C_IRQHandler+0x130>
c:\Users\Paul Scalise\CH592F_SSD1306\obj/../User/app_i2c.c:270
            I2C_DBG("Master transmitter:\n");
            /* Slave receiver acked address or sent bit */
            if (event & (RB_I2C_ADDR | RB_I2C_BTF | RB_I2C_TxE | (RB_I2C_TRA << 16))) {
200000ca:	000407b7          	lui	a5,0x40
200000ce:	08678793          	addi	a5,a5,134 # 40086 <_data_lma+0x39436>
200000d2:	8fe1                	and	a5,a5,s0
200000d4:	cb95                	beqz	a5,20000108 <I2C_IRQHandler+0x76>
c:\Users\Paul Scalise\CH592F_SSD1306\obj/../User/app_i2c.c:272
                /* if there is data to send, send it, otherwise stop */
                if (i2c_master_buffer_index < i2c_master_buffer_length) {
200000d6:	80a1c783          	lbu	a5,-2038(gp) # 20002c0a <i2c_master_buffer_index>
200000da:	80b1c703          	lbu	a4,-2037(gp) # 20002c0b <i2c_master_buffer_length>
200000de:	08e7f763          	bgeu	a5,a4,2000016c <I2C_IRQHandler+0xda>
c:\Users\Paul Scalise\CH592F_SSD1306\obj/../User/app_i2c.c:273
                    I2C_SendData(i2c_master_buffer[i2c_master_buffer_index++]);
200000e2:	80a18793          	addi	a5,gp,-2038 # 20002c0a <i2c_master_buffer_index>
200000e6:	0007c783          	lbu	a5,0(a5)
200000ea:	0ff7f793          	andi	a5,a5,255
200000ee:	00178713          	addi	a4,a5,1
200000f2:	80e18523          	sb	a4,-2038(gp) # 20002c0a <i2c_master_buffer_index>
200000f6:	82018713          	addi	a4,gp,-2016 # 20002c20 <i2c_master_buffer>
200000fa:	97ba                	add	a5,a5,a4
200000fc:	0007c503          	lbu	a0,0(a5)
20000100:	e0003097          	auipc	ra,0xe0003
20000104:	bc2080e7          	jalr	-1086(ra) # 2cc2 <I2C_SendData>
c:\Users\Paul Scalise\CH592F_SSD1306\obj/../User/app_i2c.c:295
                    }
                }
            }

            /* Address or data sent, nack received */
            if (event & RB_I2C_AF) {
20000108:	c09d                	beqz	s1,2000012e <I2C_IRQHandler+0x9c>
c:\Users\Paul Scalise\CH592F_SSD1306\obj/../User/app_i2c.c:296
                I2C_ClearFlag(I2C_FLAG_AF);
2000010a:	10000537          	lui	a0,0x10000
2000010e:	40050513          	addi	a0,a0,1024 # 10000400 <_data_lma+0xfff97b0>
20000112:	e0003097          	auipc	ra,0xe0003
20000116:	d4e080e7          	jalr	-690(ra) # 2e60 <I2C_ClearFlag>
c:\Users\Paul Scalise\CH592F_SSD1306\obj/../User/app_i2c.c:298

                i2c_error = I2C_MT_NACK;
2000011a:	478d                	li	a5,3
2000011c:	80f18423          	sb	a5,-2040(gp) # 20002c08 <_edata>
c:\Users\Paul Scalise\CH592F_SSD1306\obj/../User/app_i2c.c:371
                /* put final byte into buffer */
                i2c_master_buffer[i2c_master_buffer_index++] = I2C_ReceiveData();

                if (i2c_send_stop) {
                    i2c_state = I2C_READY;
                    I2C_GenerateSTOP(ENABLE);
20000120:	4505                	li	a0,1
c:\Users\Paul Scalise\CH592F_SSD1306\obj/../User/app_i2c.c:370
                    i2c_state = I2C_READY;
20000122:	800188a3          	sb	zero,-2031(gp) # 20002c11 <i2c_state>
c:\Users\Paul Scalise\CH592F_SSD1306\obj/../User/app_i2c.c:371
                    I2C_GenerateSTOP(ENABLE);
20000126:	e0003097          	auipc	ra,0xe0003
2000012a:	b3a080e7          	jalr	-1222(ra) # 2c60 <I2C_GenerateSTOP>
c:\Users\Paul Scalise\CH592F_SSD1306\obj/../User/app_i2c.c:479
                I2C_AcknowledgeConfig(ENABLE);
            }
        }
    }

    if (event & RB_I2C_BERR) {
2000012e:	10047793          	andi	a5,s0,256
20000132:	cf99                	beqz	a5,20000150 <I2C_IRQHandler+0xbe>
c:\Users\Paul Scalise\CH592F_SSD1306\obj/../User/app_i2c.c:480
        I2C_ClearFlag(RB_I2C_BERR);
20000134:	10000513          	li	a0,256
20000138:	e0003097          	auipc	ra,0xe0003
2000013c:	d28080e7          	jalr	-728(ra) # 2e60 <I2C_ClearFlag>
c:\Users\Paul Scalise\CH592F_SSD1306\obj/../User/app_i2c.c:481
        I2C_GenerateSTOP(ENABLE);
20000140:	4505                	li	a0,1
20000142:	e0003097          	auipc	ra,0xe0003
20000146:	b1e080e7          	jalr	-1250(ra) # 2c60 <I2C_GenerateSTOP>
c:\Users\Paul Scalise\CH592F_SSD1306\obj/../User/app_i2c.c:483

        i2c_error = I2C_BUS_ERROR;
2000014a:	4795                	li	a5,5
2000014c:	80f18423          	sb	a5,-2040(gp) # 20002c08 <_edata>
c:\Users\Paul Scalise\CH592F_SSD1306\obj/../User/app_i2c.c:487
        I2C_DBG("RB_I2C_BERR\n");
    }

    if (event & RB_I2C_ARLO) {
20000150:	20047793          	andi	a5,s0,512
20000154:	22078163          	beqz	a5,20000376 <I2C_IRQHandler+0x2e4>
c:\Users\Paul Scalise\CH592F_SSD1306\obj/../User/app_i2c.c:488
        I2C_ClearFlag(RB_I2C_ARLO);
20000158:	20000513          	li	a0,512
2000015c:	e0003097          	auipc	ra,0xe0003
20000160:	d04080e7          	jalr	-764(ra) # 2e60 <I2C_ClearFlag>
c:\Users\Paul Scalise\CH592F_SSD1306\obj/../User/app_i2c.c:490
        
        i2c_error = I2C_ARB_LOST;
20000164:	4791                	li	a5,4
20000166:	80f18423          	sb	a5,-2040(gp) # 20002c08 <_edata>
2000016a:	a431                	j	20000376 <I2C_IRQHandler+0x2e4>
c:\Users\Paul Scalise\CH592F_SSD1306\obj/../User/app_i2c.c:277
                    if (i2c_send_stop) {
2000016c:	80c1c783          	lbu	a5,-2036(gp) # 20002c0c <i2c_send_stop>
20000170:	cb89                	beqz	a5,20000182 <I2C_IRQHandler+0xf0>
c:\Users\Paul Scalise\CH592F_SSD1306\obj/../User/app_i2c.c:279
                        I2C_GenerateSTOP(ENABLE);
20000172:	4505                	li	a0,1
c:\Users\Paul Scalise\CH592F_SSD1306\obj/../User/app_i2c.c:278
                        i2c_state = I2C_READY;
20000174:	800188a3          	sb	zero,-2031(gp) # 20002c11 <i2c_state>
c:\Users\Paul Scalise\CH592F_SSD1306\obj/../User/app_i2c.c:279
                        I2C_GenerateSTOP(ENABLE);
20000178:	e0003097          	auipc	ra,0xe0003
2000017c:	ae8080e7          	jalr	-1304(ra) # 2c60 <I2C_GenerateSTOP>
c:\Users\Paul Scalise\CH592F_SSD1306\obj/../User/app_i2c.c:280
                        I2C_DBG("  send STOP\n");
20000180:	b761                	j	20000108 <I2C_IRQHandler+0x76>
c:\Users\Paul Scalise\CH592F_SSD1306\obj/../User/app_i2c.c:282
                        i2c_in_repstart = true;
20000182:	4785                	li	a5,1
c:\Users\Paul Scalise\CH592F_SSD1306\obj/../User/app_i2c.c:284
                        I2C_ITConfig(I2C_IT_BUF, DISABLE);
20000184:	4581                	li	a1,0
20000186:	40000513          	li	a0,1024
c:\Users\Paul Scalise\CH592F_SSD1306\obj/../User/app_i2c.c:282
                        i2c_in_repstart = true;
2000018a:	80f184a3          	sb	a5,-2039(gp) # 20002c09 <i2c_in_repstart>
c:\Users\Paul Scalise\CH592F_SSD1306\obj/../User/app_i2c.c:284
                        I2C_ITConfig(I2C_IT_BUF, DISABLE);
2000018e:	e0003097          	auipc	ra,0xe0003
20000192:	b16080e7          	jalr	-1258(ra) # 2ca4 <I2C_ITConfig>
c:\Users\Paul Scalise\CH592F_SSD1306\obj/../User/app_i2c.c:285
                        I2C_ITConfig(I2C_IT_EVT, DISABLE);
20000196:	4581                	li	a1,0
20000198:	20000513          	li	a0,512
2000019c:	e0003097          	auipc	ra,0xe0003
200001a0:	b08080e7          	jalr	-1272(ra) # 2ca4 <I2C_ITConfig>
c:\Users\Paul Scalise\CH592F_SSD1306\obj/../User/app_i2c.c:286
                        I2C_ITConfig(I2C_IT_ERR, DISABLE);
200001a4:	4581                	li	a1,0
200001a6:	10000513          	li	a0,256
200001aa:	e0003097          	auipc	ra,0xe0003
200001ae:	afa080e7          	jalr	-1286(ra) # 2ca4 <I2C_ITConfig>
c:\Users\Paul Scalise\CH592F_SSD1306\obj/../User/app_i2c.c:287
                        I2C_GenerateSTART(ENABLE);
200001b2:	4505                	li	a0,1
200001b4:	e0003097          	auipc	ra,0xe0003
200001b8:	a8a080e7          	jalr	-1398(ra) # 2c3e <I2C_GenerateSTART>
c:\Users\Paul Scalise\CH592F_SSD1306\obj/../User/app_i2c.c:288
                        i2c_state = I2C_READY;
200001bc:	800188a3          	sb	zero,-2031(gp) # 20002c11 <i2c_state>
200001c0:	b7a1                	j	20000108 <I2C_IRQHandler+0x76>
c:\Users\Paul Scalise\CH592F_SSD1306\obj/../User/app_i2c.c:308
            if(event & RB_I2C_ADDR) { 
200001c2:	00247793          	andi	a5,s0,2
200001c6:	cb89                	beqz	a5,200001d8 <I2C_IRQHandler+0x146>
c:\Users\Paul Scalise\CH592F_SSD1306\obj/../User/app_i2c.c:310
                if (i2c_master_buffer_length) {
200001c8:	80b1c783          	lbu	a5,-2037(gp) # 20002c0b <i2c_master_buffer_length>
200001cc:	c3e1                	beqz	a5,2000028c <I2C_IRQHandler+0x1fa>
c:\Users\Paul Scalise\CH592F_SSD1306\obj/../User/app_i2c.c:311
                    I2C_AcknowledgeConfig(ENABLE);
200001ce:	4505                	li	a0,1
200001d0:	e0003097          	auipc	ra,0xe0003
200001d4:	ab2080e7          	jalr	-1358(ra) # 2c82 <I2C_AcknowledgeConfig>
c:\Users\Paul Scalise\CH592F_SSD1306\obj/../User/app_i2c.c:324
            if (event & (RB_I2C_RxNE)) {
200001d8:	04047793          	andi	a5,s0,64
200001dc:	cb9d                	beqz	a5,20000212 <I2C_IRQHandler+0x180>
c:\Users\Paul Scalise\CH592F_SSD1306\obj/../User/app_i2c.c:326
                i2c_master_buffer[i2c_master_buffer_index++] = I2C_ReceiveData();
200001de:	80a1c903          	lbu	s2,-2038(gp) # 20002c0a <i2c_master_buffer_index>
200001e2:	00190793          	addi	a5,s2,1
200001e6:	80f18523          	sb	a5,-2038(gp) # 20002c0a <i2c_master_buffer_index>
200001ea:	e0003097          	auipc	ra,0xe0003
200001ee:	ae2080e7          	jalr	-1310(ra) # 2ccc <I2C_ReceiveData>
200001f2:	82018793          	addi	a5,gp,-2016 # 20002c20 <i2c_master_buffer>
200001f6:	97ca                	add	a5,a5,s2
200001f8:	00a78023          	sb	a0,0(a5)
c:\Users\Paul Scalise\CH592F_SSD1306\obj/../User/app_i2c.c:328
                if (i2c_master_buffer_index < i2c_master_buffer_length) {
200001fc:	80b1c703          	lbu	a4,-2037(gp) # 20002c0b <i2c_master_buffer_length>
20000200:	80a1c783          	lbu	a5,-2038(gp) # 20002c0a <i2c_master_buffer_index>
20000204:	08e7fd63          	bgeu	a5,a4,2000029e <I2C_IRQHandler+0x20c>
c:\Users\Paul Scalise\CH592F_SSD1306\obj/../User/app_i2c.c:329
                    I2C_AcknowledgeConfig(ENABLE);
20000208:	4505                	li	a0,1
2000020a:	e0003097          	auipc	ra,0xe0003
2000020e:	a78080e7          	jalr	-1416(ra) # 2c82 <I2C_AcknowledgeConfig>
c:\Users\Paul Scalise\CH592F_SSD1306\obj/../User/app_i2c.c:364
            if (event & RB_I2C_AF) {
20000212:	f0048ee3          	beqz	s1,2000012e <I2C_IRQHandler+0x9c>
c:\Users\Paul Scalise\CH592F_SSD1306\obj/../User/app_i2c.c:365
                I2C_ClearFlag(I2C_FLAG_AF);
20000216:	10000537          	lui	a0,0x10000
2000021a:	40050513          	addi	a0,a0,1024 # 10000400 <_data_lma+0xfff97b0>
2000021e:	e0003097          	auipc	ra,0xe0003
20000222:	c42080e7          	jalr	-958(ra) # 2e60 <I2C_ClearFlag>
c:\Users\Paul Scalise\CH592F_SSD1306\obj/../User/app_i2c.c:367
                i2c_master_buffer[i2c_master_buffer_index++] = I2C_ReceiveData();
20000226:	80a1c483          	lbu	s1,-2038(gp) # 20002c0a <i2c_master_buffer_index>
2000022a:	00148793          	addi	a5,s1,1
2000022e:	80f18523          	sb	a5,-2038(gp) # 20002c0a <i2c_master_buffer_index>
20000232:	e0003097          	auipc	ra,0xe0003
20000236:	a9a080e7          	jalr	-1382(ra) # 2ccc <I2C_ReceiveData>
2000023a:	82018793          	addi	a5,gp,-2016 # 20002c20 <i2c_master_buffer>
2000023e:	97a6                	add	a5,a5,s1
20000240:	00a78023          	sb	a0,0(a5)
c:\Users\Paul Scalise\CH592F_SSD1306\obj/../User/app_i2c.c:369
                if (i2c_send_stop) {
20000244:	80c1c783          	lbu	a5,-2036(gp) # 20002c0c <i2c_send_stop>
20000248:	ec079ce3          	bnez	a5,20000120 <I2C_IRQHandler+0x8e>
c:\Users\Paul Scalise\CH592F_SSD1306\obj/../User/app_i2c.c:374
                    i2c_in_repstart = true;
2000024c:	4785                	li	a5,1
c:\Users\Paul Scalise\CH592F_SSD1306\obj/../User/app_i2c.c:376
                    I2C_ITConfig(I2C_IT_BUF, DISABLE);
2000024e:	4581                	li	a1,0
20000250:	40000513          	li	a0,1024
c:\Users\Paul Scalise\CH592F_SSD1306\obj/../User/app_i2c.c:374
                    i2c_in_repstart = true;
20000254:	80f184a3          	sb	a5,-2039(gp) # 20002c09 <i2c_in_repstart>
c:\Users\Paul Scalise\CH592F_SSD1306\obj/../User/app_i2c.c:376
                    I2C_ITConfig(I2C_IT_BUF, DISABLE);
20000258:	e0003097          	auipc	ra,0xe0003
2000025c:	a4c080e7          	jalr	-1460(ra) # 2ca4 <I2C_ITConfig>
c:\Users\Paul Scalise\CH592F_SSD1306\obj/../User/app_i2c.c:377
                    I2C_ITConfig(I2C_IT_EVT, DISABLE);
20000260:	4581                	li	a1,0
20000262:	20000513          	li	a0,512
20000266:	e0003097          	auipc	ra,0xe0003
2000026a:	a3e080e7          	jalr	-1474(ra) # 2ca4 <I2C_ITConfig>
c:\Users\Paul Scalise\CH592F_SSD1306\obj/../User/app_i2c.c:378
                    I2C_ITConfig(I2C_IT_ERR, DISABLE);
2000026e:	4581                	li	a1,0
20000270:	10000513          	li	a0,256
20000274:	e0003097          	auipc	ra,0xe0003
20000278:	a30080e7          	jalr	-1488(ra) # 2ca4 <I2C_ITConfig>
c:\Users\Paul Scalise\CH592F_SSD1306\obj/../User/app_i2c.c:379
                    I2C_GenerateSTART(ENABLE);
2000027c:	4505                	li	a0,1
2000027e:	e0003097          	auipc	ra,0xe0003
20000282:	9c0080e7          	jalr	-1600(ra) # 2c3e <I2C_GenerateSTART>
c:\Users\Paul Scalise\CH592F_SSD1306\obj/../User/app_i2c.c:380
                    i2c_state = I2C_READY;
20000286:	800188a3          	sb	zero,-2031(gp) # 20002c11 <i2c_state>
2000028a:	b555                	j	2000012e <I2C_IRQHandler+0x9c>
c:\Users\Paul Scalise\CH592F_SSD1306\obj/../User/app_i2c.c:316
                    I2C_AcknowledgeConfig(DISABLE);
2000028c:	4501                	li	a0,0
2000028e:	e0003097          	auipc	ra,0xe0003
20000292:	9f4080e7          	jalr	-1548(ra) # 2c82 <I2C_AcknowledgeConfig>
c:\Users\Paul Scalise\CH592F_SSD1306\obj/../User/app_i2c.c:317
                    is_nack_sent = true;
20000296:	4785                	li	a5,1
20000298:	80f18923          	sb	a5,-2030(gp) # 20002c12 <is_nack_sent>
2000029c:	bf35                	j	200001d8 <I2C_IRQHandler+0x146>
c:\Users\Paul Scalise\CH592F_SSD1306\obj/../User/app_i2c.c:333
                    I2C_AcknowledgeConfig(DISABLE);
2000029e:	4501                	li	a0,0
200002a0:	e0003097          	auipc	ra,0xe0003
200002a4:	9e2080e7          	jalr	-1566(ra) # 2c82 <I2C_AcknowledgeConfig>
c:\Users\Paul Scalise\CH592F_SSD1306\obj/../User/app_i2c.c:336
                    if (is_nack_sent) {
200002a8:	8121c783          	lbu	a5,-2030(gp) # 20002c12 <is_nack_sent>
200002ac:	cfa1                	beqz	a5,20000304 <I2C_IRQHandler+0x272>
c:\Users\Paul Scalise\CH592F_SSD1306\obj/../User/app_i2c.c:337
                        is_nack_sent = false;
200002ae:	80018923          	sb	zero,-2030(gp) # 20002c12 <is_nack_sent>
c:\Users\Paul Scalise\CH592F_SSD1306\obj/../User/app_i2c.c:338
                        if (i2c_send_stop) {
200002b2:	80c1c783          	lbu	a5,-2036(gp) # 20002c0c <i2c_send_stop>
200002b6:	cb89                	beqz	a5,200002c8 <I2C_IRQHandler+0x236>
c:\Users\Paul Scalise\CH592F_SSD1306\obj/../User/app_i2c.c:339
                            I2C_GenerateSTOP(ENABLE);
200002b8:	4505                	li	a0,1
200002ba:	e0003097          	auipc	ra,0xe0003
200002be:	9a6080e7          	jalr	-1626(ra) # 2c60 <I2C_GenerateSTOP>
c:\Users\Paul Scalise\CH592F_SSD1306\obj/../User/app_i2c.c:349
                            i2c_state = I2C_READY;
200002c2:	800188a3          	sb	zero,-2031(gp) # 20002c11 <i2c_state>
200002c6:	b7b1                	j	20000212 <I2C_IRQHandler+0x180>
c:\Users\Paul Scalise\CH592F_SSD1306\obj/../User/app_i2c.c:343
                            i2c_in_repstart = true;
200002c8:	4785                	li	a5,1
c:\Users\Paul Scalise\CH592F_SSD1306\obj/../User/app_i2c.c:345
                            I2C_ITConfig(I2C_IT_BUF, DISABLE);
200002ca:	4581                	li	a1,0
200002cc:	40000513          	li	a0,1024
c:\Users\Paul Scalise\CH592F_SSD1306\obj/../User/app_i2c.c:343
                            i2c_in_repstart = true;
200002d0:	80f184a3          	sb	a5,-2039(gp) # 20002c09 <i2c_in_repstart>
c:\Users\Paul Scalise\CH592F_SSD1306\obj/../User/app_i2c.c:345
                            I2C_ITConfig(I2C_IT_BUF, DISABLE);
200002d4:	e0003097          	auipc	ra,0xe0003
200002d8:	9d0080e7          	jalr	-1584(ra) # 2ca4 <I2C_ITConfig>
c:\Users\Paul Scalise\CH592F_SSD1306\obj/../User/app_i2c.c:346
                            I2C_ITConfig(I2C_IT_EVT, DISABLE);
200002dc:	4581                	li	a1,0
200002de:	20000513          	li	a0,512
200002e2:	e0003097          	auipc	ra,0xe0003
200002e6:	9c2080e7          	jalr	-1598(ra) # 2ca4 <I2C_ITConfig>
c:\Users\Paul Scalise\CH592F_SSD1306\obj/../User/app_i2c.c:347
                            I2C_ITConfig(I2C_IT_ERR, DISABLE);
200002ea:	4581                	li	a1,0
200002ec:	10000513          	li	a0,256
200002f0:	e0003097          	auipc	ra,0xe0003
200002f4:	9b4080e7          	jalr	-1612(ra) # 2ca4 <I2C_ITConfig>
c:\Users\Paul Scalise\CH592F_SSD1306\obj/../User/app_i2c.c:348
                            I2C_GenerateSTART(ENABLE);
200002f8:	4505                	li	a0,1
200002fa:	e0003097          	auipc	ra,0xe0003
200002fe:	944080e7          	jalr	-1724(ra) # 2c3e <I2C_GenerateSTART>
20000302:	b7c1                	j	200002c2 <I2C_IRQHandler+0x230>
c:\Users\Paul Scalise\CH592F_SSD1306\obj/../User/app_i2c.c:354
                        is_nack_sent = true;
20000304:	4785                	li	a5,1
20000306:	80f18923          	sb	a5,-2030(gp) # 20002c12 <is_nack_sent>
2000030a:	b721                	j	20000212 <I2C_IRQHandler+0x180>
c:\Users\Paul Scalise\CH592F_SSD1306\obj/../User/app_i2c.c:389
        if (event & RB_I2C_ADDR) {
2000030c:	00257793          	andi	a5,a0,2
20000310:	cb8d                	beqz	a5,20000342 <I2C_IRQHandler+0x2b0>
c:\Users\Paul Scalise\CH592F_SSD1306\obj/../User/app_i2c.c:391
            if (event & ((RB_I2C_TRA << 16) | RB_I2C_TxE)) {
20000312:	000407b7          	lui	a5,0x40
20000316:	08078793          	addi	a5,a5,128 # 40080 <_data_lma+0x39430>
2000031a:	8fe9                	and	a5,a5,a0
2000031c:	c7e1                	beqz	a5,200003e4 <I2C_IRQHandler+0x352>
c:\Users\Paul Scalise\CH592F_SSD1306\obj/../User/app_i2c.c:394
                i2c_state = I2C_STX;
2000031e:	4791                	li	a5,4
20000320:	80f188a3          	sb	a5,-2031(gp) # 20002c11 <i2c_state>
c:\Users\Paul Scalise\CH592F_SSD1306\obj/../User/app_i2c.c:395
                i2c_slave_txbuffer_index = 0;
20000324:	800187a3          	sb	zero,-2033(gp) # 20002c0f <i2c_slave_txbuffer_index>
c:\Users\Paul Scalise\CH592F_SSD1306\obj/../User/app_i2c.c:396
                i2c_slave_txbuffer_length = 0;
20000328:	80018823          	sb	zero,-2032(gp) # 20002c10 <i2c_slave_txbuffer_length>
c:\Users\Paul Scalise\CH592F_SSD1306\obj/../User/app_i2c.c:398
                if (slave_cb && slave_cb->on_transmit) {
2000032c:	81418793          	addi	a5,gp,-2028 # 20002c14 <slave_cb>
20000330:	439c                	lw	a5,0(a5)
20000332:	cb81                	beqz	a5,20000342 <I2C_IRQHandler+0x2b0>
c:\Users\Paul Scalise\CH592F_SSD1306\obj/../User/app_i2c.c:398 (discriminator 1)
20000334:	439c                	lw	a5,0(a5)
20000336:	c791                	beqz	a5,20000342 <I2C_IRQHandler+0x2b0>
c:\Users\Paul Scalise\CH592F_SSD1306\obj/../User/app_i2c.c:399
                    slave_cb->on_transmit(i2c_slave_txbuffer, &i2c_slave_txbuffer_length);
20000338:	81018593          	addi	a1,gp,-2032 # 20002c10 <i2c_slave_txbuffer_length>
2000033c:	92018513          	addi	a0,gp,-1760 # 20002d20 <i2c_slave_txbuffer>
20000340:	9782                	jalr	a5
c:\Users\Paul Scalise\CH592F_SSD1306\obj/../User/app_i2c.c:409
        if (event & (RB_I2C_TRA << 16)) { //TODO: STOP?
20000342:	00d41793          	slli	a5,s0,0xd
20000346:	0e07d563          	bgez	a5,20000430 <I2C_IRQHandler+0x39e>
c:\Users\Paul Scalise\CH592F_SSD1306\obj/../User/app_i2c.c:411
            I2C_AcknowledgeConfig(ENABLE);
2000034a:	4505                	li	a0,1
2000034c:	e0003097          	auipc	ra,0xe0003
20000350:	936080e7          	jalr	-1738(ra) # 2c82 <I2C_AcknowledgeConfig>
c:\Users\Paul Scalise\CH592F_SSD1306\obj/../User/app_i2c.c:414
            if (event & RB_I2C_AF) {
20000354:	ccd1                	beqz	s1,200003f0 <I2C_IRQHandler+0x35e>
c:\Users\Paul Scalise\CH592F_SSD1306\obj/../User/app_i2c.c:416
                I2C_ClearFlag(I2C_FLAG_AF);
20000356:	10000537          	lui	a0,0x10000
2000035a:	40050513          	addi	a0,a0,1024 # 10000400 <_data_lma+0xfff97b0>
2000035e:	e0003097          	auipc	ra,0xe0003
20000362:	b02080e7          	jalr	-1278(ra) # 2e60 <I2C_ClearFlag>
c:\Users\Paul Scalise\CH592F_SSD1306\obj/../User/app_i2c.c:417
                I2C_AcknowledgeConfig(ENABLE);
20000366:	4505                	li	a0,1
20000368:	e0003097          	auipc	ra,0xe0003
2000036c:	91a080e7          	jalr	-1766(ra) # 2c82 <I2C_AcknowledgeConfig>
c:\Users\Paul Scalise\CH592F_SSD1306\obj/../User/app_i2c.c:423
                event = 0;
20000370:	4401                	li	s0,0
c:\Users\Paul Scalise\CH592F_SSD1306\obj/../User/app_i2c.c:421
                i2c_state = I2C_READY;
20000372:	800188a3          	sb	zero,-2031(gp) # 20002c11 <i2c_state>
c:\Users\Paul Scalise\CH592F_SSD1306\obj/../User/app_i2c.c:494
        I2C_DBG("RB_I2C_ARLO\n");
    }

    if (event & RB_I2C_OVR) {
20000376:	6505                	lui	a0,0x1
20000378:	80050513          	addi	a0,a0,-2048 # 800 <__stack_size+0x600>
2000037c:	00a477b3          	and	a5,s0,a0
20000380:	cb81                	beqz	a5,20000390 <I2C_IRQHandler+0x2fe>
c:\Users\Paul Scalise\CH592F_SSD1306\obj/../User/app_i2c.c:495
        I2C_ClearFlag(RB_I2C_OVR);
20000382:	e0003097          	auipc	ra,0xe0003
20000386:	ade080e7          	jalr	-1314(ra) # 2e60 <I2C_ClearFlag>
c:\Users\Paul Scalise\CH592F_SSD1306\obj/../User/app_i2c.c:497
        
        i2c_error = I2C_OVR;
2000038a:	4799                	li	a5,6
2000038c:	80f18423          	sb	a5,-2040(gp) # 20002c08 <_edata>
c:\Users\Paul Scalise\CH592F_SSD1306\obj/../User/app_i2c.c:501
        I2C_DBG("RB_I2C_OVR\n");
    }

    if (event & RB_I2C_PECERR) {
20000390:	01341793          	slli	a5,s0,0x13
20000394:	0007da63          	bgez	a5,200003a8 <I2C_IRQHandler+0x316>
c:\Users\Paul Scalise\CH592F_SSD1306\obj/../User/app_i2c.c:502
        I2C_ClearFlag(RB_I2C_PECERR);
20000398:	6505                	lui	a0,0x1
2000039a:	e0003097          	auipc	ra,0xe0003
2000039e:	ac6080e7          	jalr	-1338(ra) # 2e60 <I2C_ClearFlag>
c:\Users\Paul Scalise\CH592F_SSD1306\obj/../User/app_i2c.c:504
        
        i2c_error = I2C_PECERR;
200003a2:	479d                	li	a5,7
200003a4:	80f18423          	sb	a5,-2040(gp) # 20002c08 <_edata>
c:\Users\Paul Scalise\CH592F_SSD1306\obj/../User/app_i2c.c:508
        I2C_DBG("RB_I2C_PECERR\n");
    }

    if (event & RB_I2C_TIMEOUT) {
200003a8:	01141793          	slli	a5,s0,0x11
200003ac:	0007da63          	bgez	a5,200003c0 <I2C_IRQHandler+0x32e>
c:\Users\Paul Scalise\CH592F_SSD1306\obj/../User/app_i2c.c:509
        I2C_ClearFlag(RB_I2C_TIMEOUT);
200003b0:	6511                	lui	a0,0x4
200003b2:	e0003097          	auipc	ra,0xe0003
200003b6:	aae080e7          	jalr	-1362(ra) # 2e60 <I2C_ClearFlag>
c:\Users\Paul Scalise\CH592F_SSD1306\obj/../User/app_i2c.c:511
        
        i2c_error = I2C_TIMEOUT;
200003ba:	47a1                	li	a5,8
200003bc:	80f18423          	sb	a5,-2040(gp) # 20002c08 <_edata>
c:\Users\Paul Scalise\CH592F_SSD1306\obj/../User/app_i2c.c:515
        I2C_DBG("RB_I2C_TIMEOUT\n");
    }

    if (event & RB_I2C_SMBALERT) {
200003c0:	01041793          	slli	a5,s0,0x10
200003c4:	0007da63          	bgez	a5,200003d8 <I2C_IRQHandler+0x346>
c:\Users\Paul Scalise\CH592F_SSD1306\obj/../User/app_i2c.c:516
        I2C_ClearFlag(RB_I2C_SMBALERT);
200003c8:	6521                	lui	a0,0x8
200003ca:	e0003097          	auipc	ra,0xe0003
200003ce:	a96080e7          	jalr	-1386(ra) # 2e60 <I2C_ClearFlag>
c:\Users\Paul Scalise\CH592F_SSD1306\obj/../User/app_i2c.c:518
        
        i2c_error = I2C_SMBALERT;
200003d2:	47a5                	li	a5,9
200003d4:	80f18423          	sb	a5,-2040(gp) # 20002c08 <_edata>
c:\Users\Paul Scalise\CH592F_SSD1306\obj/../User/app_i2c.c:523
        I2C_DBG("RB_I2C_SMBALERT\n");
    }

    I2C_DBG("\n");
}
200003d8:	4432                	lw	s0,12(sp)
200003da:	44a2                	lw	s1,8(sp)
200003dc:	4912                	lw	s2,4(sp)
200003de:	0141                	addi	sp,sp,16
200003e0:	30200073          	mret
c:\Users\Paul Scalise\CH592F_SSD1306\obj/../User/app_i2c.c:404
                i2c_state = I2C_SRX;
200003e4:	478d                	li	a5,3
200003e6:	80f188a3          	sb	a5,-2031(gp) # 20002c11 <i2c_state>
c:\Users\Paul Scalise\CH592F_SSD1306\obj/../User/app_i2c.c:405
                i2c_slave_rxbuffer_index = 0;
200003ea:	80018723          	sb	zero,-2034(gp) # 20002c0e <i2c_slave_rxbuffer_index>
200003ee:	bf91                	j	20000342 <I2C_IRQHandler+0x2b0>
c:\Users\Paul Scalise\CH592F_SSD1306\obj/../User/app_i2c.c:426
            if (event & (RB_I2C_BTF | RB_I2C_TxE)) {
200003f0:	08447793          	andi	a5,s0,132
200003f4:	d2078de3          	beqz	a5,2000012e <I2C_IRQHandler+0x9c>
c:\Users\Paul Scalise\CH592F_SSD1306\obj/../User/app_i2c.c:428
                if (i2c_slave_txbuffer_index < i2c_slave_txbuffer_length) {
200003f8:	80f1c783          	lbu	a5,-2033(gp) # 20002c0f <i2c_slave_txbuffer_index>
200003fc:	8101c703          	lbu	a4,-2032(gp) # 20002c10 <i2c_slave_txbuffer_length>
c:\Users\Paul Scalise\CH592F_SSD1306\obj/../User/app_i2c.c:434
                    I2C_SendData(0xff);
20000400:	0ff00513          	li	a0,255
c:\Users\Paul Scalise\CH592F_SSD1306\obj/../User/app_i2c.c:428
                if (i2c_slave_txbuffer_index < i2c_slave_txbuffer_length) {
20000404:	02e7f163          	bgeu	a5,a4,20000426 <I2C_IRQHandler+0x394>
c:\Users\Paul Scalise\CH592F_SSD1306\obj/../User/app_i2c.c:430
                    I2C_SendData(i2c_slave_txbuffer[i2c_slave_txbuffer_index++]);
20000408:	80f18793          	addi	a5,gp,-2033 # 20002c0f <i2c_slave_txbuffer_index>
2000040c:	0007c783          	lbu	a5,0(a5)
20000410:	0ff7f793          	andi	a5,a5,255
20000414:	00178713          	addi	a4,a5,1
20000418:	80e187a3          	sb	a4,-2033(gp) # 20002c0f <i2c_slave_txbuffer_index>
2000041c:	92018713          	addi	a4,gp,-1760 # 20002d20 <i2c_slave_txbuffer>
20000420:	97ba                	add	a5,a5,a4
20000422:	0007c503          	lbu	a0,0(a5)
c:\Users\Paul Scalise\CH592F_SSD1306\obj/../User/app_i2c.c:434
                    I2C_SendData(0xff);
20000426:	e0003097          	auipc	ra,0xe0003
2000042a:	89c080e7          	jalr	-1892(ra) # 2cc2 <I2C_SendData>
2000042e:	b301                	j	2000012e <I2C_IRQHandler+0x9c>
c:\Users\Paul Scalise\CH592F_SSD1306\obj/../User/app_i2c.c:442
            if (event & RB_I2C_RxNE) {
20000430:	04047793          	andi	a5,s0,64
20000434:	c3a1                	beqz	a5,20000474 <I2C_IRQHandler+0x3e2>
c:\Users\Paul Scalise\CH592F_SSD1306\obj/../User/app_i2c.c:444
                if (i2c_slave_rxbuffer_index < I2C_BUFFER_LENGTH) {
20000436:	80e1c783          	lbu	a5,-2034(gp) # 20002c0e <i2c_slave_rxbuffer_index>
2000043a:	07e2                	slli	a5,a5,0x18
2000043c:	87e1                	srai	a5,a5,0x18
c:\Users\Paul Scalise\CH592F_SSD1306\obj/../User/app_i2c.c:452
                    I2C_AcknowledgeConfig(DISABLE);
2000043e:	4501                	li	a0,0
c:\Users\Paul Scalise\CH592F_SSD1306\obj/../User/app_i2c.c:444
                if (i2c_slave_rxbuffer_index < I2C_BUFFER_LENGTH) {
20000440:	0207c663          	bltz	a5,2000046c <I2C_IRQHandler+0x3da>
c:\Users\Paul Scalise\CH592F_SSD1306\obj/../User/app_i2c.c:446
                    i2c_slave_rxbuffer[i2c_slave_rxbuffer_index++] = I2C_ReceiveData();
20000444:	80e18793          	addi	a5,gp,-2034 # 20002c0e <i2c_slave_rxbuffer_index>
20000448:	0007c903          	lbu	s2,0(a5)
2000044c:	0ff97913          	andi	s2,s2,255
20000450:	00190793          	addi	a5,s2,1
20000454:	80f18723          	sb	a5,-2034(gp) # 20002c0e <i2c_slave_rxbuffer_index>
20000458:	e0003097          	auipc	ra,0xe0003
2000045c:	874080e7          	jalr	-1932(ra) # 2ccc <I2C_ReceiveData>
20000460:	8a018793          	addi	a5,gp,-1888 # 20002ca0 <i2c_slave_rxbuffer>
20000464:	993e                	add	s2,s2,a5
20000466:	00a90023          	sb	a0,0(s2)
c:\Users\Paul Scalise\CH592F_SSD1306\obj/../User/app_i2c.c:447
                    I2C_AcknowledgeConfig(ENABLE);
2000046a:	4505                	li	a0,1
c:\Users\Paul Scalise\CH592F_SSD1306\obj/../User/app_i2c.c:452
                    I2C_AcknowledgeConfig(DISABLE);
2000046c:	e0003097          	auipc	ra,0xe0003
20000470:	816080e7          	jalr	-2026(ra) # 2c82 <I2C_AcknowledgeConfig>
c:\Users\Paul Scalise\CH592F_SSD1306\obj/../User/app_i2c.c:456
            if (event & RB_I2C_STOPF) {
20000474:	01047793          	andi	a5,s0,16
20000478:	c795                	beqz	a5,200004a4 <I2C_IRQHandler+0x412>
c:\Users\Paul Scalise\CH592F_SSD1306\obj/../User/app_i2c.c:458
                R16_I2C_CTRL1 |= RB_I2C_PE; //clear flag
2000047a:	40005737          	lui	a4,0x40005
2000047e:	80075783          	lhu	a5,-2048(a4) # 40004800 <_eusrstack+0x1fffe000>
20000482:	0017e793          	ori	a5,a5,1
20000486:	80f71023          	sh	a5,-2048(a4)
c:\Users\Paul Scalise\CH592F_SSD1306\obj/../User/app_i2c.c:463
                if (slave_cb && slave_cb->on_receive) {
2000048a:	81418793          	addi	a5,gp,-2028 # 20002c14 <slave_cb>
2000048e:	439c                	lw	a5,0(a5)
20000490:	cb81                	beqz	a5,200004a0 <I2C_IRQHandler+0x40e>
c:\Users\Paul Scalise\CH592F_SSD1306\obj/../User/app_i2c.c:463 (discriminator 1)
20000492:	43dc                	lw	a5,4(a5)
20000494:	c791                	beqz	a5,200004a0 <I2C_IRQHandler+0x40e>
c:\Users\Paul Scalise\CH592F_SSD1306\obj/../User/app_i2c.c:464
                    slave_cb->on_receive(i2c_slave_rxbuffer, i2c_slave_rxbuffer_index);
20000496:	80e1c583          	lbu	a1,-2034(gp) # 20002c0e <i2c_slave_rxbuffer_index>
2000049a:	8a018513          	addi	a0,gp,-1888 # 20002ca0 <i2c_slave_rxbuffer>
2000049e:	9782                	jalr	a5
c:\Users\Paul Scalise\CH592F_SSD1306\obj/../User/app_i2c.c:467
                i2c_slave_rxbuffer_index = 0;
200004a0:	80018723          	sb	zero,-2034(gp) # 20002c0e <i2c_slave_rxbuffer_index>
c:\Users\Paul Scalise\CH592F_SSD1306\obj/../User/app_i2c.c:470
            if (event & RB_I2C_AF) {  
200004a4:	c80485e3          	beqz	s1,2000012e <I2C_IRQHandler+0x9c>
c:\Users\Paul Scalise\CH592F_SSD1306\obj/../User/app_i2c.c:471
                I2C_ClearFlag(I2C_FLAG_AF);
200004a8:	10000537          	lui	a0,0x10000
200004ac:	40050513          	addi	a0,a0,1024 # 10000400 <_data_lma+0xfff97b0>
200004b0:	e0003097          	auipc	ra,0xe0003
200004b4:	9b0080e7          	jalr	-1616(ra) # 2e60 <I2C_ClearFlag>
c:\Users\Paul Scalise\CH592F_SSD1306\obj/../User/app_i2c.c:474
                I2C_AcknowledgeConfig(ENABLE);
200004b8:	4505                	li	a0,1
200004ba:	e0002097          	auipc	ra,0xe0002
200004be:	7c8080e7          	jalr	1992(ra) # 2c82 <I2C_AcknowledgeConfig>
200004c2:	b1b5                	j	2000012e <I2C_IRQHandler+0x9c>

200004c4 <SetSysClock>:
SetSysClock():
c:\Users\Paul Scalise\CH592F_SSD1306\obj/../StdPeriphDriver/CH59x_sys.c:26
 *
 * @return  none
 */
__HIGH_CODE
void SetSysClock(SYS_CLKTypeDef sc)
{
200004c4:	1101                	addi	sp,sp,-32
__risc_v_disable_irq():
c:/Users/Paul Scalise/CH592F_SSD1306/RVMSIS/core_riscv.h:130
 */
__attribute__((always_inline)) RV_STATIC_INLINE uint32_t __risc_v_disable_irq(void)
{
  uint32_t result;

  __asm volatile ("csrrc %0, 0x800, %1" : \
200004c6:	08800713          	li	a4,136
200004ca:	800737f3          	csrrc	a5,0x800,a4
c:/Users/Paul Scalise/CH592F_SSD1306/RVMSIS/core_riscv.h:132
          "=r"(result): "r"(0x88) : "memory");
  return result & 0x88;
200004ce:	0887f793          	andi	a5,a5,136
SetSysClock():
c:\Users\Paul Scalise\CH592F_SSD1306\obj/../StdPeriphDriver/CH59x_sys.c:27
    sys_safe_access_enable();
200004d2:	c23e                	sw	a5,4(sp)
200004d4:	0001                	nop
200004d6:	0001                	nop
200004d8:	400017b7          	lui	a5,0x40001
200004dc:	05700593          	li	a1,87
200004e0:	04b78023          	sb	a1,64(a5) # 40001040 <_eusrstack+0x1fffa840>
200004e4:	fa800613          	li	a2,-88
200004e8:	04c78023          	sb	a2,64(a5)
200004ec:	0001                	nop
200004ee:	0001                	nop
c:\Users\Paul Scalise\CH592F_SSD1306\obj/../StdPeriphDriver/CH59x_sys.c:28
    R8_PLL_CONFIG &= ~(1 << 5); //
200004f0:	04b7c683          	lbu	a3,75(a5)
200004f4:	0df6f693          	andi	a3,a3,223
200004f8:	04d785a3          	sb	a3,75(a5)
c:\Users\Paul Scalise\CH592F_SSD1306\obj/../StdPeriphDriver/CH59x_sys.c:29
    sys_safe_access_disable();
200004fc:	04078023          	sb	zero,64(a5)
20000500:	4692                	lw	a3,4(sp)
__risc_v_enable_irq():
c:/Users/Paul Scalise/CH592F_SSD1306/RVMSIS/core_riscv.h:114
  __asm volatile ("csrrs %0, 0x800, %1" : \
20000502:	8006a6f3          	csrrs	a3,0x800,a3
SetSysClock():
c:\Users\Paul Scalise\CH592F_SSD1306\obj/../StdPeriphDriver/CH59x_sys.c:29
20000506:	0001                	nop
20000508:	0001                	nop
c:\Users\Paul Scalise\CH592F_SSD1306\obj/../StdPeriphDriver/CH59x_sys.c:30
    if(sc & 0x20)  // HSE div
2000050a:	02057693          	andi	a3,a0,32
2000050e:	ced5                	beqz	a3,200005ca <SetSysClock+0x106>
__risc_v_disable_irq():
c:/Users/Paul Scalise/CH592F_SSD1306/RVMSIS/core_riscv.h:130
  __asm volatile ("csrrc %0, 0x800, %1" : \
20000510:	800736f3          	csrrc	a3,0x800,a4
c:/Users/Paul Scalise/CH592F_SSD1306/RVMSIS/core_riscv.h:132
  return result & 0x88;
20000514:	0886f693          	andi	a3,a3,136
SetSysClock():
c:\Users\Paul Scalise\CH592F_SSD1306\obj/../StdPeriphDriver/CH59x_sys.c:32
    {
        sys_safe_access_enable();
20000518:	c436                	sw	a3,8(sp)
2000051a:	0001                	nop
2000051c:	0001                	nop
2000051e:	04b78023          	sb	a1,64(a5)
20000522:	04c78023          	sb	a2,64(a5)
20000526:	0001                	nop
20000528:	0001                	nop
c:\Users\Paul Scalise\CH592F_SSD1306\obj/../StdPeriphDriver/CH59x_sys.c:33
        R32_CLK_SYS_CFG = (0 << 6) | (sc & 0x1f) | RB_TX_32M_PWR_EN | RB_PLL_PWR_EN;
2000052a:	001406b7          	lui	a3,0x140
2000052e:	897d                	andi	a0,a0,31
20000530:	8d55                	or	a0,a0,a3
20000532:	c788                	sw	a0,8(a5)
c:\Users\Paul Scalise\CH592F_SSD1306\obj/../StdPeriphDriver/CH59x_sys.c:34
        __nop();
20000534:	0001                	nop
c:\Users\Paul Scalise\CH592F_SSD1306\obj/../StdPeriphDriver/CH59x_sys.c:35
        __nop();
20000536:	0001                	nop
c:\Users\Paul Scalise\CH592F_SSD1306\obj/../StdPeriphDriver/CH59x_sys.c:36
        __nop();
20000538:	0001                	nop
c:\Users\Paul Scalise\CH592F_SSD1306\obj/../StdPeriphDriver/CH59x_sys.c:37
        __nop();
2000053a:	0001                	nop
c:\Users\Paul Scalise\CH592F_SSD1306\obj/../StdPeriphDriver/CH59x_sys.c:38
        sys_safe_access_disable();
2000053c:	04078023          	sb	zero,64(a5)
20000540:	46a2                	lw	a3,8(sp)
__risc_v_enable_irq():
c:/Users/Paul Scalise/CH592F_SSD1306/RVMSIS/core_riscv.h:114
  __asm volatile ("csrrs %0, 0x800, %1" : \
20000542:	8006a6f3          	csrrs	a3,0x800,a3
SetSysClock():
c:\Users\Paul Scalise\CH592F_SSD1306\obj/../StdPeriphDriver/CH59x_sys.c:38
20000546:	0001                	nop
20000548:	0001                	nop
__risc_v_disable_irq():
c:/Users/Paul Scalise/CH592F_SSD1306/RVMSIS/core_riscv.h:130
  __asm volatile ("csrrc %0, 0x800, %1" : \
2000054a:	80073773          	csrrc	a4,0x800,a4
c:/Users/Paul Scalise/CH592F_SSD1306/RVMSIS/core_riscv.h:132
  return result & 0x88;
2000054e:	08877713          	andi	a4,a4,136
SetSysClock():
c:\Users\Paul Scalise\CH592F_SSD1306\obj/../StdPeriphDriver/CH59x_sys.c:39
        sys_safe_access_enable();
20000552:	c63a                	sw	a4,12(sp)
20000554:	0001                	nop
20000556:	0001                	nop
20000558:	04b78023          	sb	a1,64(a5)
2000055c:	04c78023          	sb	a2,64(a5)
20000560:	0001                	nop
20000562:	0001                	nop
c:\Users\Paul Scalise\CH592F_SSD1306\obj/../StdPeriphDriver/CH59x_sys.c:40
        SAFEOPERATE;
20000564:	0001                	nop
20000566:	0001                	nop
c:\Users\Paul Scalise\CH592F_SSD1306\obj/../StdPeriphDriver/CH59x_sys.c:41
        R8_FLASH_CFG = 0X51;
20000568:	40002737          	lui	a4,0x40002
2000056c:	05100693          	li	a3,81
20000570:	80d703a3          	sb	a3,-2041(a4) # 40001807 <_eusrstack+0x1fffb007>
c:\Users\Paul Scalise\CH592F_SSD1306\obj/../StdPeriphDriver/CH59x_sys.c:42
        sys_safe_access_disable();
20000574:	04078023          	sb	zero,64(a5)
20000578:	47b2                	lw	a5,12(sp)
__risc_v_enable_irq():
c:/Users/Paul Scalise/CH592F_SSD1306/RVMSIS/core_riscv.h:114
  __asm volatile ("csrrs %0, 0x800, %1" : \
2000057a:	8007a7f3          	csrrs	a5,0x800,a5
SetSysClock():
c:\Users\Paul Scalise\CH592F_SSD1306\obj/../StdPeriphDriver/CH59x_sys.c:62
    }
    else
    {
        sys_safe_access_enable();
        R32_CLK_SYS_CFG |= RB_CLK_SYS_MOD;
        sys_safe_access_disable();
2000057e:	0001                	nop
20000580:	0001                	nop
__risc_v_disable_irq():
c:/Users/Paul Scalise/CH592F_SSD1306/RVMSIS/core_riscv.h:130
  __asm volatile ("csrrc %0, 0x800, %1" : \
20000582:	08800793          	li	a5,136
20000586:	8007b7f3          	csrrc	a5,0x800,a5
c:/Users/Paul Scalise/CH592F_SSD1306/RVMSIS/core_riscv.h:132
  return result & 0x88;
2000058a:	0887f793          	andi	a5,a5,136
SetSysClock():
c:\Users\Paul Scalise\CH592F_SSD1306\obj/../StdPeriphDriver/CH59x_sys.c:65
    }
    //FLASH clk
    sys_safe_access_enable();
2000058e:	ce3e                	sw	a5,28(sp)
20000590:	0001                	nop
20000592:	0001                	nop
20000594:	400017b7          	lui	a5,0x40001
20000598:	05700713          	li	a4,87
2000059c:	04e78023          	sb	a4,64(a5) # 40001040 <_eusrstack+0x1fffa840>
200005a0:	fa800713          	li	a4,-88
200005a4:	04e78023          	sb	a4,64(a5)
200005a8:	0001                	nop
200005aa:	0001                	nop
c:\Users\Paul Scalise\CH592F_SSD1306\obj/../StdPeriphDriver/CH59x_sys.c:66
    R8_PLL_CONFIG |= 1 << 7;
200005ac:	04b7c703          	lbu	a4,75(a5)
200005b0:	08076713          	ori	a4,a4,128
200005b4:	04e785a3          	sb	a4,75(a5)
c:\Users\Paul Scalise\CH592F_SSD1306\obj/../StdPeriphDriver/CH59x_sys.c:67
    sys_safe_access_disable();
200005b8:	04078023          	sb	zero,64(a5)
200005bc:	47f2                	lw	a5,28(sp)
__risc_v_enable_irq():
c:/Users/Paul Scalise/CH592F_SSD1306/RVMSIS/core_riscv.h:114
  __asm volatile ("csrrs %0, 0x800, %1" : \
200005be:	8007a7f3          	csrrs	a5,0x800,a5
SetSysClock():
c:\Users\Paul Scalise\CH592F_SSD1306\obj/../StdPeriphDriver/CH59x_sys.c:67
200005c2:	0001                	nop
200005c4:	0001                	nop
c:\Users\Paul Scalise\CH592F_SSD1306\obj/../StdPeriphDriver/CH59x_sys.c:68
}
200005c6:	6105                	addi	sp,sp,32
200005c8:	8082                	ret
c:\Users\Paul Scalise\CH592F_SSD1306\obj/../StdPeriphDriver/CH59x_sys.c:45
    else if(sc & 0x40) // PLL div
200005ca:	04057693          	andi	a3,a0,64
200005ce:	c6bd                	beqz	a3,2000063c <SetSysClock+0x178>
__risc_v_disable_irq():
c:/Users/Paul Scalise/CH592F_SSD1306/RVMSIS/core_riscv.h:130
  __asm volatile ("csrrc %0, 0x800, %1" : \
200005d0:	800736f3          	csrrc	a3,0x800,a4
c:/Users/Paul Scalise/CH592F_SSD1306/RVMSIS/core_riscv.h:132
  return result & 0x88;
200005d4:	0886f693          	andi	a3,a3,136
SetSysClock():
c:\Users\Paul Scalise\CH592F_SSD1306\obj/../StdPeriphDriver/CH59x_sys.c:47
        sys_safe_access_enable();
200005d8:	c836                	sw	a3,16(sp)
200005da:	0001                	nop
200005dc:	0001                	nop
200005de:	04b78023          	sb	a1,64(a5)
200005e2:	04c78023          	sb	a2,64(a5)
200005e6:	0001                	nop
200005e8:	0001                	nop
c:\Users\Paul Scalise\CH592F_SSD1306\obj/../StdPeriphDriver/CH59x_sys.c:48
        R32_CLK_SYS_CFG = (1 << 6) | (sc & 0x1f) | RB_TX_32M_PWR_EN | RB_PLL_PWR_EN;
200005ea:	001406b7          	lui	a3,0x140
200005ee:	04068693          	addi	a3,a3,64 # 140040 <_data_lma+0x1393f0>
200005f2:	897d                	andi	a0,a0,31
200005f4:	8d55                	or	a0,a0,a3
200005f6:	c788                	sw	a0,8(a5)
c:\Users\Paul Scalise\CH592F_SSD1306\obj/../StdPeriphDriver/CH59x_sys.c:49
        __nop();
200005f8:	0001                	nop
c:\Users\Paul Scalise\CH592F_SSD1306\obj/../StdPeriphDriver/CH59x_sys.c:50
        __nop();
200005fa:	0001                	nop
c:\Users\Paul Scalise\CH592F_SSD1306\obj/../StdPeriphDriver/CH59x_sys.c:51
        __nop();
200005fc:	0001                	nop
c:\Users\Paul Scalise\CH592F_SSD1306\obj/../StdPeriphDriver/CH59x_sys.c:52
        __nop();
200005fe:	0001                	nop
c:\Users\Paul Scalise\CH592F_SSD1306\obj/../StdPeriphDriver/CH59x_sys.c:53
        sys_safe_access_disable();
20000600:	04078023          	sb	zero,64(a5)
20000604:	46c2                	lw	a3,16(sp)
__risc_v_enable_irq():
c:/Users/Paul Scalise/CH592F_SSD1306/RVMSIS/core_riscv.h:114
  __asm volatile ("csrrs %0, 0x800, %1" : \
20000606:	8006a6f3          	csrrs	a3,0x800,a3
SetSysClock():
c:\Users\Paul Scalise\CH592F_SSD1306\obj/../StdPeriphDriver/CH59x_sys.c:53
2000060a:	0001                	nop
2000060c:	0001                	nop
__risc_v_disable_irq():
c:/Users/Paul Scalise/CH592F_SSD1306/RVMSIS/core_riscv.h:130
  __asm volatile ("csrrc %0, 0x800, %1" : \
2000060e:	80073773          	csrrc	a4,0x800,a4
c:/Users/Paul Scalise/CH592F_SSD1306/RVMSIS/core_riscv.h:132
  return result & 0x88;
20000612:	08877713          	andi	a4,a4,136
SetSysClock():
c:\Users\Paul Scalise\CH592F_SSD1306\obj/../StdPeriphDriver/CH59x_sys.c:54
        sys_safe_access_enable();
20000616:	ca3a                	sw	a4,20(sp)
20000618:	0001                	nop
2000061a:	0001                	nop
2000061c:	04b78023          	sb	a1,64(a5)
20000620:	04c78023          	sb	a2,64(a5)
20000624:	0001                	nop
20000626:	0001                	nop
c:\Users\Paul Scalise\CH592F_SSD1306\obj/../StdPeriphDriver/CH59x_sys.c:55
        R8_FLASH_CFG = 0X52;
20000628:	40002737          	lui	a4,0x40002
2000062c:	05200693          	li	a3,82
20000630:	80d703a3          	sb	a3,-2041(a4) # 40001807 <_eusrstack+0x1fffb007>
c:\Users\Paul Scalise\CH592F_SSD1306\obj/../StdPeriphDriver/CH59x_sys.c:56
        sys_safe_access_disable();
20000634:	04078023          	sb	zero,64(a5)
20000638:	47d2                	lw	a5,20(sp)
__risc_v_enable_irq():
c:/Users/Paul Scalise/CH592F_SSD1306/RVMSIS/core_riscv.h:114
  __asm volatile ("csrrs %0, 0x800, %1" : \
2000063a:	b781                	j	2000057a <SetSysClock+0xb6>
__risc_v_disable_irq():
c:/Users/Paul Scalise/CH592F_SSD1306/RVMSIS/core_riscv.h:130
  __asm volatile ("csrrc %0, 0x800, %1" : \
2000063c:	80073773          	csrrc	a4,0x800,a4
c:/Users/Paul Scalise/CH592F_SSD1306/RVMSIS/core_riscv.h:132
  return result & 0x88;
20000640:	08877713          	andi	a4,a4,136
SetSysClock():
c:\Users\Paul Scalise\CH592F_SSD1306\obj/../StdPeriphDriver/CH59x_sys.c:60
        sys_safe_access_enable();
20000644:	cc3a                	sw	a4,24(sp)
20000646:	0001                	nop
20000648:	0001                	nop
2000064a:	04b78023          	sb	a1,64(a5)
2000064e:	04c78023          	sb	a2,64(a5)
20000652:	0001                	nop
20000654:	0001                	nop
c:\Users\Paul Scalise\CH592F_SSD1306\obj/../StdPeriphDriver/CH59x_sys.c:61
        R32_CLK_SYS_CFG |= RB_CLK_SYS_MOD;
20000656:	4798                	lw	a4,8(a5)
20000658:	0c076713          	ori	a4,a4,192
2000065c:	c798                	sw	a4,8(a5)
c:\Users\Paul Scalise\CH592F_SSD1306\obj/../StdPeriphDriver/CH59x_sys.c:62
        sys_safe_access_disable();
2000065e:	04078023          	sb	zero,64(a5)
20000662:	47e2                	lw	a5,24(sp)
20000664:	bf19                	j	2000057a <SetSysClock+0xb6>

20000666 <SYS_ResetExecute>:
SYS_ResetExecute():
c:\Users\Paul Scalise\CH592F_SSD1306\obj/../StdPeriphDriver/CH59x_sys.c:130
 *
 * @return  none
 */
__HIGH_CODE
void SYS_ResetExecute(void)
{
20000666:	1101                	addi	sp,sp,-32
c:\Users\Paul Scalise\CH592F_SSD1306\obj/../StdPeriphDriver/CH59x_sys.c:131
    FLASH_ROM_SW_RESET();
20000668:	4681                	li	a3,0
2000066a:	4601                	li	a2,0
2000066c:	4581                	li	a1,0
2000066e:	4511                	li	a0,4
c:\Users\Paul Scalise\CH592F_SSD1306\obj/../StdPeriphDriver/CH59x_sys.c:130
{
20000670:	ce06                	sw	ra,28(sp)
c:\Users\Paul Scalise\CH592F_SSD1306\obj/../StdPeriphDriver/CH59x_sys.c:131
    FLASH_ROM_SW_RESET();
20000672:	2a7d                	jal	20000830 <FLASH_EEPROM_CMD>
__risc_v_disable_irq():
c:/Users/Paul Scalise/CH592F_SSD1306/RVMSIS/core_riscv.h:130
  __asm volatile ("csrrc %0, 0x800, %1" : \
20000674:	08800793          	li	a5,136
20000678:	8007b7f3          	csrrc	a5,0x800,a5
c:/Users/Paul Scalise/CH592F_SSD1306/RVMSIS/core_riscv.h:132
  return result & 0x88;
2000067c:	0887f793          	andi	a5,a5,136
SYS_ResetExecute():
c:\Users\Paul Scalise\CH592F_SSD1306\obj/../StdPeriphDriver/CH59x_sys.c:132
    sys_safe_access_enable();
20000680:	c63e                	sw	a5,12(sp)
20000682:	0001                	nop
20000684:	0001                	nop
20000686:	400017b7          	lui	a5,0x40001
2000068a:	05700713          	li	a4,87
2000068e:	04e78023          	sb	a4,64(a5) # 40001040 <_eusrstack+0x1fffa840>
20000692:	fa800713          	li	a4,-88
20000696:	04e78023          	sb	a4,64(a5)
2000069a:	0001                	nop
2000069c:	0001                	nop
c:\Users\Paul Scalise\CH592F_SSD1306\obj/../StdPeriphDriver/CH59x_sys.c:133
    R8_RST_WDOG_CTRL |= RB_SOFTWARE_RESET;
2000069e:	0467c703          	lbu	a4,70(a5)
200006a2:	00176713          	ori	a4,a4,1
200006a6:	04e78323          	sb	a4,70(a5)
c:\Users\Paul Scalise\CH592F_SSD1306\obj/../StdPeriphDriver/CH59x_sys.c:134
    sys_safe_access_disable();
200006aa:	04078023          	sb	zero,64(a5)
200006ae:	47b2                	lw	a5,12(sp)
__risc_v_enable_irq():
c:/Users/Paul Scalise/CH592F_SSD1306/RVMSIS/core_riscv.h:114
  __asm volatile ("csrrs %0, 0x800, %1" : \
200006b0:	8007a7f3          	csrrs	a5,0x800,a5
SYS_ResetExecute():
c:\Users\Paul Scalise\CH592F_SSD1306\obj/../StdPeriphDriver/CH59x_sys.c:134
200006b4:	0001                	nop
200006b6:	0001                	nop
c:\Users\Paul Scalise\CH592F_SSD1306\obj/../StdPeriphDriver/CH59x_sys.c:135
}
200006b8:	40f2                	lw	ra,28(sp)
200006ba:	6105                	addi	sp,sp,32
200006bc:	8082                	ret

200006be <HardFault_Handler>:
HardFault_Handler():
c:\Users\Paul Scalise\CH592F_SSD1306\obj/../StdPeriphDriver/CH59x_sys.c:268
 */
__INTERRUPT
__HIGH_CODE
__attribute__((weak))
void HardFault_Handler(void)
{
200006be:	1141                	addi	sp,sp,-16
c:\Users\Paul Scalise\CH592F_SSD1306\obj/../StdPeriphDriver/CH59x_sys.c:269
    FLASH_ROM_SW_RESET();
200006c0:	4681                	li	a3,0
200006c2:	4601                	li	a2,0
200006c4:	4581                	li	a1,0
200006c6:	4511                	li	a0,4
200006c8:	22a5                	jal	20000830 <FLASH_EEPROM_CMD>
__risc_v_disable_irq():
c:/Users/Paul Scalise/CH592F_SSD1306/RVMSIS/core_riscv.h:130
  __asm volatile ("csrrc %0, 0x800, %1" : \
200006ca:	08800713          	li	a4,136
200006ce:	800737f3          	csrrc	a5,0x800,a4
c:/Users/Paul Scalise/CH592F_SSD1306/RVMSIS/core_riscv.h:132
  return result & 0x88;
200006d2:	0887f793          	andi	a5,a5,136
HardFault_Handler():
c:\Users\Paul Scalise\CH592F_SSD1306\obj/../StdPeriphDriver/CH59x_sys.c:270
    sys_safe_access_enable();
200006d6:	c43e                	sw	a5,8(sp)
200006d8:	0001                	nop
200006da:	0001                	nop
200006dc:	400017b7          	lui	a5,0x40001
200006e0:	05700613          	li	a2,87
200006e4:	04c78023          	sb	a2,64(a5) # 40001040 <_eusrstack+0x1fffa840>
200006e8:	fa800693          	li	a3,-88
200006ec:	04d78023          	sb	a3,64(a5)
200006f0:	0001                	nop
200006f2:	0001                	nop
c:\Users\Paul Scalise\CH592F_SSD1306\obj/../StdPeriphDriver/CH59x_sys.c:271
    R16_INT32K_TUNE = 0xFFFF;
200006f4:	55fd                	li	a1,-1
200006f6:	02b79623          	sh	a1,44(a5)
c:\Users\Paul Scalise\CH592F_SSD1306\obj/../StdPeriphDriver/CH59x_sys.c:272
    sys_safe_access_disable();
200006fa:	04078023          	sb	zero,64(a5)
200006fe:	45a2                	lw	a1,8(sp)
__risc_v_enable_irq():
c:/Users/Paul Scalise/CH592F_SSD1306/RVMSIS/core_riscv.h:114
  __asm volatile ("csrrs %0, 0x800, %1" : \
20000700:	8005a5f3          	csrrs	a1,0x800,a1
HardFault_Handler():
c:\Users\Paul Scalise\CH592F_SSD1306\obj/../StdPeriphDriver/CH59x_sys.c:272
20000704:	0001                	nop
20000706:	0001                	nop
__risc_v_disable_irq():
c:/Users/Paul Scalise/CH592F_SSD1306/RVMSIS/core_riscv.h:130
  __asm volatile ("csrrc %0, 0x800, %1" : \
20000708:	80073773          	csrrc	a4,0x800,a4
c:/Users/Paul Scalise/CH592F_SSD1306/RVMSIS/core_riscv.h:132
  return result & 0x88;
2000070c:	08877713          	andi	a4,a4,136
HardFault_Handler():
c:\Users\Paul Scalise\CH592F_SSD1306\obj/../StdPeriphDriver/CH59x_sys.c:273
    sys_safe_access_enable();
20000710:	c63a                	sw	a4,12(sp)
20000712:	0001                	nop
20000714:	0001                	nop
20000716:	04c78023          	sb	a2,64(a5)
2000071a:	04d78023          	sb	a3,64(a5)
2000071e:	0001                	nop
20000720:	0001                	nop
c:\Users\Paul Scalise\CH592F_SSD1306\obj/../StdPeriphDriver/CH59x_sys.c:274
    R8_RST_WDOG_CTRL |= RB_SOFTWARE_RESET;
20000722:	0467c703          	lbu	a4,70(a5)
20000726:	00176713          	ori	a4,a4,1
2000072a:	04e78323          	sb	a4,70(a5)
c:\Users\Paul Scalise\CH592F_SSD1306\obj/../StdPeriphDriver/CH59x_sys.c:275
    sys_safe_access_disable();
2000072e:	04078023          	sb	zero,64(a5)
20000732:	47b2                	lw	a5,12(sp)
__risc_v_enable_irq():
c:/Users/Paul Scalise/CH592F_SSD1306/RVMSIS/core_riscv.h:114
  __asm volatile ("csrrs %0, 0x800, %1" : \
20000734:	8007a7f3          	csrrs	a5,0x800,a5
HardFault_Handler():
c:\Users\Paul Scalise\CH592F_SSD1306\obj/../StdPeriphDriver/CH59x_sys.c:275
20000738:	0001                	nop
2000073a:	0001                	nop
c:\Users\Paul Scalise\CH592F_SSD1306\obj/../StdPeriphDriver/CH59x_sys.c:276 (discriminator 1)
    while(1);
2000073c:	a001                	j	2000073c <HardFault_Handler+0x7e>

2000073e <mDelayuS>:
mDelayuS():
c:\Users\Paul Scalise\CH592F_SSD1306\obj/../StdPeriphDriver/CH59x_sys.c:295
{
    uint32_t i;
#if(FREQ_SYS == 80000000)
    i = t * 20;
#elif(FREQ_SYS == 60000000)
    i = t * 15;
2000073e:	47bd                	li	a5,15
20000740:	02f50533          	mul	a0,a0,a5
c:\Users\Paul Scalise\CH592F_SSD1306\obj/../StdPeriphDriver/CH59x_sys.c:319 (discriminator 1)
#else
    i = t << 1;
#endif
    do
    {
        __nop();
20000744:	0001                	nop
c:\Users\Paul Scalise\CH592F_SSD1306\obj/../StdPeriphDriver/CH59x_sys.c:320 (discriminator 1)
    } while(--i);
20000746:	157d                	addi	a0,a0,-1
20000748:	fd75                	bnez	a0,20000744 <mDelayuS+0x6>
c:\Users\Paul Scalise\CH592F_SSD1306\obj/../StdPeriphDriver/CH59x_sys.c:321
}
2000074a:	8082                	ret

2000074c <mDelaymS>:
mDelaymS():
c:\Users\Paul Scalise\CH592F_SSD1306\obj/../StdPeriphDriver/CH59x_sys.c:334
 *
 * @return  none
 */
__HIGH_CODE
void mDelaymS(uint16_t t)
{
2000074c:	1141                	addi	sp,sp,-16
2000074e:	c422                	sw	s0,8(sp)
20000750:	c226                	sw	s1,4(sp)
20000752:	c606                	sw	ra,12(sp)
20000754:	84aa                	mv	s1,a0
c:\Users\Paul Scalise\CH592F_SSD1306\obj/../StdPeriphDriver/CH59x_sys.c:337
    uint16_t i;

    for(i = 0; i < t; i++)
20000756:	4401                	li	s0,0
c:\Users\Paul Scalise\CH592F_SSD1306\obj/../StdPeriphDriver/CH59x_sys.c:337 (discriminator 1)
20000758:	00941763          	bne	s0,s1,20000766 <mDelaymS+0x1a>
c:\Users\Paul Scalise\CH592F_SSD1306\obj/../StdPeriphDriver/CH59x_sys.c:341
    {
        mDelayuS(1000);
    }
}
2000075c:	40b2                	lw	ra,12(sp)
2000075e:	4422                	lw	s0,8(sp)
20000760:	4492                	lw	s1,4(sp)
20000762:	0141                	addi	sp,sp,16
20000764:	8082                	ret
c:\Users\Paul Scalise\CH592F_SSD1306\obj/../StdPeriphDriver/CH59x_sys.c:337 (discriminator 3)
    for(i = 0; i < t; i++)
20000766:	0405                	addi	s0,s0,1
c:\Users\Paul Scalise\CH592F_SSD1306\obj/../StdPeriphDriver/CH59x_sys.c:339 (discriminator 3)
        mDelayuS(1000);
20000768:	3e800513          	li	a0,1000
c:\Users\Paul Scalise\CH592F_SSD1306\obj/../StdPeriphDriver/CH59x_sys.c:337 (discriminator 3)
    for(i = 0; i < t; i++)
2000076c:	0442                	slli	s0,s0,0x10
c:\Users\Paul Scalise\CH592F_SSD1306\obj/../StdPeriphDriver/CH59x_sys.c:339 (discriminator 3)
        mDelayuS(1000);
2000076e:	3fc1                	jal	2000073e <mDelayuS>
c:\Users\Paul Scalise\CH592F_SSD1306\obj/../StdPeriphDriver/CH59x_sys.c:337 (discriminator 3)
    for(i = 0; i < t; i++)
20000770:	8041                	srli	s0,s0,0x10
20000772:	b7dd                	j	20000758 <mDelaymS+0xc>

20000774 <FLASH_ROM_BEG>:
FLASH_ROM_BEG():
20000774:	80040323          	sb	zero,-2042(s0)
20000778:	4715                	li	a4,5
2000077a:	80e40323          	sb	a4,-2042(s0)
2000077e:	0001                	nop
20000780:	80a40223          	sb	a0,-2044(s0)
20000784:	8082                	ret

20000786 <FLASH_ROM_END>:
FLASH_ROM_END():
20000786:	80640783          	lb	a5,-2042(s0)
2000078a:	fe07cee3          	bltz	a5,20000786 <FLASH_ROM_END>
2000078e:	80040323          	sb	zero,-2042(s0)
20000792:	8082                	ret

20000794 <FLASH_ROM_IN>:
FLASH_ROM_IN():
20000794:	80640783          	lb	a5,-2042(s0)
20000798:	fe07cee3          	bltz	a5,20000794 <FLASH_ROM_IN>
2000079c:	80444503          	lbu	a0,-2044(s0)
200007a0:	8082                	ret

200007a2 <FLASH_ROM_OUT>:
FLASH_ROM_OUT():
200007a2:	80640783          	lb	a5,-2042(s0)
200007a6:	fe07cee3          	bltz	a5,200007a2 <FLASH_ROM_OUT>
200007aa:	80a40223          	sb	a0,-2044(s0)
200007ae:	8082                	ret

200007b0 <FLASH_ROM_ADDR>:
FLASH_ROM_ADDR():
200007b0:	1141                	addi	sp,sp,-16
200007b2:	c426                	sw	s1,8(sp)
200007b4:	c24a                	sw	s2,4(sp)
200007b6:	c04e                	sw	s3,0(sp)
200007b8:	c606                	sw	ra,12(sp)
200007ba:	0bf57713          	andi	a4,a0,191
200007be:	47ad                	li	a5,11
200007c0:	89aa                	mv	s3,a0
200007c2:	892e                	mv	s2,a1
200007c4:	4495                	li	s1,5
200007c6:	00f70663          	beq	a4,a5,200007d2 <FLASH_ROM_ADDR+0x22>
200007ca:	4519                	li	a0,6
200007cc:	3765                	jal	20000774 <FLASH_ROM_BEG>
200007ce:	3f65                	jal	20000786 <FLASH_ROM_END>
200007d0:	448d                	li	s1,3
200007d2:	854e                	mv	a0,s3
200007d4:	3745                	jal	20000774 <FLASH_ROM_BEG>
200007d6:	59fd                	li	s3,-1
200007d8:	14fd                	addi	s1,s1,-1
200007da:	01349863          	bne	s1,s3,200007ea <FLASH_ROM_ADDR+0x3a>
200007de:	40b2                	lw	ra,12(sp)
200007e0:	44a2                	lw	s1,8(sp)
200007e2:	4912                	lw	s2,4(sp)
200007e4:	4982                	lw	s3,0(sp)
200007e6:	0141                	addi	sp,sp,16
200007e8:	8082                	ret
200007ea:	01095513          	srli	a0,s2,0x10
200007ee:	0ff57513          	andi	a0,a0,255
200007f2:	3f45                	jal	200007a2 <FLASH_ROM_OUT>
200007f4:	0922                	slli	s2,s2,0x8
200007f6:	b7cd                	j	200007d8 <FLASH_ROM_ADDR+0x28>

200007f8 <FLASH_ROM_WAIT>:
FLASH_ROM_WAIT():
200007f8:	1101                	addi	sp,sp,-32
200007fa:	cc26                	sw	s1,24(sp)
200007fc:	ce06                	sw	ra,28(sp)
200007fe:	000804b7          	lui	s1,0x80
20000802:	3751                	jal	20000786 <FLASH_ROM_END>
20000804:	4515                	li	a0,5
20000806:	37bd                	jal	20000774 <FLASH_ROM_BEG>
20000808:	3771                	jal	20000794 <FLASH_ROM_IN>
2000080a:	3769                	jal	20000794 <FLASH_ROM_IN>
2000080c:	c62a                	sw	a0,12(sp)
2000080e:	3fa5                	jal	20000786 <FLASH_ROM_END>
20000810:	4532                	lw	a0,12(sp)
20000812:	00157793          	andi	a5,a0,1
20000816:	eb89                	bnez	a5,20000828 <FLASH_ROM_WAIT+0x30>
20000818:	00156513          	ori	a0,a0,1
2000081c:	0ff57513          	andi	a0,a0,255
20000820:	40f2                	lw	ra,28(sp)
20000822:	44e2                	lw	s1,24(sp)
20000824:	6105                	addi	sp,sp,32
20000826:	8082                	ret
20000828:	14fd                	addi	s1,s1,-1
2000082a:	fce9                	bnez	s1,20000804 <FLASH_ROM_WAIT+0xc>
2000082c:	4501                	li	a0,0
2000082e:	bfcd                	j	20000820 <FLASH_ROM_WAIT+0x28>

20000830 <FLASH_EEPROM_CMD>:
FLASH_EEPROM_CMD():
20000830:	7139                	addi	sp,sp,-64
20000832:	dc26                	sw	s1,56(sp)
20000834:	da4a                	sw	s2,52(sp)
20000836:	d84e                	sw	s3,48(sp)
20000838:	d652                	sw	s4,44(sp)
2000083a:	d456                	sw	s5,40(sp)
2000083c:	d25a                	sw	s6,36(sp)
2000083e:	d05e                	sw	s7,32(sp)
20000840:	de06                	sw	ra,60(sp)
20000842:	ce62                	sw	s8,28(sp)
20000844:	cc66                	sw	s9,24(sp)
20000846:	e000e7b7          	lui	a5,0xe000e
2000084a:	577d                	li	a4,-1
2000084c:	0007aa83          	lw	s5,0(a5) # e000e000 <_eusrstack+0xc0007800>
20000850:	c622                	sw	s0,12(sp)
20000852:	0047aa03          	lw	s4,4(a5)
20000856:	18e7a023          	sw	a4,384(a5)
2000085a:	18e7a223          	sw	a4,388(a5)
2000085e:	400017b7          	lui	a5,0x40001
20000862:	05700713          	li	a4,87
20000866:	04e78023          	sb	a4,64(a5) # 40001040 <_eusrstack+0x1fffa840>
2000086a:	fa800713          	li	a4,-88
2000086e:	04e78023          	sb	a4,64(a5)
20000872:	0447c783          	lbu	a5,68(a5)
20000876:	ff750b93          	addi	s7,a0,-9
2000087a:	84b6                	mv	s1,a3
2000087c:	07e2                	slli	a5,a5,0x18
2000087e:	0ffbfb93          	andi	s7,s7,255
20000882:	4685                	li	a3,1
20000884:	89aa                	mv	s3,a0
20000886:	8b2e                	mv	s6,a1
20000888:	8932                	mv	s2,a2
2000088a:	40002437          	lui	s0,0x40002
2000088e:	87e1                	srai	a5,a5,0x18
20000890:	5701                	li	a4,-32
20000892:	0176fa63          	bgeu	a3,s7,200008a6 <FLASH_EEPROM_CMD+0x76>
20000896:	00d50863          	beq	a0,a3,200008a6 <FLASH_EEPROM_CMD+0x76>
2000089a:	4689                	li	a3,2
2000089c:	02000713          	li	a4,32
200008a0:	00d51363          	bne	a0,a3,200008a6 <FLASH_EEPROM_CMD+0x76>
200008a4:	5701                	li	a4,-32
200008a6:	8fd9                	or	a5,a5,a4
200008a8:	0ff7f793          	andi	a5,a5,255
200008ac:	40001cb7          	lui	s9,0x40001
200008b0:	04fc8223          	sb	a5,68(s9) # 40001044 <_eusrstack+0x1fffa844>
200008b4:	4711                	li	a4,4
200008b6:	80e40323          	sb	a4,-2042(s0) # 40001806 <_eusrstack+0x1fffb006>
200008ba:	0ff00513          	li	a0,255
200008be:	3d5d                	jal	20000774 <FLASH_ROM_BEG>
200008c0:	4c09                	li	s8,2
200008c2:	35d1                	jal	20000786 <FLASH_ROM_END>
200008c4:	117c6d63          	bltu	s8,s7,200009de <FLASH_EEPROM_CMD+0x1ae>
200008c8:	000705b7          	lui	a1,0x70
200008cc:	95da                	add	a1,a1,s6
200008ce:	00078737          	lui	a4,0x78
200008d2:	5579                	li	a0,-2
200008d4:	04e5f263          	bgeu	a1,a4,20000918 <FLASH_EEPROM_CMD+0xe8>
200008d8:	009587b3          	add	a5,a1,s1
200008dc:	02f76e63          	bltu	a4,a5,20000918 <FLASH_EEPROM_CMD+0xe8>
200008e0:	00080b37          	lui	s6,0x80
200008e4:	47a9                	li	a5,10
200008e6:	0165eb33          	or	s6,a1,s6
200008ea:	06f99963          	bne	s3,a5,2000095c <FLASH_EEPROM_CMD+0x12c>
200008ee:	e489                	bnez	s1,200008f8 <FLASH_EEPROM_CMD+0xc8>
200008f0:	4481                	li	s1,0
200008f2:	3d51                	jal	20000786 <FLASH_ROM_END>
200008f4:	8526                	mv	a0,s1
200008f6:	a00d                	j	20000918 <FLASH_EEPROM_CMD+0xe8>
200008f8:	85da                	mv	a1,s6
200008fa:	4509                	li	a0,2
200008fc:	3d55                	jal	200007b0 <FLASH_ROM_ADDR>
200008fe:	0905                	addi	s2,s2,1
20000900:	fff94503          	lbu	a0,-1(s2)
20000904:	14fd                	addi	s1,s1,-1
20000906:	0b05                	addi	s6,s6,1
20000908:	3d69                	jal	200007a2 <FLASH_ROM_OUT>
2000090a:	c481                	beqz	s1,20000912 <FLASH_EEPROM_CMD+0xe2>
2000090c:	0ffb7793          	andi	a5,s6,255
20000910:	f7fd                	bnez	a5,200008fe <FLASH_EEPROM_CMD+0xce>
20000912:	35dd                	jal	200007f8 <FLASH_ROM_WAIT>
20000914:	fd69                	bnez	a0,200008ee <FLASH_EEPROM_CMD+0xbe>
20000916:	557d                	li	a0,-1
20000918:	400017b7          	lui	a5,0x40001
2000091c:	05700713          	li	a4,87
20000920:	04e78023          	sb	a4,64(a5) # 40001040 <_eusrstack+0x1fffa840>
20000924:	fa800713          	li	a4,-88
20000928:	04e78023          	sb	a4,64(a5)
2000092c:	0447c703          	lbu	a4,68(a5)
20000930:	8b41                	andi	a4,a4,16
20000932:	04e78223          	sb	a4,68(a5)
20000936:	50f2                	lw	ra,60(sp)
20000938:	e000e7b7          	lui	a5,0xe000e
2000093c:	1157a023          	sw	s5,256(a5) # e000e100 <_eusrstack+0xc0007900>
20000940:	1147a223          	sw	s4,260(a5)
20000944:	54e2                	lw	s1,56(sp)
20000946:	4432                	lw	s0,12(sp)
20000948:	5952                	lw	s2,52(sp)
2000094a:	59c2                	lw	s3,48(sp)
2000094c:	5a32                	lw	s4,44(sp)
2000094e:	5aa2                	lw	s5,40(sp)
20000950:	5b12                	lw	s6,36(sp)
20000952:	5b82                	lw	s7,32(sp)
20000954:	4c72                	lw	s8,28(sp)
20000956:	4ce2                	lw	s9,24(sp)
20000958:	6121                	addi	sp,sp,64
2000095a:	8082                	ret
2000095c:	47a5                	li	a5,9
2000095e:	06f99563          	bne	s3,a5,200009c8 <FLASH_EEPROM_CMD+0x198>
20000962:	6985                	lui	s3,0x1
20000964:	0ff00913          	li	s2,255
20000968:	009906b3          	add	a3,s2,s1
2000096c:	012b74b3          	and	s1,s6,s2
20000970:	94b6                	add	s1,s1,a3
20000972:	fff94913          	not	s2,s2
20000976:	009974b3          	and	s1,s2,s1
2000097a:	6b85                	lui	s7,0x1
2000097c:	01697933          	and	s2,s2,s6
20000980:	6b41                	lui	s6,0x10
20000982:	fff98793          	addi	a5,s3,-1 # fff <ssd1306_gram_update+0x7>
20000986:	0127f7b3          	and	a5,a5,s2
2000098a:	e399                	bnez	a5,20000990 <FLASH_EEPROM_CMD+0x160>
2000098c:	0134fc63          	bgeu	s1,s3,200009a4 <FLASH_EEPROM_CMD+0x174>
20000990:	0049d993          	srli	s3,s3,0x4
20000994:	47c1                	li	a5,16
20000996:	ff37e6e3          	bltu	a5,s3,20000982 <FLASH_EEPROM_CMD+0x152>
2000099a:	bf99                	j	200008f0 <FLASH_EEPROM_CMD+0xc0>
2000099c:	6905                	lui	s2,0x1
2000099e:	69c1                	lui	s3,0x10
200009a0:	197d                	addi	s2,s2,-1
200009a2:	b7d9                	j	20000968 <FLASH_EEPROM_CMD+0x138>
200009a4:	0d800513          	li	a0,216
200009a8:	01698863          	beq	s3,s6,200009b8 <FLASH_EEPROM_CMD+0x188>
200009ac:	02000513          	li	a0,32
200009b0:	01798463          	beq	s3,s7,200009b8 <FLASH_EEPROM_CMD+0x188>
200009b4:	08100513          	li	a0,129
200009b8:	85ca                	mv	a1,s2
200009ba:	3bdd                	jal	200007b0 <FLASH_ROM_ADDR>
200009bc:	3d35                	jal	200007f8 <FLASH_ROM_WAIT>
200009be:	dd21                	beqz	a0,20000916 <FLASH_EEPROM_CMD+0xe6>
200009c0:	994e                	add	s2,s2,s3
200009c2:	413484b3          	sub	s1,s1,s3
200009c6:	b7d9                	j	2000098c <FLASH_EEPROM_CMD+0x15c>
200009c8:	85da                	mv	a1,s6
200009ca:	452d                	li	a0,11
200009cc:	33d5                	jal	200007b0 <FLASH_ROM_ADDR>
200009ce:	94ca                	add	s1,s1,s2
200009d0:	f29900e3          	beq	s2,s1,200008f0 <FLASH_EEPROM_CMD+0xc0>
200009d4:	0905                	addi	s2,s2,1
200009d6:	3b7d                	jal	20000794 <FLASH_ROM_IN>
200009d8:	fea90fa3          	sb	a0,-1(s2) # fff <ssd1306_gram_update+0x7>
200009dc:	bfd5                	j	200009d0 <FLASH_EEPROM_CMD+0x1a0>
200009de:	fff98793          	addi	a5,s3,-1 # ffff <_data_lma+0x93af>
200009e2:	0ff7f793          	andi	a5,a5,255
200009e6:	0cfc6163          	bltu	s8,a5,20000aa8 <.loop402+0x7a>
200009ea:	041cc783          	lbu	a5,65(s9)
200009ee:	08300713          	li	a4,131
200009f2:	04f71f63          	bne	a4,a5,20000a50 <.loop402+0x22>
200009f6:	00080737          	lui	a4,0x80
200009fa:	04eb6b63          	bltu	s6,a4,20000a50 <.loop402+0x22>
200009fe:	009b07b3          	add	a5,s6,s1
20000a02:	001006b7          	lui	a3,0x100
20000a06:	04d7f563          	bgeu	a5,a3,20000a50 <.loop402+0x22>
20000a0a:	00eb4b33          	xor	s6,s6,a4
20000a0e:	4789                	li	a5,2
20000a10:	06f99363          	bne	s3,a5,20000a76 <.loop402+0x48>
20000a14:	8089                	srli	s1,s1,0x2
20000a16:	49d5                	li	s3,21
20000a18:	ec048ce3          	beqz	s1,200008f0 <FLASH_EEPROM_CMD+0xc0>
20000a1c:	85da                	mv	a1,s6
20000a1e:	4509                	li	a0,2
20000a20:	3b41                	jal	200007b0 <FLASH_ROM_ADDR>
20000a22:	0911                	addi	s2,s2,4
20000a24:	ffc92703          	lw	a4,-4(s2)
20000a28:	4791                	li	a5,4
20000a2a:	80e42023          	sw	a4,-2048(s0)

20000a2e <.loop402>:
20000a2e:	80640703          	lb	a4,-2042(s0)
20000a32:	fe074ee3          	bltz	a4,20000a2e <.loop402>
20000a36:	81340323          	sb	s3,-2042(s0)
20000a3a:	17fd                	addi	a5,a5,-1
20000a3c:	fbed                	bnez	a5,20000a2e <.loop402>
20000a3e:	14fd                	addi	s1,s1,-1
20000a40:	0b11                	addi	s6,s6,4
20000a42:	c481                	beqz	s1,20000a4a <.loop402+0x1c>
20000a44:	0ffb7793          	andi	a5,s6,255
20000a48:	ffe9                	bnez	a5,20000a22 <FLASH_EEPROM_CMD+0x1f2>
20000a4a:	337d                	jal	200007f8 <FLASH_ROM_WAIT>
20000a4c:	f571                	bnez	a0,20000a18 <FLASH_EEPROM_CMD+0x1e8>
20000a4e:	b5e1                	j	20000916 <FLASH_EEPROM_CMD+0xe6>
20000a50:	400017b7          	lui	a5,0x40001
20000a54:	0457c703          	lbu	a4,69(a5) # 40001045 <_eusrstack+0x1fffa845>
20000a58:	000807b7          	lui	a5,0x80
20000a5c:	02077713          	andi	a4,a4,32
20000a60:	e319                	bnez	a4,20000a66 <.loop402+0x38>
20000a62:	000787b7          	lui	a5,0x78
20000a66:	5579                	li	a0,-2
20000a68:	eafb78e3          	bgeu	s6,a5,20000918 <FLASH_EEPROM_CMD+0xe8>
20000a6c:	009b0733          	add	a4,s6,s1
20000a70:	f8e7ffe3          	bgeu	a5,a4,20000a0e <FLASH_EEPROM_CMD+0x1de>
20000a74:	b555                	j	20000918 <FLASH_EEPROM_CMD+0xe8>
20000a76:	4785                	li	a5,1
20000a78:	f2f982e3          	beq	s3,a5,2000099c <FLASH_EEPROM_CMD+0x16c>
20000a7c:	85da                	mv	a1,s6
20000a7e:	452d                	li	a0,11
20000a80:	3b05                	jal	200007b0 <FLASH_ROM_ADDR>
20000a82:	fff48993          	addi	s3,s1,-1 # 7ffff <_data_lma+0x793af>
20000a86:	e60485e3          	beqz	s1,200008f0 <FLASH_EEPROM_CMD+0xc0>
20000a8a:	3329                	jal	20000794 <FLASH_ROM_IN>
20000a8c:	0039f793          	andi	a5,s3,3
20000a90:	eb91                	bnez	a5,20000aa4 <.loop402+0x76>
20000a92:	80042683          	lw	a3,-2048(s0)
20000a96:	00092703          	lw	a4,0(s2)
20000a9a:	00490793          	addi	a5,s2,4
20000a9e:	e4e69ae3          	bne	a3,a4,200008f2 <FLASH_EEPROM_CMD+0xc2>
20000aa2:	893e                	mv	s2,a5
20000aa4:	84ce                	mv	s1,s3
20000aa6:	bff1                	j	20000a82 <.loop402+0x54>
20000aa8:	47b5                	li	a5,13
20000aaa:	00f99663          	bne	s3,a5,20000ab6 <.loop402+0x88>
20000aae:	0b900513          	li	a0,185
20000ab2:	31c9                	jal	20000774 <FLASH_ROM_BEG>
20000ab4:	bd35                	j	200008f0 <FLASH_EEPROM_CMD+0xc0>
20000ab6:	47b1                	li	a5,12
20000ab8:	0ab00513          	li	a0,171
20000abc:	fef98be3          	beq	s3,a5,20000ab2 <.loop402+0x84>
20000ac0:	4799                	li	a5,6
20000ac2:	04f99163          	bne	s3,a5,20000b04 <.loop402+0xd6>
20000ac6:	000805b7          	lui	a1,0x80
20000aca:	00bb65b3          	or	a1,s6,a1
20000ace:	452d                	li	a0,11
20000ad0:	31c5                	jal	200007b0 <FLASH_ROM_ADDR>
20000ad2:	4481                	li	s1,0
20000ad4:	4b8d                	li	s7,3
20000ad6:	49a1                	li	s3,8
20000ad8:	3975                	jal	20000794 <FLASH_ROM_IN>
20000ada:	01749663          	bne	s1,s7,20000ae6 <.loop402+0xb8>
20000ade:	80042783          	lw	a5,-2048(s0)
20000ae2:	00f92023          	sw	a5,0(s2)
20000ae6:	0485                	addi	s1,s1,1
20000ae8:	ff3498e3          	bne	s1,s3,20000ad8 <.loop402+0xaa>
20000aec:	80042783          	lw	a5,-2048(s0)
20000af0:	012b1713          	slli	a4,s6,0x12
20000af4:	00075563          	bgez	a4,20000afe <.loop402+0xd0>
20000af8:	00f91223          	sh	a5,4(s2)
20000afc:	bbd5                	j	200008f0 <FLASH_EEPROM_CMD+0xc0>
20000afe:	00f92223          	sw	a5,4(s2)
20000b02:	b3fd                	j	200008f0 <FLASH_EEPROM_CMD+0xc0>
20000b04:	479d                	li	a5,7
20000b06:	02f99963          	bne	s3,a5,20000b38 <.loop402+0x10a>
20000b0a:	4581                	li	a1,0
20000b0c:	04b00513          	li	a0,75
20000b10:	3145                	jal	200007b0 <FLASH_ROM_ADDR>
20000b12:	44bd                	li	s1,15
20000b14:	00092023          	sw	zero,0(s2)
20000b18:	00092223          	sw	zero,4(s2)
20000b1c:	59fd                	li	s3,-1
20000b1e:	399d                	jal	20000794 <FLASH_ROM_IN>
20000b20:	0074f793          	andi	a5,s1,7
20000b24:	97ca                	add	a5,a5,s2
20000b26:	0007c703          	lbu	a4,0(a5) # 78000 <_data_lma+0x713b0>
20000b2a:	14fd                	addi	s1,s1,-1
20000b2c:	8d39                	xor	a0,a0,a4
20000b2e:	00a78023          	sb	a0,0(a5)
20000b32:	ff3496e3          	bne	s1,s3,20000b1e <.loop402+0xf0>
20000b36:	bb6d                	j	200008f0 <FLASH_EEPROM_CMD+0xc0>
20000b38:	47a1                	li	a5,8
20000b3a:	04f99263          	bne	s3,a5,20000b7e <.loop402+0x150>
20000b3e:	396d                	jal	200007f8 <FLASH_ROM_WAIT>
20000b40:	4481                	li	s1,0
20000b42:	000b0d63          	beqz	s6,20000b5c <.loop402+0x12e>
20000b46:	478d                	li	a5,3
20000b48:	03c00493          	li	s1,60
20000b4c:	00fb0863          	beq	s6,a5,20000b5c <.loop402+0x12e>
20000b50:	05000493          	li	s1,80
20000b54:	018b0463          	beq	s6,s8,20000b5c <.loop402+0x12e>
20000b58:	04400493          	li	s1,68
20000b5c:	07c57513          	andi	a0,a0,124
20000b60:	d89508e3          	beq	a0,s1,200008f0 <FLASH_EEPROM_CMD+0xc0>
20000b64:	4519                	li	a0,6
20000b66:	3139                	jal	20000774 <FLASH_ROM_BEG>
20000b68:	3939                	jal	20000786 <FLASH_ROM_END>
20000b6a:	4505                	li	a0,1
20000b6c:	3121                	jal	20000774 <FLASH_ROM_BEG>
20000b6e:	8526                	mv	a0,s1
20000b70:	390d                	jal	200007a2 <FLASH_ROM_OUT>
20000b72:	4509                	li	a0,2
20000b74:	313d                	jal	200007a2 <FLASH_ROM_OUT>
20000b76:	3149                	jal	200007f8 <FLASH_ROM_WAIT>
20000b78:	d6051ce3          	bnez	a0,200008f0 <FLASH_EEPROM_CMD+0xc0>
20000b7c:	bb69                	j	20000916 <FLASH_EEPROM_CMD+0xe6>
20000b7e:	4791                	li	a5,4
20000b80:	00f99963          	bne	s3,a5,20000b92 <.loop402+0x164>
20000b84:	06600513          	li	a0,102
20000b88:	36f5                	jal	20000774 <FLASH_ROM_BEG>
20000b8a:	3ef5                	jal	20000786 <FLASH_ROM_END>
20000b8c:	09900513          	li	a0,153
20000b90:	b70d                	j	20000ab2 <.loop402+0x84>
20000b92:	d4098fe3          	beqz	s3,200008f0 <FLASH_EEPROM_CMD+0xc0>
20000b96:	54f1                	li	s1,-4
20000b98:	bba9                	j	200008f2 <FLASH_EEPROM_CMD+0xc2>
	...

Disassembly of section .text:

00000ba0 <handle_reset>:
handle_reset():
c:\Users\Paul Scalise\CH592F_SSD1306\obj/../Startup/startup_CH592.S:127
	.weak	handle_reset
	.align	1
handle_reset:
.option push 
.option	norelax 
	la gp, __global_pointer$
     ba0:	20003197          	auipc	gp,0x20003
     ba4:	86018193          	addi	gp,gp,-1952 # 20003400 <__global_pointer$>
c:\Users\Paul Scalise\CH592F_SSD1306\obj/../Startup/startup_CH592.S:130
.option	pop 
1:
	la sp, _eusrstack 
     ba8:	20006117          	auipc	sp,0x20006
     bac:	c5810113          	addi	sp,sp,-936 # 20006800 <_eusrstack>
c:\Users\Paul Scalise\CH592F_SSD1306\obj/../Startup/startup_CH592.S:134

/* Load highcode code  section from flash to RAM */
2:
    la a0, _highcode_lma
     bb0:	00400513          	li	a0,4
c:\Users\Paul Scalise\CH592F_SSD1306\obj/../Startup/startup_CH592.S:135
    la a1, _highcode_vma_start
     bb4:	1ffff597          	auipc	a1,0x1ffff
     bb8:	44c58593          	addi	a1,a1,1100 # 20000000 <_highcode_vma_start>
c:\Users\Paul Scalise\CH592F_SSD1306\obj/../Startup/startup_CH592.S:136
    la a2, _highcode_vma_end
     bbc:	20000617          	auipc	a2,0x20000
     bc0:	fe060613          	addi	a2,a2,-32 # 20000b9c <_highcode_vma_end>
c:\Users\Paul Scalise\CH592F_SSD1306\obj/../Startup/startup_CH592.S:137
    bgeu a1, a2, 2f
     bc4:	00c5fa63          	bgeu	a1,a2,bd8 <handle_reset+0x38>
c:\Users\Paul Scalise\CH592F_SSD1306\obj/../Startup/startup_CH592.S:139
1:
    lw t0, (a0)
     bc8:	00052283          	lw	t0,0(a0)
c:\Users\Paul Scalise\CH592F_SSD1306\obj/../Startup/startup_CH592.S:140
    sw t0, (a1)
     bcc:	0055a023          	sw	t0,0(a1)
c:\Users\Paul Scalise\CH592F_SSD1306\obj/../Startup/startup_CH592.S:141
    addi a0, a0, 4
     bd0:	0511                	addi	a0,a0,4
c:\Users\Paul Scalise\CH592F_SSD1306\obj/../Startup/startup_CH592.S:142
    addi a1, a1, 4
     bd2:	0591                	addi	a1,a1,4
c:\Users\Paul Scalise\CH592F_SSD1306\obj/../Startup/startup_CH592.S:143
    bltu a1, a2, 1b
     bd4:	fec5eae3          	bltu	a1,a2,bc8 <handle_reset+0x28>
c:\Users\Paul Scalise\CH592F_SSD1306\obj/../Startup/startup_CH592.S:147

/* Load data section from flash to RAM */
2:
	la a0, _data_lma
     bd8:	00006517          	auipc	a0,0x6
     bdc:	07850513          	addi	a0,a0,120 # 6c50 <_data_lma>
c:\Users\Paul Scalise\CH592F_SSD1306\obj/../Startup/startup_CH592.S:148
	la a1, _data_vma
     be0:	20000597          	auipc	a1,0x20000
     be4:	fbc58593          	addi	a1,a1,-68 # 20000b9c <_highcode_vma_end>
c:\Users\Paul Scalise\CH592F_SSD1306\obj/../Startup/startup_CH592.S:149
	la a2, _edata
     be8:	80818613          	addi	a2,gp,-2040 # 20002c08 <_edata>
c:\Users\Paul Scalise\CH592F_SSD1306\obj/../Startup/startup_CH592.S:150
	bgeu a1, a2, 2f
     bec:	00c5fa63          	bgeu	a1,a2,c00 <handle_reset+0x60>
c:\Users\Paul Scalise\CH592F_SSD1306\obj/../Startup/startup_CH592.S:152
1:
	lw t0, (a0)
     bf0:	00052283          	lw	t0,0(a0)
c:\Users\Paul Scalise\CH592F_SSD1306\obj/../Startup/startup_CH592.S:153
	sw t0, (a1)
     bf4:	0055a023          	sw	t0,0(a1)
c:\Users\Paul Scalise\CH592F_SSD1306\obj/../Startup/startup_CH592.S:154
	addi a0, a0, 4
     bf8:	0511                	addi	a0,a0,4
c:\Users\Paul Scalise\CH592F_SSD1306\obj/../Startup/startup_CH592.S:155
	addi a1, a1, 4
     bfa:	0591                	addi	a1,a1,4
c:\Users\Paul Scalise\CH592F_SSD1306\obj/../Startup/startup_CH592.S:156
	bltu a1, a2, 1b
     bfc:	fec5eae3          	bltu	a1,a2,bf0 <handle_reset+0x50>
c:\Users\Paul Scalise\CH592F_SSD1306\obj/../Startup/startup_CH592.S:159
2:
	/* clear bss section */
	la a0, _sbss
     c00:	80818513          	addi	a0,gp,-2040 # 20002c08 <_edata>
c:\Users\Paul Scalise\CH592F_SSD1306\obj/../Startup/startup_CH592.S:160
	la a1, _ebss
     c04:	21c18593          	addi	a1,gp,540 # 2000361c <_ebss>
c:\Users\Paul Scalise\CH592F_SSD1306\obj/../Startup/startup_CH592.S:161
	bgeu a0, a1, 2f
     c08:	00b57763          	bgeu	a0,a1,c16 <handle_reset+0x76>
c:\Users\Paul Scalise\CH592F_SSD1306\obj/../Startup/startup_CH592.S:163
1:
	sw zero, (a0)
     c0c:	00052023          	sw	zero,0(a0)
c:\Users\Paul Scalise\CH592F_SSD1306\obj/../Startup/startup_CH592.S:164
	addi a0, a0, 4
     c10:	0511                	addi	a0,a0,4
c:\Users\Paul Scalise\CH592F_SSD1306\obj/../Startup/startup_CH592.S:165
	bltu a0, a1, 1b
     c12:	feb56de3          	bltu	a0,a1,c0c <handle_reset+0x6c>
c:\Users\Paul Scalise\CH592F_SSD1306\obj/../Startup/startup_CH592.S:168
2:
	/*  &  */
	li t0, 0x1f
     c16:	42fd                	li	t0,31
c:\Users\Paul Scalise\CH592F_SSD1306\obj/../Startup/startup_CH592.S:169
	csrw 0xbc0, t0
     c18:	bc029073          	csrw	0xbc0,t0
c:\Users\Paul Scalise\CH592F_SSD1306\obj/../Startup/startup_CH592.S:171
	/*  */
	li t0, 0x3
     c1c:	428d                	li	t0,3
c:\Users\Paul Scalise\CH592F_SSD1306\obj/../Startup/startup_CH592.S:172
	csrw 0x804, t0
     c1e:	80429073          	csrw	0x804,t0
c:\Users\Paul Scalise\CH592F_SSD1306\obj/../Startup/startup_CH592.S:174
	
    li t0, 0x88
     c22:	08800293          	li	t0,136
c:\Users\Paul Scalise\CH592F_SSD1306\obj/../Startup/startup_CH592.S:175
    csrw mstatus, t0
     c26:	30029073          	csrw	mstatus,t0
c:\Users\Paul Scalise\CH592F_SSD1306\obj/../Startup/startup_CH592.S:176
	la t0, _vector_base
     c2a:	1ffff297          	auipc	t0,0x1ffff
     c2e:	3d628293          	addi	t0,t0,982 # 20000000 <_highcode_vma_start>
c:\Users\Paul Scalise\CH592F_SSD1306\obj/../Startup/startup_CH592.S:179

	/*  */
    ori t0, t0, 3
     c32:	0032e293          	ori	t0,t0,3
c:\Users\Paul Scalise\CH592F_SSD1306\obj/../Startup/startup_CH592.S:180
	csrw mtvec, t0
     c36:	30529073          	csrw	mtvec,t0
c:\Users\Paul Scalise\CH592F_SSD1306\obj/../Startup/startup_CH592.S:182

	la t0, main
     c3a:	00000297          	auipc	t0,0x0
     c3e:	0b828293          	addi	t0,t0,184 # cf2 <main>
c:\Users\Paul Scalise\CH592F_SSD1306\obj/../Startup/startup_CH592.S:183
	csrw mepc, t0
     c42:	34129073          	csrw	mepc,t0
c:\Users\Paul Scalise\CH592F_SSD1306\obj/../Startup/startup_CH592.S:185
	
	mret
     c46:	30200073          	mret

00000c4a <memset>:
memset():
     c4a:	433d                	li	t1,15
     c4c:	872a                	mv	a4,a0
     c4e:	02c37363          	bgeu	t1,a2,c74 <memset+0x2a>
     c52:	00f77793          	andi	a5,a4,15
     c56:	efbd                	bnez	a5,cd4 <memset+0x8a>
     c58:	e5ad                	bnez	a1,cc2 <memset+0x78>
     c5a:	ff067693          	andi	a3,a2,-16
     c5e:	8a3d                	andi	a2,a2,15
     c60:	96ba                	add	a3,a3,a4
     c62:	c30c                	sw	a1,0(a4)
     c64:	c34c                	sw	a1,4(a4)
     c66:	c70c                	sw	a1,8(a4)
     c68:	c74c                	sw	a1,12(a4)
     c6a:	0741                	addi	a4,a4,16
     c6c:	fed76be3          	bltu	a4,a3,c62 <memset+0x18>
     c70:	e211                	bnez	a2,c74 <memset+0x2a>
     c72:	8082                	ret
     c74:	40c306b3          	sub	a3,t1,a2
     c78:	068a                	slli	a3,a3,0x2
     c7a:	00000297          	auipc	t0,0x0
     c7e:	9696                	add	a3,a3,t0
     c80:	00a68067          	jr	10(a3) # 10000a <_data_lma+0xf93ba>
     c84:	00b70723          	sb	a1,14(a4) # 8000e <_data_lma+0x793be>
     c88:	00b706a3          	sb	a1,13(a4)
     c8c:	00b70623          	sb	a1,12(a4)
     c90:	00b705a3          	sb	a1,11(a4)
     c94:	00b70523          	sb	a1,10(a4)
     c98:	00b704a3          	sb	a1,9(a4)
     c9c:	00b70423          	sb	a1,8(a4)
     ca0:	00b703a3          	sb	a1,7(a4)
     ca4:	00b70323          	sb	a1,6(a4)
     ca8:	00b702a3          	sb	a1,5(a4)
     cac:	00b70223          	sb	a1,4(a4)
     cb0:	00b701a3          	sb	a1,3(a4)
     cb4:	00b70123          	sb	a1,2(a4)
     cb8:	00b700a3          	sb	a1,1(a4)
     cbc:	00b70023          	sb	a1,0(a4)
     cc0:	8082                	ret
     cc2:	0ff5f593          	andi	a1,a1,255
     cc6:	00859693          	slli	a3,a1,0x8
     cca:	8dd5                	or	a1,a1,a3
     ccc:	01059693          	slli	a3,a1,0x10
     cd0:	8dd5                	or	a1,a1,a3
     cd2:	b761                	j	c5a <memset+0x10>
     cd4:	00279693          	slli	a3,a5,0x2
     cd8:	00000297          	auipc	t0,0x0
     cdc:	9696                	add	a3,a3,t0
     cde:	8286                	mv	t0,ra
     ce0:	fa8680e7          	jalr	-88(a3)
     ce4:	8096                	mv	ra,t0
     ce6:	17c1                	addi	a5,a5,-16
     ce8:	8f1d                	sub	a4,a4,a5
     cea:	963e                	add	a2,a2,a5
     cec:	f8c374e3          	bgeu	t1,a2,c74 <memset+0x2a>
     cf0:	b7a5                	j	c58 <memset+0xe>

00000cf2 <main>:
main():
c:\Users\Paul Scalise\CH592F_SSD1306\obj/../User/Main.c:18

#define ADVANCED
//#define BASIC


int main() {
     cf2:	1141                	addi	sp,sp,-16
c:\Users\Paul Scalise\CH592F_SSD1306\obj/../User/Main.c:19
    SetSysClock(CLK_SOURCE_PLL_60MHz);
     cf4:	04800513          	li	a0,72
c:\Users\Paul Scalise\CH592F_SSD1306\obj/../User/Main.c:18
int main() {
     cf8:	c606                	sw	ra,12(sp)
c:\Users\Paul Scalise\CH592F_SSD1306\obj/../User/Main.c:19
    SetSysClock(CLK_SOURCE_PLL_60MHz);
     cfa:	1ffff097          	auipc	ra,0x1ffff
     cfe:	7ca080e7          	jalr	1994(ra) # 200004c4 <SetSysClock>
c:\Users\Paul Scalise\CH592F_SSD1306\obj/../User/Main.c:20
    GPIOA_SetBits(GPIO_Pin_9);
     d02:	40001737          	lui	a4,0x40001
     d06:	0a872783          	lw	a5,168(a4) # 400010a8 <_eusrstack+0x1fffa8a8>
c:\Users\Paul Scalise\CH592F_SSD1306\obj/../User/Main.c:21
    GPIOA_ModeCfg(GPIO_Pin_8, GPIO_ModeIN_PU);
     d0a:	4585                	li	a1,1
     d0c:	10000513          	li	a0,256
c:\Users\Paul Scalise\CH592F_SSD1306\obj/../User/Main.c:20
    GPIOA_SetBits(GPIO_Pin_9);
     d10:	2007e793          	ori	a5,a5,512
     d14:	0af72423          	sw	a5,168(a4)
c:\Users\Paul Scalise\CH592F_SSD1306\obj/../User/Main.c:21
    GPIOA_ModeCfg(GPIO_Pin_8, GPIO_ModeIN_PU);
     d18:	5db010ef          	jal	ra,2af2 <GPIOA_ModeCfg>
c:\Users\Paul Scalise\CH592F_SSD1306\obj/../User/Main.c:22
    GPIOA_ModeCfg(GPIO_Pin_9, GPIO_ModeOut_PP_5mA);
     d1c:	458d                	li	a1,3
     d1e:	20000513          	li	a0,512
     d22:	5d1010ef          	jal	ra,2af2 <GPIOA_ModeCfg>
c:\Users\Paul Scalise\CH592F_SSD1306\obj/../User/Main.c:23
    UART1_DefInit();
     d26:	214020ef          	jal	ra,2f3a <UART1_DefInit>
c:\Users\Paul Scalise\CH592F_SSD1306\obj/../User/Main.c:29
    uint8_t res;

    while(1) {

        #ifdef ADVANCED
        res = ssd1306_display_test(SSD1306_INTERFACE_IIC, SSD1306_I2C_7_ADDR);
     d2a:	03c00593          	li	a1,60
     d2e:	4501                	li	a0,0
     d30:	202010ef          	jal	ra,1f32 <ssd1306_display_test>
c:\Users\Paul Scalise\CH592F_SSD1306\obj/../User/Main.c:30
        if (res != 0) {
     d34:	d97d                	beqz	a0,d2a <main+0x38>
c:\Users\Paul Scalise\CH592F_SSD1306\obj/../User/Main.c:31
            (void)ssd1306_basic_deinit();
     d36:	1e6010ef          	jal	ra,1f1c <ssd1306_basic_deinit>
c:\Users\Paul Scalise\CH592F_SSD1306\obj/../User/Main.c:67
        DelayMs(5000);

        (void)ssd1306_basic_deinit();
        #endif
    }
}
     d3a:	40b2                	lw	ra,12(sp)
     d3c:	4505                	li	a0,1
     d3e:	0141                	addi	sp,sp,16
     d40:	8082                	ret

00000d42 <i2c_app_init>:
i2c_app_init():
c:\Users\Paul Scalise\CH592F_SSD1306\obj/../User/app_i2c.c:50
{
     d42:	1101                	addi	sp,sp,-32
c:\Users\Paul Scalise\CH592F_SSD1306\obj/../User/app_i2c.c:51
    i2c_state = I2C_READY;
     d44:	800188a3          	sb	zero,-2031(gp) # 20002c11 <i2c_state>
c:\Users\Paul Scalise\CH592F_SSD1306\obj/../User/app_i2c.c:52
    i2c_send_stop = true;
     d48:	4705                	li	a4,1
     d4a:	80e18623          	sb	a4,-2036(gp) # 20002c0c <i2c_send_stop>
c:\Users\Paul Scalise\CH592F_SSD1306\obj/../User/app_i2c.c:50
{
     d4e:	c62a                	sw	a0,12(sp)
c:\Users\Paul Scalise\CH592F_SSD1306\obj/../User/app_i2c.c:55
    GPIOB_ModeCfg(GPIO_Pin_14 | GPIO_Pin_15, GPIO_ModeIN_PU);
     d50:	4585                	li	a1,1
     d52:	6531                	lui	a0,0xc
c:\Users\Paul Scalise\CH592F_SSD1306\obj/../User/app_i2c.c:50
{
     d54:	ce06                	sw	ra,28(sp)
c:\Users\Paul Scalise\CH592F_SSD1306\obj/../User/app_i2c.c:53
    i2c_in_repstart = false;
     d56:	800184a3          	sb	zero,-2039(gp) # 20002c09 <i2c_in_repstart>
c:\Users\Paul Scalise\CH592F_SSD1306\obj/../User/app_i2c.c:55
    GPIOB_ModeCfg(GPIO_Pin_14 | GPIO_Pin_15, GPIO_ModeIN_PU);
     d5a:	63f010ef          	jal	ra,2b98 <GPIOB_ModeCfg>
c:\Users\Paul Scalise\CH592F_SSD1306\obj/../User/app_i2c.c:57
    I2C_Init(I2C_Mode_I2C, 400000, I2C_DutyCycle_16_9, I2C_Ack_Enable,
     d5e:	47b2                	lw	a5,12(sp)
     d60:	000625b7          	lui	a1,0x62
     d64:	6711                	lui	a4,0x4
     d66:	40000693          	li	a3,1024
     d6a:	6611                	lui	a2,0x4
     d6c:	a8058593          	addi	a1,a1,-1408 # 61a80 <_data_lma+0x5ae30>
     d70:	4501                	li	a0,0
     d72:	783010ef          	jal	ra,2cf4 <I2C_Init>
c:\Users\Paul Scalise\CH592F_SSD1306\obj/../User/app_i2c.c:60
    I2C_ITConfig(I2C_IT_BUF, ENABLE);
     d76:	4585                	li	a1,1
     d78:	40000513          	li	a0,1024
     d7c:	729010ef          	jal	ra,2ca4 <I2C_ITConfig>
c:\Users\Paul Scalise\CH592F_SSD1306\obj/../User/app_i2c.c:61
    I2C_ITConfig(I2C_IT_EVT, ENABLE);
     d80:	4585                	li	a1,1
     d82:	20000513          	li	a0,512
     d86:	71f010ef          	jal	ra,2ca4 <I2C_ITConfig>
c:\Users\Paul Scalise\CH592F_SSD1306\obj/../User/app_i2c.c:62
    I2C_ITConfig(I2C_IT_ERR, ENABLE);
     d8a:	4585                	li	a1,1
     d8c:	10000513          	li	a0,256
     d90:	715010ef          	jal	ra,2ca4 <I2C_ITConfig>
c:\Users\Paul Scalise\CH592F_SSD1306\obj/../User/app_i2c.c:65
}
     d94:	40f2                	lw	ra,28(sp)
PFIC_EnableIRQ():
c:/Users/Paul Scalise/CH592F_SSD1306/RVMSIS/core_riscv.h:144
 *
 * @param   IRQn    - Interrupt Numbers
 */
__attribute__((always_inline)) RV_STATIC_INLINE void PFIC_EnableIRQ(IRQn_Type IRQn)
{
    PFIC->IENR[((uint32_t)(IRQn) >> 5)] = (1 << ((uint32_t)(IRQn)&0x1F));
     d96:	e000e7b7          	lui	a5,0xe000e
     d9a:	40000737          	lui	a4,0x40000
     d9e:	10e7a023          	sw	a4,256(a5) # e000e100 <_eusrstack+0xc0007900>
i2c_app_init():
c:\Users\Paul Scalise\CH592F_SSD1306\obj/../User/app_i2c.c:65
     da2:	6105                	addi	sp,sp,32
     da4:	8082                	ret

00000da6 <i2c_write_to>:
i2c_write_to():
c:\Users\Paul Scalise\CH592F_SSD1306\obj/../User/app_i2c.c:75
    if (length > I2C_BUFFER_LENGTH) {
     da6:	08000793          	li	a5,128
     daa:	0cc7ec63          	bltu	a5,a2,e82 <i2c_write_to+0xdc>
c:\Users\Paul Scalise\CH592F_SSD1306\obj/../User/app_i2c.c:74
{
     dae:	1101                	addi	sp,sp,-32
     db0:	c84a                	sw	s2,16(sp)
     db2:	ce06                	sw	ra,28(sp)
     db4:	cc22                	sw	s0,24(sp)
     db6:	ca26                	sw	s1,20(sp)
     db8:	c64e                	sw	s3,12(sp)
c:\Users\Paul Scalise\CH592F_SSD1306\obj/../User/app_i2c.c:79
    if (i2c_state != I2C_READY) {
     dba:	8111c883          	lbu	a7,-2031(gp) # 20002c11 <i2c_state>
     dbe:	81118913          	addi	s2,gp,-2031 # 20002c11 <i2c_state>
c:\Users\Paul Scalise\CH592F_SSD1306\obj/../User/app_i2c.c:80
        return -I2C_STATE;
     dc2:	57f9                	li	a5,-2
c:\Users\Paul Scalise\CH592F_SSD1306\obj/../User/app_i2c.c:79
    if (i2c_state != I2C_READY) {
     dc4:	00089463          	bnez	a7,dcc <i2c_write_to+0x26>
c:\Users\Paul Scalise\CH592F_SSD1306\obj/../User/app_i2c.c:83
    if (!length) {
     dc8:	ea11                	bnez	a2,ddc <i2c_write_to+0x36>
c:\Users\Paul Scalise\CH592F_SSD1306\obj/../User/app_i2c.c:84
        return 0;
     dca:	4781                	li	a5,0
c:\Users\Paul Scalise\CH592F_SSD1306\obj/../User/app_i2c.c:127
}
     dcc:	40f2                	lw	ra,28(sp)
     dce:	4462                	lw	s0,24(sp)
     dd0:	44d2                	lw	s1,20(sp)
     dd2:	4942                	lw	s2,16(sp)
     dd4:	49b2                	lw	s3,12(sp)
     dd6:	853e                	mv	a0,a5
     dd8:	6105                	addi	sp,sp,32
     dda:	8082                	ret
c:\Users\Paul Scalise\CH592F_SSD1306\obj/../User/app_i2c.c:87
    i2c_state = I2C_MTX;
     ddc:	4789                	li	a5,2
     dde:	84b6                	mv	s1,a3
     de0:	80f188a3          	sb	a5,-2031(gp) # 20002c11 <i2c_state>
c:\Users\Paul Scalise\CH592F_SSD1306\obj/../User/app_i2c.c:88
    i2c_send_stop = send_stop;
     de4:	80e18623          	sb	a4,-2036(gp) # 20002c0c <i2c_send_stop>
c:\Users\Paul Scalise\CH592F_SSD1306\obj/../User/app_i2c.c:90
    i2c_error = 0;
     de8:	80018423          	sb	zero,-2040(gp) # 20002c08 <_edata>
     dec:	842a                	mv	s0,a0
c:\Users\Paul Scalise\CH592F_SSD1306\obj/../User/app_i2c.c:96
    memcpy(i2c_master_buffer, data, length);
     dee:	82018513          	addi	a0,gp,-2016 # 20002c20 <i2c_master_buffer>
c:\Users\Paul Scalise\CH592F_SSD1306\obj/../User/app_i2c.c:94
    i2c_master_buffer_length = length;
     df2:	80c185a3          	sb	a2,-2037(gp) # 20002c0b <i2c_master_buffer_length>
c:\Users\Paul Scalise\CH592F_SSD1306\obj/../User/app_i2c.c:93
    i2c_master_buffer_index = 0;
     df6:	80018523          	sb	zero,-2038(gp) # 20002c0a <i2c_master_buffer_index>
c:\Users\Paul Scalise\CH592F_SSD1306\obj/../User/app_i2c.c:96
    memcpy(i2c_master_buffer, data, length);
     dfa:	294020ef          	jal	ra,308e <memcpy>
c:\Users\Paul Scalise\CH592F_SSD1306\obj/../User/app_i2c.c:98
    i2c_slave_addr_rw = I2C_WRITE;
     dfe:	800186a3          	sb	zero,-2035(gp) # 20002c0d <i2c_slave_addr_rw>
c:\Users\Paul Scalise\CH592F_SSD1306\obj/../User/app_i2c.c:99
    i2c_slave_addr_rw |= addr_7bit << 1;
     e02:	80d1c783          	lbu	a5,-2035(gp) # 20002c0d <i2c_slave_addr_rw>
     e06:	00141513          	slli	a0,s0,0x1
     e0a:	8d5d                	or	a0,a0,a5
     e0c:	80a186a3          	sb	a0,-2035(gp) # 20002c0d <i2c_slave_addr_rw>
c:\Users\Paul Scalise\CH592F_SSD1306\obj/../User/app_i2c.c:101
    I2C_GenerateSTOP(DISABLE);
     e10:	4501                	li	a0,0
     e12:	64f010ef          	jal	ra,2c60 <I2C_GenerateSTOP>
c:\Users\Paul Scalise\CH592F_SSD1306\obj/../User/app_i2c.c:103
    if (i2c_in_repstart == true) {
     e16:	8091c703          	lbu	a4,-2039(gp) # 20002c09 <i2c_in_repstart>
     e1a:	4785                	li	a5,1
     e1c:	80d18993          	addi	s3,gp,-2035 # 20002c0d <i2c_slave_addr_rw>
     e20:	04f71d63          	bne	a4,a5,e7a <i2c_write_to+0xd4>
c:\Users\Paul Scalise\CH592F_SSD1306\obj/../User/app_i2c.c:104
        i2c_in_repstart = false;
     e24:	800184a3          	sb	zero,-2039(gp) # 20002c09 <i2c_in_repstart>
c:\Users\Paul Scalise\CH592F_SSD1306\obj/../User/app_i2c.c:108
        } while(R16_I2C_STAR1 & RB_I2C_BTF);
     e28:	40005437          	lui	s0,0x40005
c:\Users\Paul Scalise\CH592F_SSD1306\obj/../User/app_i2c.c:107 (discriminator 1)
            I2C_SendData(i2c_slave_addr_rw);
     e2c:	0009c503          	lbu	a0,0(s3)
     e30:	693010ef          	jal	ra,2cc2 <I2C_SendData>
c:\Users\Paul Scalise\CH592F_SSD1306\obj/../User/app_i2c.c:108 (discriminator 1)
        } while(R16_I2C_STAR1 & RB_I2C_BTF);
     e34:	81445783          	lhu	a5,-2028(s0) # 40004814 <_eusrstack+0x1fffe014>
     e38:	8b91                	andi	a5,a5,4
     e3a:	fbed                	bnez	a5,e2c <i2c_write_to+0x86>
c:\Users\Paul Scalise\CH592F_SSD1306\obj/../User/app_i2c.c:111
        I2C_ITConfig(I2C_IT_BUF, ENABLE);
     e3c:	4585                	li	a1,1
     e3e:	40000513          	li	a0,1024
     e42:	663010ef          	jal	ra,2ca4 <I2C_ITConfig>
c:\Users\Paul Scalise\CH592F_SSD1306\obj/../User/app_i2c.c:112
        I2C_ITConfig(I2C_IT_EVT, ENABLE);
     e46:	4585                	li	a1,1
     e48:	20000513          	li	a0,512
     e4c:	659010ef          	jal	ra,2ca4 <I2C_ITConfig>
c:\Users\Paul Scalise\CH592F_SSD1306\obj/../User/app_i2c.c:113
        I2C_ITConfig(I2C_IT_ERR, ENABLE);
     e50:	4585                	li	a1,1
     e52:	10000513          	li	a0,256
     e56:	64f010ef          	jal	ra,2ca4 <I2C_ITConfig>
c:\Users\Paul Scalise\CH592F_SSD1306\obj/../User/app_i2c.c:118
    while(wait && (i2c_state == I2C_MTX)) {
     e5a:	4709                	li	a4,2
     e5c:	c489                	beqz	s1,e66 <i2c_write_to+0xc0>
c:\Users\Paul Scalise\CH592F_SSD1306\obj/../User/app_i2c.c:118 (discriminator 1)
     e5e:	00094783          	lbu	a5,0(s2)
     e62:	fef70de3          	beq	a4,a5,e5c <i2c_write_to+0xb6>
c:\Users\Paul Scalise\CH592F_SSD1306\obj/../User/app_i2c.c:122
    if (i2c_error) {
     e66:	8081c783          	lbu	a5,-2040(gp) # 20002c08 <_edata>
     e6a:	d3a5                	beqz	a5,dca <i2c_write_to+0x24>
c:\Users\Paul Scalise\CH592F_SSD1306\obj/../User/app_i2c.c:123
        return -i2c_error;
     e6c:	80818793          	addi	a5,gp,-2040 # 20002c08 <_edata>
     e70:	0007c783          	lbu	a5,0(a5)
     e74:	40f007b3          	neg	a5,a5
     e78:	bf91                	j	dcc <i2c_write_to+0x26>
c:\Users\Paul Scalise\CH592F_SSD1306\obj/../User/app_i2c.c:115
        I2C_GenerateSTART(ENABLE);
     e7a:	4505                	li	a0,1
     e7c:	5c3010ef          	jal	ra,2c3e <I2C_GenerateSTART>
     e80:	bfe9                	j	e5a <i2c_write_to+0xb4>
c:\Users\Paul Scalise\CH592F_SSD1306\obj/../User/app_i2c.c:76
        return -I2C_NO_MEM;
     e82:	57fd                	li	a5,-1
c:\Users\Paul Scalise\CH592F_SSD1306\obj/../User/app_i2c.c:127
}
     e84:	853e                	mv	a0,a5
     e86:	8082                	ret

00000e88 <a_ssd1306_write_byte>:
a_ssd1306_write_byte():
c:\Users\Paul Scalise\CH592F_SSD1306\obj/../User/driver_ssd1306.c:109
 *            - 0 success
 *            - 1 write failed
 * @note      none
 */
static uint8_t a_ssd1306_write_byte(ssd1306_handle_t *handle, uint8_t data, uint8_t cmd)
{
     e88:	1101                	addi	sp,sp,-32
     e8a:	cc22                	sw	s0,24(sp)
     e8c:	ce06                	sw	ra,28(sp)
c:\Users\Paul Scalise\CH592F_SSD1306\obj/../User/driver_ssd1306.c:112
    uint8_t res;
    
    if (handle->iic_spi == SSD1306_INTERFACE_IIC)                              /* if iic */
     e8e:	03a54783          	lbu	a5,58(a0) # c03a <_data_lma+0x53ea>
c:\Users\Paul Scalise\CH592F_SSD1306\obj/../User/driver_ssd1306.c:109
{
     e92:	00b107a3          	sb	a1,15(sp)
     e96:	842a                	mv	s0,a0
c:\Users\Paul Scalise\CH592F_SSD1306\obj/../User/driver_ssd1306.c:112
    if (handle->iic_spi == SSD1306_INTERFACE_IIC)                              /* if iic */
     e98:	e395                	bnez	a5,ebc <a_ssd1306_write_byte+0x34>
c:\Users\Paul Scalise\CH592F_SSD1306\obj/../User/driver_ssd1306.c:114
    {
        if (cmd != 0)                                                          /* if data */
     e9a:	451c                	lw	a5,8(a0)
c:\Users\Paul Scalise\CH592F_SSD1306\obj/../User/driver_ssd1306.c:116
        {
            if (handle->iic_write(handle->iic_addr, 0x40, &data, 1) != 0)      /* write data */
     e9c:	4685                	li	a3,1
     e9e:	03954503          	lbu	a0,57(a0)
c:\Users\Paul Scalise\CH592F_SSD1306\obj/../User/driver_ssd1306.c:114
        if (cmd != 0)                                                          /* if data */
     ea2:	ca09                	beqz	a2,eb4 <a_ssd1306_write_byte+0x2c>
c:\Users\Paul Scalise\CH592F_SSD1306\obj/../User/driver_ssd1306.c:116
            if (handle->iic_write(handle->iic_addr, 0x40, &data, 1) != 0)      /* write data */
     ea4:	00f10613          	addi	a2,sp,15
     ea8:	04000593          	li	a1,64
c:\Users\Paul Scalise\CH592F_SSD1306\obj/../User/driver_ssd1306.c:127
                return 0;                                                      /* success return 0 */
            }
        }
        else
        {
            if (handle->iic_write(handle->iic_addr, 0x00, &data, 1) != 0)      /* write command */
     eac:	9782                	jalr	a5
c:\Users\Paul Scalise\CH592F_SSD1306\obj/../User/driver_ssd1306.c:118
                return 1;                                                      /* return error */
     eae:	00a03533          	snez	a0,a0
     eb2:	a809                	j	ec4 <a_ssd1306_write_byte+0x3c>
c:\Users\Paul Scalise\CH592F_SSD1306\obj/../User/driver_ssd1306.c:127
            if (handle->iic_write(handle->iic_addr, 0x00, &data, 1) != 0)      /* write command */
     eb4:	00f10613          	addi	a2,sp,15
     eb8:	4581                	li	a1,0
     eba:	bfcd                	j	eac <a_ssd1306_write_byte+0x24>
c:\Users\Paul Scalise\CH592F_SSD1306\obj/../User/driver_ssd1306.c:137
            {
                return 0;                                                      /* success return 0 */
            }
        }
    }
    else if (handle->iic_spi == SSD1306_INTERFACE_SPI)                         /* if spi */
     ebc:	4705                	li	a4,1
     ebe:	00e78763          	beq	a5,a4,ecc <a_ssd1306_write_byte+0x44>
c:\Users\Paul Scalise\CH592F_SSD1306\obj/../User/driver_ssd1306.c:156
            return 0;                                                          /* success return 0 */
        }
    }
    else
    {
        return 1;                                                              /* return error */
     ec2:	4505                	li	a0,1
c:\Users\Paul Scalise\CH592F_SSD1306\obj/../User/driver_ssd1306.c:158
    }
}
     ec4:	40f2                	lw	ra,28(sp)
     ec6:	4462                	lw	s0,24(sp)
     ec8:	6105                	addi	sp,sp,32
     eca:	8082                	ret
c:\Users\Paul Scalise\CH592F_SSD1306\obj/../User/driver_ssd1306.c:139
        res = handle->spi_cmd_data_gpio_write(cmd);                            /* write data command */
     ecc:	511c                	lw	a5,32(a0)
     ece:	8532                	mv	a0,a2
     ed0:	9782                	jalr	a5
c:\Users\Paul Scalise\CH592F_SSD1306\obj/../User/driver_ssd1306.c:140
        if (res != 0)                                                          /* check error */
     ed2:	f965                	bnez	a0,ec2 <a_ssd1306_write_byte+0x3a>
c:\Users\Paul Scalise\CH592F_SSD1306\obj/../User/driver_ssd1306.c:145
        if (handle->spi_write_cmd(&data, 1) != 0)                              /* write command */
     ed4:	485c                	lw	a5,20(s0)
     ed6:	4585                	li	a1,1
     ed8:	00f10513          	addi	a0,sp,15
     edc:	9782                	jalr	a5
     ede:	bfc1                	j	eae <a_ssd1306_write_byte+0x26>

00000ee0 <a_ssd1306_gram_draw_point>:
a_ssd1306_gram_draw_point():
c:\Users\Paul Scalise\CH592F_SSD1306\obj/../User/driver_ssd1306.c:242
    uint8_t bx;
    uint8_t temp = 0;
    
    pos = y / 8;                              /* get y page */
    bx = y % 8;                               /* get y point */
    temp = 1 << bx;                           /* set data */
     ee0:	058e                	slli	a1,a1,0x3
     ee2:	00767713          	andi	a4,a2,7
     ee6:	952e                	add	a0,a0,a1
     ee8:	820d                	srli	a2,a2,0x3
     eea:	4785                	li	a5,1
     eec:	9532                	add	a0,a0,a2
     eee:	00e797b3          	sll	a5,a5,a4
c:\Users\Paul Scalise\CH592F_SSD1306\obj/../User/driver_ssd1306.c:243
    if (data != 0)                            /* if 1  */
     ef2:	03b54703          	lbu	a4,59(a0)
     ef6:	c691                	beqz	a3,f02 <a_ssd1306_gram_draw_point+0x22>
c:\Users\Paul Scalise\CH592F_SSD1306\obj/../User/driver_ssd1306.c:245
    {
        handle->gram[x][pos] |= temp;         /* set 1 */
     ef8:	8fd9                	or	a5,a5,a4
c:\Users\Paul Scalise\CH592F_SSD1306\obj/../User/driver_ssd1306.c:249
    }
    else
    {
        handle->gram[x][pos] &= ~temp;        /* set 0 */
     efa:	02f50da3          	sb	a5,59(a0)
c:\Users\Paul Scalise\CH592F_SSD1306\obj/../User/driver_ssd1306.c:253
    }
  
    return 0;                                 /* success return 0 */
}
     efe:	4501                	li	a0,0
     f00:	8082                	ret
c:\Users\Paul Scalise\CH592F_SSD1306\obj/../User/driver_ssd1306.c:249
        handle->gram[x][pos] &= ~temp;        /* set 0 */
     f02:	fff7c793          	not	a5,a5
     f06:	8ff9                	and	a5,a5,a4
     f08:	bfcd                	j	efa <a_ssd1306_gram_draw_point+0x1a>

00000f0a <a_ssd1306_multiple_write_byte>:
a_ssd1306_multiple_write_byte():
c:\Users\Paul Scalise\CH592F_SSD1306\obj/../User/driver_ssd1306.c:172
{    
     f0a:	1101                	addi	sp,sp,-32
     f0c:	cc22                	sw	s0,24(sp)
     f0e:	ca26                	sw	s1,20(sp)
     f10:	ce06                	sw	ra,28(sp)
c:\Users\Paul Scalise\CH592F_SSD1306\obj/../User/driver_ssd1306.c:175
    if (handle->iic_spi == SSD1306_INTERFACE_IIC)                               /* if iic */
     f12:	03a54703          	lbu	a4,58(a0)
c:\Users\Paul Scalise\CH592F_SSD1306\obj/../User/driver_ssd1306.c:172
{    
     f16:	842a                	mv	s0,a0
     f18:	84ae                	mv	s1,a1
     f1a:	87b6                	mv	a5,a3
c:\Users\Paul Scalise\CH592F_SSD1306\obj/../User/driver_ssd1306.c:175
    if (handle->iic_spi == SSD1306_INTERFACE_IIC)                               /* if iic */
     f1c:	e305                	bnez	a4,f3c <a_ssd1306_multiple_write_byte+0x32>
c:\Users\Paul Scalise\CH592F_SSD1306\obj/../User/driver_ssd1306.c:177
        if (cmd != 0)                                                           /* if data */
     f1e:	01061693          	slli	a3,a2,0x10
     f22:	4518                	lw	a4,8(a0)
c:\Users\Paul Scalise\CH592F_SSD1306\obj/../User/driver_ssd1306.c:179
            if (handle->iic_write(handle->iic_addr, 0x40, data, len) != 0)      /* write data */
     f24:	862e                	mv	a2,a1
     f26:	03954503          	lbu	a0,57(a0)
     f2a:	82c1                	srli	a3,a3,0x10
     f2c:	04000593          	li	a1,64
c:\Users\Paul Scalise\CH592F_SSD1306\obj/../User/driver_ssd1306.c:177
        if (cmd != 0)                                                           /* if data */
     f30:	e391                	bnez	a5,f34 <a_ssd1306_multiple_write_byte+0x2a>
c:\Users\Paul Scalise\CH592F_SSD1306\obj/../User/driver_ssd1306.c:190
            if (handle->iic_write(handle->iic_addr, 0x00, data, len) != 0)      /* write command */
     f32:	4581                	li	a1,0
     f34:	9702                	jalr	a4
c:\Users\Paul Scalise\CH592F_SSD1306\obj/../User/driver_ssd1306.c:181
                return 1;                                                       /* return error */
     f36:	00a03533          	snez	a0,a0
     f3a:	a029                	j	f44 <a_ssd1306_multiple_write_byte+0x3a>
c:\Users\Paul Scalise\CH592F_SSD1306\obj/../User/driver_ssd1306.c:200
    else if (handle->iic_spi == SSD1306_INTERFACE_SPI)                          /* if spi */
     f3c:	4685                	li	a3,1
     f3e:	00d70863          	beq	a4,a3,f4e <a_ssd1306_multiple_write_byte+0x44>
c:\Users\Paul Scalise\CH592F_SSD1306\obj/../User/driver_ssd1306.c:219
        return 1;                                                               /* return error */
     f42:	4505                	li	a0,1
c:\Users\Paul Scalise\CH592F_SSD1306\obj/../User/driver_ssd1306.c:221
}
     f44:	40f2                	lw	ra,28(sp)
     f46:	4462                	lw	s0,24(sp)
     f48:	44d2                	lw	s1,20(sp)
     f4a:	6105                	addi	sp,sp,32
     f4c:	8082                	ret
c:\Users\Paul Scalise\CH592F_SSD1306\obj/../User/driver_ssd1306.c:202
        res = handle->spi_cmd_data_gpio_write(cmd);                             /* write data command */
     f4e:	5118                	lw	a4,32(a0)
     f50:	853e                	mv	a0,a5
     f52:	c632                	sw	a2,12(sp)
     f54:	9702                	jalr	a4
c:\Users\Paul Scalise\CH592F_SSD1306\obj/../User/driver_ssd1306.c:203
        if (res != 0)                                                           /* check error */
     f56:	f575                	bnez	a0,f42 <a_ssd1306_multiple_write_byte+0x38>
c:\Users\Paul Scalise\CH592F_SSD1306\obj/../User/driver_ssd1306.c:208
        if (handle->spi_write_cmd(data, len) != 0)                              /* write command */
     f58:	4632                	lw	a2,12(sp)
     f5a:	485c                	lw	a5,20(s0)
     f5c:	8526                	mv	a0,s1
     f5e:	85b2                	mv	a1,a2
     f60:	9782                	jalr	a5
     f62:	bfd1                	j	f36 <a_ssd1306_multiple_write_byte+0x2c>

00000f64 <ssd1306_clear>:
ssd1306_clear():
c:\Users\Paul Scalise\CH592F_SSD1306\obj/../User/driver_ssd1306.c:335
 *            - 2 handle is NULL
 *            - 3 handle is not initialized
 * @note      none
 */
uint8_t ssd1306_clear(ssd1306_handle_t *handle)
{
     f64:	1101                	addi	sp,sp,-32
     f66:	ca26                	sw	s1,20(sp)
     f68:	ce06                	sw	ra,28(sp)
     f6a:	cc22                	sw	s0,24(sp)
     f6c:	c84a                	sw	s2,16(sp)
     f6e:	c64e                	sw	s3,12(sp)
     f70:	c452                	sw	s4,8(sp)
     f72:	c256                	sw	s5,4(sp)
c:\Users\Paul Scalise\CH592F_SSD1306\obj/../User/driver_ssd1306.c:341
    uint8_t i;
    uint8_t n;
    
    if (handle == NULL)                                                                               /* check handle */
    {
        return 2;                                                                                     /* return error */
     f74:	4489                	li	s1,2
c:\Users\Paul Scalise\CH592F_SSD1306\obj/../User/driver_ssd1306.c:339
    if (handle == NULL)                                                                               /* check handle */
     f76:	c51d                	beqz	a0,fa4 <ssd1306_clear+0x40>
c:\Users\Paul Scalise\CH592F_SSD1306\obj/../User/driver_ssd1306.c:343
    }
    if (handle->inited != 1)                                                                          /* check handle initialization */
     f78:	03854483          	lbu	s1,56(a0)
     f7c:	4785                	li	a5,1
     f7e:	06f49b63          	bne	s1,a5,ff4 <ssd1306_clear+0x90>
     f82:	842a                	mv	s0,a0
     f84:	4901                	li	s2,0
c:\Users\Paul Scalise\CH592F_SSD1306\obj/../User/driver_ssd1306.c:348
    {
        return 3;                                                                                     /* return error */
    }
    
    for (i = 0; i < 8; i++)                                                                           /* write 8 page */
     f86:	4aa1                	li	s5,8
c:\Users\Paul Scalise\CH592F_SSD1306\obj/../User/driver_ssd1306.c:350
    {  
        if (a_ssd1306_write_byte(handle, SSD1306_CMD_PAGE_ADDR+i, SSD1306_CMD) != 0)                  /* set page */
     f88:	fb090593          	addi	a1,s2,-80
     f8c:	4601                	li	a2,0
     f8e:	0ff5f593          	andi	a1,a1,255
     f92:	8522                	mv	a0,s0
     f94:	3dd5                	jal	e88 <a_ssd1306_write_byte>
     f96:	c10d                	beqz	a0,fb8 <ssd1306_clear+0x54>
c:\Users\Paul Scalise\CH592F_SSD1306\obj/../User/driver_ssd1306.c:373
        for (n = 0; n < 128; n++)                                                                     /* write 128 */
        {
            handle->gram[n][i] = 0x00;                                                                /* set black */
            if (a_ssd1306_write_byte(handle, handle->gram[n][i], SSD1306_DATA) != 0)                  /* write data */
            {
                handle->debug_print("ssd1306: write byte failed.\n");                                 /* write byte failed */
     f98:	581c                	lw	a5,48(s0)
     f9a:	00005517          	auipc	a0,0x5
     f9e:	b9250513          	addi	a0,a0,-1134 # 5b2c <gsc_ssd1306_ascii_2412+0xd5c>
     fa2:	9782                	jalr	a5
c:\Users\Paul Scalise\CH592F_SSD1306\obj/../User/driver_ssd1306.c:381
            }
        }
    }
    
    return 0;                                                                                         /* success return 0 */
}
     fa4:	40f2                	lw	ra,28(sp)
     fa6:	4462                	lw	s0,24(sp)
     fa8:	8526                	mv	a0,s1
     faa:	4942                	lw	s2,16(sp)
     fac:	44d2                	lw	s1,20(sp)
     fae:	49b2                	lw	s3,12(sp)
     fb0:	4a22                	lw	s4,8(sp)
     fb2:	4a92                	lw	s5,4(sp)
     fb4:	6105                	addi	sp,sp,32
     fb6:	8082                	ret
c:\Users\Paul Scalise\CH592F_SSD1306\obj/../User/driver_ssd1306.c:356
        if (a_ssd1306_write_byte(handle, SSD1306_CMD_LOWER_COLUMN_START_ADDRESS, SSD1306_CMD) != 0)   /* set lower column 0 */
     fb8:	4601                	li	a2,0
     fba:	4581                	li	a1,0
     fbc:	8522                	mv	a0,s0
     fbe:	35e9                	jal	e88 <a_ssd1306_write_byte>
     fc0:	fd61                	bnez	a0,f98 <ssd1306_clear+0x34>
c:\Users\Paul Scalise\CH592F_SSD1306\obj/../User/driver_ssd1306.c:362
        if (a_ssd1306_write_byte(handle, SSD1306_CMD_HIGHER_COLUMN_START_ADDRESS, SSD1306_CMD) != 0)  /* set higher column 0 */
     fc2:	4601                	li	a2,0
     fc4:	45c1                	li	a1,16
     fc6:	8522                	mv	a0,s0
     fc8:	35c1                	jal	e88 <a_ssd1306_write_byte>
     fca:	f579                	bnez	a0,f98 <ssd1306_clear+0x34>
     fcc:	01240a33          	add	s4,s0,s2
     fd0:	08000993          	li	s3,128
c:\Users\Paul Scalise\CH592F_SSD1306\obj/../User/driver_ssd1306.c:370
            handle->gram[n][i] = 0x00;                                                                /* set black */
     fd4:	020a0da3          	sb	zero,59(s4)
c:\Users\Paul Scalise\CH592F_SSD1306\obj/../User/driver_ssd1306.c:371
            if (a_ssd1306_write_byte(handle, handle->gram[n][i], SSD1306_DATA) != 0)                  /* write data */
     fd8:	4605                	li	a2,1
     fda:	4581                	li	a1,0
     fdc:	8522                	mv	a0,s0
     fde:	356d                	jal	e88 <a_ssd1306_write_byte>
     fe0:	fd45                	bnez	a0,f98 <ssd1306_clear+0x34>
     fe2:	19fd                	addi	s3,s3,-1
     fe4:	0a21                	addi	s4,s4,8
c:\Users\Paul Scalise\CH592F_SSD1306\obj/../User/driver_ssd1306.c:368 (discriminator 2)
        for (n = 0; n < 128; n++)                                                                     /* write 128 */
     fe6:	fe0997e3          	bnez	s3,fd4 <ssd1306_clear+0x70>
     fea:	0905                	addi	s2,s2,1
c:\Users\Paul Scalise\CH592F_SSD1306\obj/../User/driver_ssd1306.c:348 (discriminator 2)
    for (i = 0; i < 8; i++)                                                                           /* write 8 page */
     fec:	f9591ee3          	bne	s2,s5,f88 <ssd1306_clear+0x24>
c:\Users\Paul Scalise\CH592F_SSD1306\obj/../User/driver_ssd1306.c:380
    return 0;                                                                                         /* success return 0 */
     ff0:	4481                	li	s1,0
     ff2:	bf4d                	j	fa4 <ssd1306_clear+0x40>
c:\Users\Paul Scalise\CH592F_SSD1306\obj/../User/driver_ssd1306.c:345
        return 3;                                                                                     /* return error */
     ff4:	448d                	li	s1,3
     ff6:	b77d                	j	fa4 <ssd1306_clear+0x40>

00000ff8 <ssd1306_gram_update>:
ssd1306_gram_update():
c:\Users\Paul Scalise\CH592F_SSD1306\obj/../User/driver_ssd1306.c:394
 *            - 2 handle is NULL
 *            - 3 handle is not initialized
 * @note      none
 */
uint8_t ssd1306_gram_update(ssd1306_handle_t *handle)
{
     ff8:	1101                	addi	sp,sp,-32
     ffa:	ca26                	sw	s1,20(sp)
     ffc:	ce06                	sw	ra,28(sp)
     ffe:	cc22                	sw	s0,24(sp)
    1000:	c84a                	sw	s2,16(sp)
    1002:	c64e                	sw	s3,12(sp)
    1004:	c452                	sw	s4,8(sp)
    1006:	c256                	sw	s5,4(sp)
c:\Users\Paul Scalise\CH592F_SSD1306\obj/../User/driver_ssd1306.c:400
    uint8_t i;
    uint8_t n;
    
    if (handle == NULL)                                                                               /* check handle */
    {
        return 2;                                                                                     /* return error */
    1008:	4489                	li	s1,2
c:\Users\Paul Scalise\CH592F_SSD1306\obj/../User/driver_ssd1306.c:398
    if (handle == NULL)                                                                               /* check handle */
    100a:	c51d                	beqz	a0,1038 <ssd1306_gram_update+0x40>
c:\Users\Paul Scalise\CH592F_SSD1306\obj/../User/driver_ssd1306.c:402
    }
    if (handle->inited != 1)                                                                          /* check handle initialization */
    100c:	03854483          	lbu	s1,56(a0)
    1010:	4785                	li	a5,1
    1012:	06f49a63          	bne	s1,a5,1086 <ssd1306_gram_update+0x8e>
    1016:	842a                	mv	s0,a0
    1018:	4901                	li	s2,0
c:\Users\Paul Scalise\CH592F_SSD1306\obj/../User/driver_ssd1306.c:407
    {
        return 3;                                                                                     /* return error */
    }
    
    for (i = 0; i < 8; i++)                                                                           /* write 8 page */
    101a:	4aa1                	li	s5,8
c:\Users\Paul Scalise\CH592F_SSD1306\obj/../User/driver_ssd1306.c:409
    {  
        if (a_ssd1306_write_byte(handle, SSD1306_CMD_PAGE_ADDR+i, SSD1306_CMD) != 0)                  /* set page */
    101c:	fb090593          	addi	a1,s2,-80
    1020:	4601                	li	a2,0
    1022:	0ff5f593          	andi	a1,a1,255
    1026:	8522                	mv	a0,s0
    1028:	3585                	jal	e88 <a_ssd1306_write_byte>
    102a:	c10d                	beqz	a0,104c <ssd1306_gram_update+0x54>
c:\Users\Paul Scalise\CH592F_SSD1306\obj/../User/driver_ssd1306.c:431
        }
        for (n = 0; n < 128; n++)                                                                     /* write 128 */
        {
            if (a_ssd1306_write_byte(handle, handle->gram[n][i], SSD1306_DATA) != 0)                  /* write data */
            {
                handle->debug_print("ssd1306: write byte failed.\n");                                 /* write byte failed */
    102c:	581c                	lw	a5,48(s0)
    102e:	00005517          	auipc	a0,0x5
    1032:	afe50513          	addi	a0,a0,-1282 # 5b2c <gsc_ssd1306_ascii_2412+0xd5c>
    1036:	9782                	jalr	a5
c:\Users\Paul Scalise\CH592F_SSD1306\obj/../User/driver_ssd1306.c:439
            }
        }
    }
    
    return 0;                                                                                         /* success return 0 */
}
    1038:	40f2                	lw	ra,28(sp)
    103a:	4462                	lw	s0,24(sp)
    103c:	8526                	mv	a0,s1
    103e:	4942                	lw	s2,16(sp)
    1040:	44d2                	lw	s1,20(sp)
    1042:	49b2                	lw	s3,12(sp)
    1044:	4a22                	lw	s4,8(sp)
    1046:	4a92                	lw	s5,4(sp)
    1048:	6105                	addi	sp,sp,32
    104a:	8082                	ret
c:\Users\Paul Scalise\CH592F_SSD1306\obj/../User/driver_ssd1306.c:415
        if (a_ssd1306_write_byte(handle, SSD1306_CMD_LOWER_COLUMN_START_ADDRESS, SSD1306_CMD) != 0)   /* set lower column 0 */
    104c:	4601                	li	a2,0
    104e:	4581                	li	a1,0
    1050:	8522                	mv	a0,s0
    1052:	3d1d                	jal	e88 <a_ssd1306_write_byte>
    1054:	fd61                	bnez	a0,102c <ssd1306_gram_update+0x34>
c:\Users\Paul Scalise\CH592F_SSD1306\obj/../User/driver_ssd1306.c:421
        if (a_ssd1306_write_byte(handle, SSD1306_CMD_HIGHER_COLUMN_START_ADDRESS, SSD1306_CMD) != 0)  /* set higher column 0 */
    1056:	4601                	li	a2,0
    1058:	45c1                	li	a1,16
    105a:	8522                	mv	a0,s0
    105c:	3535                	jal	e88 <a_ssd1306_write_byte>
    105e:	f579                	bnez	a0,102c <ssd1306_gram_update+0x34>
    1060:	01240a33          	add	s4,s0,s2
    1064:	08000993          	li	s3,128
c:\Users\Paul Scalise\CH592F_SSD1306\obj/../User/driver_ssd1306.c:429
            if (a_ssd1306_write_byte(handle, handle->gram[n][i], SSD1306_DATA) != 0)                  /* write data */
    1068:	03ba4583          	lbu	a1,59(s4)
    106c:	4605                	li	a2,1
    106e:	8522                	mv	a0,s0
    1070:	3d21                	jal	e88 <a_ssd1306_write_byte>
    1072:	fd4d                	bnez	a0,102c <ssd1306_gram_update+0x34>
    1074:	19fd                	addi	s3,s3,-1
    1076:	0a21                	addi	s4,s4,8
c:\Users\Paul Scalise\CH592F_SSD1306\obj/../User/driver_ssd1306.c:427 (discriminator 2)
        for (n = 0; n < 128; n++)                                                                     /* write 128 */
    1078:	fe0998e3          	bnez	s3,1068 <ssd1306_gram_update+0x70>
    107c:	0905                	addi	s2,s2,1
c:\Users\Paul Scalise\CH592F_SSD1306\obj/../User/driver_ssd1306.c:407 (discriminator 2)
    for (i = 0; i < 8; i++)                                                                           /* write 8 page */
    107e:	f9591fe3          	bne	s2,s5,101c <ssd1306_gram_update+0x24>
c:\Users\Paul Scalise\CH592F_SSD1306\obj/../User/driver_ssd1306.c:438
    return 0;                                                                                         /* success return 0 */
    1082:	4481                	li	s1,0
    1084:	bf55                	j	1038 <ssd1306_gram_update+0x40>
c:\Users\Paul Scalise\CH592F_SSD1306\obj/../User/driver_ssd1306.c:404
        return 3;                                                                                     /* return error */
    1086:	448d                	li	s1,3
    1088:	bf45                	j	1038 <ssd1306_gram_update+0x40>

0000108a <ssd1306_gram_write_point>:
ssd1306_gram_write_point():
c:\Users\Paul Scalise\CH592F_SSD1306\obj/../User/driver_ssd1306.c:587
{
    uint8_t pos;
    uint8_t bx;
    uint8_t temp = 0;
    
    if (handle == NULL)                                              /* check handle */
    108a:	c525                	beqz	a0,10f2 <ssd1306_gram_write_point+0x68>
c:\Users\Paul Scalise\CH592F_SSD1306\obj/../User/driver_ssd1306.c:591
    {
        return 2;                                                    /* return error */
    }
    if (handle->inited != 1)                                         /* check handle initialization */
    108c:	03854703          	lbu	a4,56(a0)
    1090:	87aa                	mv	a5,a0
    1092:	4505                	li	a0,1
    1094:	06a71163          	bne	a4,a0,10f6 <ssd1306_gram_write_point+0x6c>
c:\Users\Paul Scalise\CH592F_SSD1306\obj/../User/driver_ssd1306.c:595
    {
        return 3;                                                    /* return error */
    }
    if ((x > 127) || (y > 63))                                       /* check x, y */
    1098:	01859513          	slli	a0,a1,0x18
    109c:	8561                	srai	a0,a0,0x18
    109e:	00054663          	bltz	a0,10aa <ssd1306_gram_write_point+0x20>
c:\Users\Paul Scalise\CH592F_SSD1306\obj/../User/driver_ssd1306.c:595 (discriminator 1)
    10a2:	03f00513          	li	a0,63
    10a6:	00c57f63          	bgeu	a0,a2,10c4 <ssd1306_gram_write_point+0x3a>
c:\Users\Paul Scalise\CH592F_SSD1306\obj/../User/driver_ssd1306.c:597
    {
        handle->debug_print("ssd1306: x or y is invalid.\n");        /* x or y is invalid */
    10aa:	5b9c                	lw	a5,48(a5)
c:\Users\Paul Scalise\CH592F_SSD1306\obj/../User/driver_ssd1306.c:582
{
    10ac:	1141                	addi	sp,sp,-16
    10ae:	c606                	sw	ra,12(sp)
c:\Users\Paul Scalise\CH592F_SSD1306\obj/../User/driver_ssd1306.c:597
        handle->debug_print("ssd1306: x or y is invalid.\n");        /* x or y is invalid */
    10b0:	00005517          	auipc	a0,0x5
    10b4:	0ec50513          	addi	a0,a0,236 # 619c <gsc_ssd1306_ascii_2412+0x13cc>
    10b8:	9782                	jalr	a5
c:\Users\Paul Scalise\CH592F_SSD1306\obj/../User/driver_ssd1306.c:615
    {
        handle->gram[x][pos] &= ~temp;                               /* set 0 */
    }
  
    return 0;                                                        /* success return 0 */
}
    10ba:	40b2                	lw	ra,12(sp)
c:\Users\Paul Scalise\CH592F_SSD1306\obj/../User/driver_ssd1306.c:599
        return 4;                                                    /* return error */
    10bc:	4691                	li	a3,4
c:\Users\Paul Scalise\CH592F_SSD1306\obj/../User/driver_ssd1306.c:615
}
    10be:	8536                	mv	a0,a3
    10c0:	0141                	addi	sp,sp,16
    10c2:	8082                	ret
c:\Users\Paul Scalise\CH592F_SSD1306\obj/../User/driver_ssd1306.c:604
    temp = 1 << bx;                                                  /* set data */
    10c4:	058e                	slli	a1,a1,0x3
    10c6:	00767513          	andi	a0,a2,7
    10ca:	97ae                	add	a5,a5,a1
    10cc:	820d                	srli	a2,a2,0x3
    10ce:	97b2                	add	a5,a5,a2
    10d0:	00a71733          	sll	a4,a4,a0
c:\Users\Paul Scalise\CH592F_SSD1306\obj/../User/driver_ssd1306.c:605
    if (data != 0)                                                   /* if 1 */
    10d4:	03b7c603          	lbu	a2,59(a5)
    10d8:	c699                	beqz	a3,10e6 <ssd1306_gram_write_point+0x5c>
c:\Users\Paul Scalise\CH592F_SSD1306\obj/../User/driver_ssd1306.c:607
        handle->gram[x][pos] |= temp;                                /* set 1 */
    10da:	8f51                	or	a4,a4,a2
    10dc:	02e78da3          	sb	a4,59(a5)
c:\Users\Paul Scalise\CH592F_SSD1306\obj/../User/driver_ssd1306.c:614
    return 0;                                                        /* success return 0 */
    10e0:	4681                	li	a3,0
c:\Users\Paul Scalise\CH592F_SSD1306\obj/../User/driver_ssd1306.c:615
}
    10e2:	8536                	mv	a0,a3
    10e4:	8082                	ret
c:\Users\Paul Scalise\CH592F_SSD1306\obj/../User/driver_ssd1306.c:611
        handle->gram[x][pos] &= ~temp;                               /* set 0 */
    10e6:	fff74713          	not	a4,a4
    10ea:	8f71                	and	a4,a4,a2
    10ec:	02e78da3          	sb	a4,59(a5)
    10f0:	bfcd                	j	10e2 <ssd1306_gram_write_point+0x58>
c:\Users\Paul Scalise\CH592F_SSD1306\obj/../User/driver_ssd1306.c:589
        return 2;                                                    /* return error */
    10f2:	4689                	li	a3,2
    10f4:	b7fd                	j	10e2 <ssd1306_gram_write_point+0x58>
c:\Users\Paul Scalise\CH592F_SSD1306\obj/../User/driver_ssd1306.c:593
        return 3;                                                    /* return error */
    10f6:	468d                	li	a3,3
    10f8:	b7ed                	j	10e2 <ssd1306_gram_write_point+0x58>

000010fa <ssd1306_gram_write_string>:
ssd1306_gram_write_string():
c:\Users\Paul Scalise\CH592F_SSD1306\obj/../User/driver_ssd1306.c:685
 *            - 3 handle is not initialized
 *            - 4 x or y is invalid
 * @note      none
 */
uint8_t ssd1306_gram_write_string(ssd1306_handle_t *handle, uint8_t x, uint8_t y, char *str, uint16_t len, uint8_t color, ssd1306_font_t font)
{    
    10fa:	7159                	addi	sp,sp,-112
    10fc:	cece                	sw	s3,92(sp)
    10fe:	d686                	sw	ra,108(sp)
    1100:	d4a2                	sw	s0,104(sp)
    1102:	d2a6                	sw	s1,100(sp)
    1104:	d0ca                	sw	s2,96(sp)
    1106:	ccd2                	sw	s4,88(sp)
    1108:	cad6                	sw	s5,84(sp)
    110a:	c8da                	sw	s6,80(sp)
    110c:	c6de                	sw	s7,76(sp)
    110e:	c4e2                	sw	s8,72(sp)
    1110:	c2e6                	sw	s9,68(sp)
    1112:	c0ea                	sw	s10,64(sp)
    1114:	de6e                	sw	s11,60(sp)
c:\Users\Paul Scalise\CH592F_SSD1306\obj/../User/driver_ssd1306.c:688
    if (handle == NULL)                                                      /* check handle */
    {
        return 2;                                                            /* return error */
    1116:	4989                	li	s3,2
c:\Users\Paul Scalise\CH592F_SSD1306\obj/../User/driver_ssd1306.c:686
    if (handle == NULL)                                                      /* check handle */
    1118:	c959                	beqz	a0,11ae <ssd1306_gram_write_string+0xb4>
c:\Users\Paul Scalise\CH592F_SSD1306\obj/../User/driver_ssd1306.c:690
    }
    if (handle->inited != 1)                                                 /* check handle initialization */
    111a:	03854983          	lbu	s3,56(a0)
    111e:	8bb6                	mv	s7,a3
    1120:	4685                	li	a3,1
    1122:	8c2a                	mv	s8,a0
    1124:	1ad99b63          	bne	s3,a3,12da <ssd1306_gram_write_string+0x1e0>
c:\Users\Paul Scalise\CH592F_SSD1306\obj/../User/driver_ssd1306.c:694
    {
        return 3;                                                            /* return error */
    }
    if((x > 127) || (y > 63))                                                /* check x, y */
    1128:	01859693          	slli	a3,a1,0x18
    112c:	86e1                	srai	a3,a3,0x18
    112e:	892e                	mv	s2,a1
    1130:	0606c763          	bltz	a3,119e <ssd1306_gram_write_string+0xa4>
    1134:	8432                	mv	s0,a2
c:\Users\Paul Scalise\CH592F_SSD1306\obj/../User/driver_ssd1306.c:694 (discriminator 1)
    1136:	03f00613          	li	a2,63
    113a:	06866263          	bltu	a2,s0,119e <ssd1306_gram_write_string+0xa4>
c:\Users\Paul Scalise\CH592F_SSD1306\obj/../User/driver_ssd1306.c:703
        return 4;                                                            /* return error */
    }
    
    while ((len != 0) && (*str <= '~') && (*str >= ' '))                     /* write all string */
    {       
        if (x > (127 - (font / 2)))                                          /* check x point */
    113e:	00185593          	srli	a1,a6,0x1
    1142:	07f00693          	li	a3,127
    1146:	8e8d                	sub	a3,a3,a1
c:\Users\Paul Scalise\CH592F_SSD1306\obj/../User/driver_ssd1306.c:712
        }
        if (y > (63 - font))                                                 /* check y pont */
        {
            y = x = 0;                                                       /* reset to 0,0 */
        }
        if (a_ssd1306_gram_show_char(handle, x, y, *str, font, color) != 0)  /* show a char */
    1148:	0ff87a13          	andi	s4,a6,255
c:\Users\Paul Scalise\CH592F_SSD1306\obj/../User/driver_ssd1306.c:703
        if (x > (127 - (font / 2)))                                          /* check x point */
    114c:	c236                	sw	a3,4(sp)
a_ssd1306_gram_show_char():
c:\Users\Paul Scalise\CH592F_SSD1306\obj/../User/driver_ssd1306.c:272
    uint8_t csize = (size / 8 + ((size % 8) ? 1 : 0)) * (size / 2);                 /* get size */
    114e:	007a7693          	andi	a3,s4,7
    1152:	003a5513          	srli	a0,s4,0x3
    1156:	00d036b3          	snez	a3,a3
    115a:	96aa                	add	a3,a3,a0
    115c:	001a5513          	srli	a0,s4,0x1
    1160:	02a686b3          	mul	a3,a3,a0
ssd1306_gram_write_string():
c:\Users\Paul Scalise\CH592F_SSD1306\obj/../User/driver_ssd1306.c:708
        if (y > (63 - font))                                                 /* check y pont */
    1164:	41060633          	sub	a2,a2,a6
    1168:	ca32                	sw	a2,20(sp)
    116a:	00004617          	auipc	a2,0x4
    116e:	c6660613          	addi	a2,a2,-922 # 4dd0 <gsc_ssd1306_ascii_2412>
c:\Users\Paul Scalise\CH592F_SSD1306\obj/../User/driver_ssd1306.c:716
        {
            return 1;                                                        /* return error */
        }
        x += (uint8_t)(font / 2);                                            /* x + font/2 */
    1172:	0ff5f593          	andi	a1,a1,255
    1176:	c42e                	sw	a1,8(sp)
a_ssd1306_gram_show_char():
c:\Users\Paul Scalise\CH592F_SSD1306\obj/../User/driver_ssd1306.c:272
    uint8_t csize = (size / 8 + ((size % 8) ? 1 : 0)) * (size / 2);                 /* get size */
    1178:	0ff6f693          	andi	a3,a3,255
    117c:	96b2                	add	a3,a3,a2
    117e:	cc36                	sw	a3,24(sp)
c:\Users\Paul Scalise\CH592F_SSD1306\obj/../User/driver_ssd1306.c:304
                if (a_ssd1306_gram_draw_point(handle, x, y, !mode) != 0)            /* draw point */
    1180:	0017b693          	seqz	a3,a5
    1184:	ce36                	sw	a3,28(sp)
ssd1306_gram_write_string():
c:\Users\Paul Scalise\CH592F_SSD1306\obj/../User/driver_ssd1306.c:701
    while ((len != 0) && (*str <= '~') && (*str >= ' '))                     /* write all string */
    1186:	cb11                	beqz	a4,119a <ssd1306_gram_write_string+0xa0>
c:\Users\Paul Scalise\CH592F_SSD1306\obj/../User/driver_ssd1306.c:701 (discriminator 1)
    1188:	000bcf03          	lbu	t5,0(s7) # 1000 <ssd1306_gram_update+0x8>
    118c:	05e00693          	li	a3,94
    1190:	1f01                	addi	t5,t5,-32
    1192:	0fff7f13          	andi	t5,t5,255
    1196:	03e6fc63          	bgeu	a3,t5,11ce <ssd1306_gram_write_string+0xd4>
c:\Users\Paul Scalise\CH592F_SSD1306\obj/../User/driver_ssd1306.c:721
        str++;                                                               /* str address++ */
        len--;                                                               /* str length-- */
    }
    
    return 0;                                                                /* success return 0 */
    119a:	4981                	li	s3,0
    119c:	a809                	j	11ae <ssd1306_gram_write_string+0xb4>
c:\Users\Paul Scalise\CH592F_SSD1306\obj/../User/driver_ssd1306.c:696
        handle->debug_print("ssd1306: x or y is invalid.\n");                /* x or y is invalid */
    119e:	030c2783          	lw	a5,48(s8)
    11a2:	00005517          	auipc	a0,0x5
    11a6:	ffa50513          	addi	a0,a0,-6 # 619c <gsc_ssd1306_ascii_2412+0x13cc>
c:\Users\Paul Scalise\CH592F_SSD1306\obj/../User/driver_ssd1306.c:698
        return 4;                                                            /* return error */
    11aa:	4991                	li	s3,4
c:\Users\Paul Scalise\CH592F_SSD1306\obj/../User/driver_ssd1306.c:696
        handle->debug_print("ssd1306: x or y is invalid.\n");                /* x or y is invalid */
    11ac:	9782                	jalr	a5
c:\Users\Paul Scalise\CH592F_SSD1306\obj/../User/driver_ssd1306.c:722
}
    11ae:	50b6                	lw	ra,108(sp)
    11b0:	5426                	lw	s0,104(sp)
    11b2:	854e                	mv	a0,s3
    11b4:	5496                	lw	s1,100(sp)
    11b6:	5906                	lw	s2,96(sp)
    11b8:	49f6                	lw	s3,92(sp)
    11ba:	4a66                	lw	s4,88(sp)
    11bc:	4ad6                	lw	s5,84(sp)
    11be:	4b46                	lw	s6,80(sp)
    11c0:	4bb6                	lw	s7,76(sp)
    11c2:	4c26                	lw	s8,72(sp)
    11c4:	4c96                	lw	s9,68(sp)
    11c6:	4d06                	lw	s10,64(sp)
    11c8:	5df2                	lw	s11,60(sp)
    11ca:	6165                	addi	sp,sp,112
    11cc:	8082                	ret
c:\Users\Paul Scalise\CH592F_SSD1306\obj/../User/driver_ssd1306.c:703
        if (x > (127 - (font / 2)))                                          /* check x point */
    11ce:	4692                	lw	a3,4(sp)
    11d0:	0126f663          	bgeu	a3,s2,11dc <ssd1306_gram_write_string+0xe2>
c:\Users\Paul Scalise\CH592F_SSD1306\obj/../User/driver_ssd1306.c:706
            y += (uint8_t)font;                                              /* set next row */
    11d4:	9452                	add	s0,s0,s4
    11d6:	0ff47413          	andi	s0,s0,255
c:\Users\Paul Scalise\CH592F_SSD1306\obj/../User/driver_ssd1306.c:705
            x = 0;                                                           /* set x */
    11da:	4901                	li	s2,0
c:\Users\Paul Scalise\CH592F_SSD1306\obj/../User/driver_ssd1306.c:708
        if (y > (63 - font))                                                 /* check y pont */
    11dc:	46d2                	lw	a3,20(sp)
    11de:	0086f463          	bgeu	a3,s0,11e6 <ssd1306_gram_write_string+0xec>
c:\Users\Paul Scalise\CH592F_SSD1306\obj/../User/driver_ssd1306.c:710
            y = x = 0;                                                       /* reset to 0,0 */
    11e2:	4401                	li	s0,0
    11e4:	4901                	li	s2,0
a_ssd1306_gram_show_char():
c:\Users\Paul Scalise\CH592F_SSD1306\obj/../User/driver_ssd1306.c:275
    for (t = 0; t < csize; t++)                                                     /* write size */
    11e6:	02400a93          	li	s5,36
    11ea:	035f0ab3          	mul	s5,t5,s5
    11ee:	00004697          	auipc	a3,0x4
    11f2:	be268693          	addi	a3,a3,-1054 # 4dd0 <gsc_ssd1306_ascii_2412>
    11f6:	4eb1                	li	t4,12
c:\Users\Paul Scalise\CH592F_SSD1306\obj/../User/driver_ssd1306.c:313
                y = y0;                                                             /* set y */
    11f8:	84a2                	mv	s1,s0
    11fa:	8d4a                	mv	s10,s2
    11fc:	00da8cb3          	add	s9,s5,a3
    1200:	03df06b3          	mul	a3,t5,t4
    1204:	00003e97          	auipc	t4,0x3
    1208:	168e8e93          	addi	t4,t4,360 # 436c <gsc_ssd1306_ascii_1206>
    120c:	0f12                	slli	t5,t5,0x4
    120e:	00de8db3          	add	s11,t4,a3
    1212:	00003697          	auipc	a3,0x3
    1216:	5ce68693          	addi	a3,a3,1486 # 47e0 <gsc_ssd1306_ascii_1608>
    121a:	01e68b33          	add	s6,a3,t5
    121e:	46e2                	lw	a3,24(sp)
    1220:	96d6                	add	a3,a3,s5
    1222:	c636                	sw	a3,12(sp)
c:\Users\Paul Scalise\CH592F_SSD1306\obj/../User/driver_ssd1306.c:311
            if ((y - y0) == size)                                                   /* reset size */
    1224:	0ff87693          	andi	a3,a6,255
    1228:	c836                	sw	a3,16(sp)
c:\Users\Paul Scalise\CH592F_SSD1306\obj/../User/driver_ssd1306.c:275
    for (t = 0; t < csize; t++)                                                     /* write size */
    122a:	46b2                	lw	a3,12(sp)
    122c:	00dc9b63          	bne	s9,a3,1242 <ssd1306_gram_write_string+0x148>
ssd1306_gram_write_string():
c:\Users\Paul Scalise\CH592F_SSD1306\obj/../User/driver_ssd1306.c:716
        x += (uint8_t)(font / 2);                                            /* x + font/2 */
    1230:	46a2                	lw	a3,8(sp)
c:\Users\Paul Scalise\CH592F_SSD1306\obj/../User/driver_ssd1306.c:718
        len--;                                                               /* str length-- */
    1232:	177d                	addi	a4,a4,-1
    1234:	0742                	slli	a4,a4,0x10
c:\Users\Paul Scalise\CH592F_SSD1306\obj/../User/driver_ssd1306.c:716
        x += (uint8_t)(font / 2);                                            /* x + font/2 */
    1236:	9936                	add	s2,s2,a3
    1238:	0ff97913          	andi	s2,s2,255
c:\Users\Paul Scalise\CH592F_SSD1306\obj/../User/driver_ssd1306.c:717
        str++;                                                               /* str address++ */
    123c:	0b85                	addi	s7,s7,1
c:\Users\Paul Scalise\CH592F_SSD1306\obj/../User/driver_ssd1306.c:718
        len--;                                                               /* str length-- */
    123e:	8341                	srli	a4,a4,0x10
    1240:	b799                	j	1186 <ssd1306_gram_write_string+0x8c>
a_ssd1306_gram_show_char():
c:\Users\Paul Scalise\CH592F_SSD1306\obj/../User/driver_ssd1306.c:277
        if (size == 12)                                                             /* if size 12 */
    1242:	46b1                	li	a3,12
    1244:	06da1063          	bne	s4,a3,12a4 <ssd1306_gram_write_string+0x1aa>
c:\Users\Paul Scalise\CH592F_SSD1306\obj/../User/driver_ssd1306.c:279
            temp = gsc_ssd1306_ascii_1206[chr][t];                                  /* get ascii 1206 */
    1248:	000dc883          	lbu	a7,0(s11)
    124c:	00848293          	addi	t0,s1,8
    1250:	0ff2fa93          	andi	s5,t0,255
c:\Users\Paul Scalise\CH592F_SSD1306\obj/../User/driver_ssd1306.c:295
            if ((temp & 0x80) != 0)                                                 /* if 1 */
    1254:	01889693          	slli	a3,a7,0x18
    1258:	86e1                	srai	a3,a3,0x18
    125a:	d642                	sw	a6,44(sp)
    125c:	0606d063          	bgez	a3,12bc <ssd1306_gram_write_string+0x1c2>
c:\Users\Paul Scalise\CH592F_SSD1306\obj/../User/driver_ssd1306.c:297
                if (a_ssd1306_gram_draw_point(handle, x, y, mode) != 0)             /* draw point */
    1260:	86be                	mv	a3,a5
    1262:	8626                	mv	a2,s1
    1264:	85ea                	mv	a1,s10
    1266:	8562                	mv	a0,s8
    1268:	d43a                	sw	a4,40(sp)
    126a:	d246                	sw	a7,36(sp)
    126c:	d03e                	sw	a5,32(sp)
    126e:	398d                	jal	ee0 <a_ssd1306_gram_draw_point>
    1270:	5782                	lw	a5,32(sp)
    1272:	5892                	lw	a7,36(sp)
    1274:	5722                	lw	a4,40(sp)
    1276:	5832                	lw	a6,44(sp)
    1278:	f91d                	bnez	a0,11ae <ssd1306_gram_write_string+0xb4>
c:\Users\Paul Scalise\CH592F_SSD1306\obj/../User/driver_ssd1306.c:310
            y++;
    127a:	0485                	addi	s1,s1,1
c:\Users\Paul Scalise\CH592F_SSD1306\obj/../User/driver_ssd1306.c:311
            if ((y - y0) == size)                                                   /* reset size */
    127c:	4642                	lw	a2,16(sp)
c:\Users\Paul Scalise\CH592F_SSD1306\obj/../User/driver_ssd1306.c:310
            y++;
    127e:	0ff4f493          	andi	s1,s1,255
c:\Users\Paul Scalise\CH592F_SSD1306\obj/../User/driver_ssd1306.c:309
            temp <<= 1;                                                             /* left shift 1 */
    1282:	0886                	slli	a7,a7,0x1
c:\Users\Paul Scalise\CH592F_SSD1306\obj/../User/driver_ssd1306.c:311
            if ((y - y0) == size)                                                   /* reset size */
    1284:	408486b3          	sub	a3,s1,s0
c:\Users\Paul Scalise\CH592F_SSD1306\obj/../User/driver_ssd1306.c:309
            temp <<= 1;                                                             /* left shift 1 */
    1288:	0ff8f893          	andi	a7,a7,255
c:\Users\Paul Scalise\CH592F_SSD1306\obj/../User/driver_ssd1306.c:311
            if ((y - y0) == size)                                                   /* reset size */
    128c:	04c69463          	bne	a3,a2,12d4 <ssd1306_gram_write_string+0x1da>
c:\Users\Paul Scalise\CH592F_SSD1306\obj/../User/driver_ssd1306.c:314
                x++;                                                                /* x++ */
    1290:	001d0313          	addi	t1,s10,1
    1294:	0ff37d13          	andi	s10,t1,255
c:\Users\Paul Scalise\CH592F_SSD1306\obj/../User/driver_ssd1306.c:313
                y = y0;                                                             /* set y */
    1298:	8aa2                	mv	s5,s0
    129a:	0c85                	addi	s9,s9,1
    129c:	0d85                	addi	s11,s11,1
    129e:	0b05                	addi	s6,s6,1
    12a0:	84d6                	mv	s1,s5
    12a2:	b761                	j	122a <ssd1306_gram_write_string+0x130>
c:\Users\Paul Scalise\CH592F_SSD1306\obj/../User/driver_ssd1306.c:281
        else if (size == 16)                                                        /* if size 16 */
    12a4:	46c1                	li	a3,16
    12a6:	00da1563          	bne	s4,a3,12b0 <ssd1306_gram_write_string+0x1b6>
c:\Users\Paul Scalise\CH592F_SSD1306\obj/../User/driver_ssd1306.c:283
            temp = gsc_ssd1306_ascii_1608[chr][t];                                  /* get ascii 1608 */
    12aa:	000b4883          	lbu	a7,0(s6) # 10000 <_data_lma+0x93b0>
    12ae:	bf79                	j	124c <ssd1306_gram_write_string+0x152>
c:\Users\Paul Scalise\CH592F_SSD1306\obj/../User/driver_ssd1306.c:285
        else if(size == 24)                                                         /* if size 24 */
    12b0:	46e1                	li	a3,24
    12b2:	eeda1ee3          	bne	s4,a3,11ae <ssd1306_gram_write_string+0xb4>
c:\Users\Paul Scalise\CH592F_SSD1306\obj/../User/driver_ssd1306.c:287
            temp = gsc_ssd1306_ascii_2412[chr][t];                                  /* get ascii 2412 */
    12b6:	000cc883          	lbu	a7,0(s9)
    12ba:	bf49                	j	124c <ssd1306_gram_write_string+0x152>
c:\Users\Paul Scalise\CH592F_SSD1306\obj/../User/driver_ssd1306.c:304
                if (a_ssd1306_gram_draw_point(handle, x, y, !mode) != 0)            /* draw point */
    12bc:	46f2                	lw	a3,28(sp)
    12be:	8626                	mv	a2,s1
    12c0:	85ea                	mv	a1,s10
    12c2:	8562                	mv	a0,s8
    12c4:	d43e                	sw	a5,40(sp)
    12c6:	d23a                	sw	a4,36(sp)
    12c8:	d046                	sw	a7,32(sp)
    12ca:	3919                	jal	ee0 <a_ssd1306_gram_draw_point>
    12cc:	5882                	lw	a7,32(sp)
    12ce:	5712                	lw	a4,36(sp)
    12d0:	57a2                	lw	a5,40(sp)
    12d2:	b755                	j	1276 <ssd1306_gram_write_string+0x17c>
c:\Users\Paul Scalise\CH592F_SSD1306\obj/../User/driver_ssd1306.c:293
        for (t1 = 0; t1 < 8; t1++)                                                  /* write one line */
    12d4:	f89a90e3          	bne	s5,s1,1254 <ssd1306_gram_write_string+0x15a>
    12d8:	b7c9                	j	129a <ssd1306_gram_write_string+0x1a0>
ssd1306_gram_write_string():
c:\Users\Paul Scalise\CH592F_SSD1306\obj/../User/driver_ssd1306.c:692
        return 3;                                                            /* return error */
    12da:	498d                	li	s3,3
    12dc:	bdc9                	j	11ae <ssd1306_gram_write_string+0xb4>

000012de <ssd1306_gram_fill_rect>:
ssd1306_gram_fill_rect():
c:\Users\Paul Scalise\CH592F_SSD1306\obj/../User/driver_ssd1306.c:743
 *            - 5 right or bottom is invalid
 *            - 6 left > right or top > bottom
 * @note      none
 */
uint8_t ssd1306_gram_fill_rect(ssd1306_handle_t *handle, uint8_t left, uint8_t top, uint8_t right, uint8_t bottom, uint8_t color)
{
    12de:	7179                	addi	sp,sp,-48
    12e0:	d422                	sw	s0,40(sp)
    12e2:	d606                	sw	ra,44(sp)
    12e4:	d226                	sw	s1,36(sp)
    12e6:	d04a                	sw	s2,32(sp)
    12e8:	ce4e                	sw	s3,28(sp)
    12ea:	cc52                	sw	s4,24(sp)
    12ec:	ca56                	sw	s5,20(sp)
c:\Users\Paul Scalise\CH592F_SSD1306\obj/../User/driver_ssd1306.c:748
    uint8_t x, y;  
    
    if (handle == NULL)                                                         /* check handle */
    {
        return 2;                                                               /* return error */
    12ee:	4409                	li	s0,2
c:\Users\Paul Scalise\CH592F_SSD1306\obj/../User/driver_ssd1306.c:746
    if (handle == NULL)                                                         /* check handle */
    12f0:	c91d                	beqz	a0,1326 <ssd1306_gram_fill_rect+0x48>
c:\Users\Paul Scalise\CH592F_SSD1306\obj/../User/driver_ssd1306.c:750
    }
    if (handle->inited != 1)                                                    /* check handle initialization */
    12f2:	03854403          	lbu	s0,56(a0)
    12f6:	8ab6                	mv	s5,a3
    12f8:	4685                	li	a3,1
    12fa:	892a                	mv	s2,a0
    12fc:	0ad41463          	bne	s0,a3,13a4 <ssd1306_gram_fill_rect+0xc6>
c:\Users\Paul Scalise\CH592F_SSD1306\obj/../User/driver_ssd1306.c:754
    {
        return 3;                                                               /* return error */
    }
    if ((left > 127) || (top > 63))                                             /* check left top */
    1300:	01859693          	slli	a3,a1,0x18
    1304:	86e1                	srai	a3,a3,0x18
    1306:	84ae                	mv	s1,a1
    1308:	0006c763          	bltz	a3,1316 <ssd1306_gram_fill_rect+0x38>
c:\Users\Paul Scalise\CH592F_SSD1306\obj/../User/driver_ssd1306.c:754 (discriminator 1)
    130c:	03f00693          	li	a3,63
    1310:	8a32                	mv	s4,a2
    1312:	02c6f463          	bgeu	a3,a2,133a <ssd1306_gram_fill_rect+0x5c>
c:\Users\Paul Scalise\CH592F_SSD1306\obj/../User/driver_ssd1306.c:756
    {
        handle->debug_print("ssd1306: left or top is invalid.\n");              /* left or top is invalid */
    1316:	03092783          	lw	a5,48(s2)
    131a:	00005517          	auipc	a0,0x5
    131e:	8e250513          	addi	a0,a0,-1822 # 5bfc <gsc_ssd1306_ascii_2412+0xe2c>
c:\Users\Paul Scalise\CH592F_SSD1306\obj/../User/driver_ssd1306.c:758
        
        return 4;                                                               /* return error */
    1322:	4411                	li	s0,4
c:\Users\Paul Scalise\CH592F_SSD1306\obj/../User/driver_ssd1306.c:756
        handle->debug_print("ssd1306: left or top is invalid.\n");              /* left or top is invalid */
    1324:	9782                	jalr	a5
c:\Users\Paul Scalise\CH592F_SSD1306\obj/../User/driver_ssd1306.c:785
            }
        }
    }
    
    return 0;                                                                   /* return error */
}
    1326:	8522                	mv	a0,s0
    1328:	50b2                	lw	ra,44(sp)
    132a:	5422                	lw	s0,40(sp)
    132c:	5492                	lw	s1,36(sp)
    132e:	5902                	lw	s2,32(sp)
    1330:	49f2                	lw	s3,28(sp)
    1332:	4a62                	lw	s4,24(sp)
    1334:	4ad2                	lw	s5,20(sp)
    1336:	6145                	addi	sp,sp,48
    1338:	8082                	ret
c:\Users\Paul Scalise\CH592F_SSD1306\obj/../User/driver_ssd1306.c:760
    if ((right > 127) || (bottom > 63))                                         /* check right bottom */
    133a:	018a9613          	slli	a2,s5,0x18
    133e:	8661                	srai	a2,a2,0x18
    1340:	00064463          	bltz	a2,1348 <ssd1306_gram_fill_rect+0x6a>
c:\Users\Paul Scalise\CH592F_SSD1306\obj/../User/driver_ssd1306.c:760 (discriminator 1)
    1344:	00e6fb63          	bgeu	a3,a4,135a <ssd1306_gram_fill_rect+0x7c>
c:\Users\Paul Scalise\CH592F_SSD1306\obj/../User/driver_ssd1306.c:762
        handle->debug_print("ssd1306: right or bottom is invalid.\n");          /* right or bottom is invalid */
    1348:	03092783          	lw	a5,48(s2)
    134c:	00005517          	auipc	a0,0x5
    1350:	8d450513          	addi	a0,a0,-1836 # 5c20 <gsc_ssd1306_ascii_2412+0xe50>
c:\Users\Paul Scalise\CH592F_SSD1306\obj/../User/driver_ssd1306.c:764
        return 5;                                                               /* return error */
    1354:	4415                	li	s0,5
c:\Users\Paul Scalise\CH592F_SSD1306\obj/../User/driver_ssd1306.c:762
        handle->debug_print("ssd1306: right or bottom is invalid.\n");          /* right or bottom is invalid */
    1356:	9782                	jalr	a5
c:\Users\Paul Scalise\CH592F_SSD1306\obj/../User/driver_ssd1306.c:764
        return 5;                                                               /* return error */
    1358:	b7f9                	j	1326 <ssd1306_gram_fill_rect+0x48>
c:\Users\Paul Scalise\CH592F_SSD1306\obj/../User/driver_ssd1306.c:766
    if ((left > right) || (top > bottom))                                       /* check left right top bottom */
    135a:	00bae463          	bltu	s5,a1,1362 <ssd1306_gram_fill_rect+0x84>
c:\Users\Paul Scalise\CH592F_SSD1306\obj/../User/driver_ssd1306.c:766 (discriminator 1)
    135e:	05477563          	bgeu	a4,s4,13a8 <ssd1306_gram_fill_rect+0xca>
c:\Users\Paul Scalise\CH592F_SSD1306\obj/../User/driver_ssd1306.c:768
        handle->debug_print("ssd1306: left > right or top > bottom.\n");        /* left > right or top > bottom */
    1362:	03092783          	lw	a5,48(s2)
    1366:	00005517          	auipc	a0,0x5
    136a:	8e250513          	addi	a0,a0,-1822 # 5c48 <gsc_ssd1306_ascii_2412+0xe78>
c:\Users\Paul Scalise\CH592F_SSD1306\obj/../User/driver_ssd1306.c:770
        return 6;                                                               /* return error */
    136e:	4419                	li	s0,6
c:\Users\Paul Scalise\CH592F_SSD1306\obj/../User/driver_ssd1306.c:768
        handle->debug_print("ssd1306: left > right or top > bottom.\n");        /* left > right or top > bottom */
    1370:	9782                	jalr	a5
c:\Users\Paul Scalise\CH592F_SSD1306\obj/../User/driver_ssd1306.c:770
        return 6;                                                               /* return error */
    1372:	bf55                	j	1326 <ssd1306_gram_fill_rect+0x48>
    1374:	89b6                	mv	s3,a3
c:\Users\Paul Scalise\CH592F_SSD1306\obj/../User/driver_ssd1306.c:777
            if (a_ssd1306_gram_draw_point(handle, x, y, color) != 0)            /* draw point */
    1376:	86be                	mv	a3,a5
    1378:	864e                	mv	a2,s3
    137a:	85a6                	mv	a1,s1
    137c:	854a                	mv	a0,s2
    137e:	c63a                	sw	a4,12(sp)
    1380:	c43e                	sw	a5,8(sp)
    1382:	3eb9                	jal	ee0 <a_ssd1306_gram_draw_point>
    1384:	f14d                	bnez	a0,1326 <ssd1306_gram_fill_rect+0x48>
c:\Users\Paul Scalise\CH592F_SSD1306\obj/../User/driver_ssd1306.c:775 (discriminator 2)
        for (y = top; y <= bottom; y++)                                         /* write y */
    1386:	4732                	lw	a4,12(sp)
    1388:	00198693          	addi	a3,s3,1
    138c:	0ff6f693          	andi	a3,a3,255
    1390:	47a2                	lw	a5,8(sp)
    1392:	ff3711e3          	bne	a4,s3,1374 <ssd1306_gram_fill_rect+0x96>
c:\Users\Paul Scalise\CH592F_SSD1306\obj/../User/driver_ssd1306.c:773 (discriminator 2)
    for (x = left; x <= right; x++)                                             /* write x */
    1396:	0485                	addi	s1,s1,1
    1398:	0ff4f493          	andi	s1,s1,255
    139c:	009af663          	bgeu	s5,s1,13a8 <ssd1306_gram_fill_rect+0xca>
c:\Users\Paul Scalise\CH592F_SSD1306\obj/../User/driver_ssd1306.c:784
    return 0;                                                                   /* return error */
    13a0:	4401                	li	s0,0
    13a2:	b751                	j	1326 <ssd1306_gram_fill_rect+0x48>
c:\Users\Paul Scalise\CH592F_SSD1306\obj/../User/driver_ssd1306.c:752
        return 3;                                                               /* return error */
    13a4:	440d                	li	s0,3
    13a6:	b741                	j	1326 <ssd1306_gram_fill_rect+0x48>
c:\Users\Paul Scalise\CH592F_SSD1306\obj/../User/driver_ssd1306.c:743
{
    13a8:	89d2                	mv	s3,s4
    13aa:	b7f1                	j	1376 <ssd1306_gram_fill_rect+0x98>

000013ac <ssd1306_gram_draw_picture>:
ssd1306_gram_draw_picture():
c:\Users\Paul Scalise\CH592F_SSD1306\obj/../User/driver_ssd1306.c:806
 *            - 5 right or bottom is invalid
 *            - 6 left > right or top > bottom
 * @note      none
 */
uint8_t ssd1306_gram_draw_picture(ssd1306_handle_t *handle, uint8_t left, uint8_t top, uint8_t right, uint8_t bottom, uint8_t *img)
{    
    13ac:	7179                	addi	sp,sp,-48
    13ae:	d422                	sw	s0,40(sp)
    13b0:	d606                	sw	ra,44(sp)
    13b2:	d226                	sw	s1,36(sp)
    13b4:	d04a                	sw	s2,32(sp)
    13b6:	ce4e                	sw	s3,28(sp)
    13b8:	cc52                	sw	s4,24(sp)
    13ba:	ca56                	sw	s5,20(sp)
c:\Users\Paul Scalise\CH592F_SSD1306\obj/../User/driver_ssd1306.c:811
    uint8_t x, y;  
    
    if (handle == NULL)                                                         /* check handle */
    {
        return 2;                                                               /* return error */
    13bc:	4409                	li	s0,2
c:\Users\Paul Scalise\CH592F_SSD1306\obj/../User/driver_ssd1306.c:809
    if (handle == NULL)                                                         /* check handle */
    13be:	c91d                	beqz	a0,13f4 <ssd1306_gram_draw_picture+0x48>
c:\Users\Paul Scalise\CH592F_SSD1306\obj/../User/driver_ssd1306.c:813
    }
    if (handle->inited != 1)                                                    /* check handle initialization */
    13c0:	03854403          	lbu	s0,56(a0)
    13c4:	8ab6                	mv	s5,a3
    13c6:	4685                	li	a3,1
    13c8:	892a                	mv	s2,a0
    13ca:	0ad41663          	bne	s0,a3,1476 <ssd1306_gram_draw_picture+0xca>
c:\Users\Paul Scalise\CH592F_SSD1306\obj/../User/driver_ssd1306.c:817
    {
        return 3;                                                               /* return error */
    }
    if ((left > 127) || (top > 63))                                             /* check left top */
    13ce:	01859693          	slli	a3,a1,0x18
    13d2:	86e1                	srai	a3,a3,0x18
    13d4:	84ae                	mv	s1,a1
    13d6:	0006c763          	bltz	a3,13e4 <ssd1306_gram_draw_picture+0x38>
c:\Users\Paul Scalise\CH592F_SSD1306\obj/../User/driver_ssd1306.c:817 (discriminator 1)
    13da:	03f00693          	li	a3,63
    13de:	8a32                	mv	s4,a2
    13e0:	02c6f463          	bgeu	a3,a2,1408 <ssd1306_gram_draw_picture+0x5c>
c:\Users\Paul Scalise\CH592F_SSD1306\obj/../User/driver_ssd1306.c:819
    {
        handle->debug_print("ssd1306: left or top is invalid.\n");              /* left or top is invalid */
    13e4:	03092783          	lw	a5,48(s2)
    13e8:	00005517          	auipc	a0,0x5
    13ec:	81450513          	addi	a0,a0,-2028 # 5bfc <gsc_ssd1306_ascii_2412+0xe2c>
c:\Users\Paul Scalise\CH592F_SSD1306\obj/../User/driver_ssd1306.c:821
        
        return 4;                                                               /* return error */
    13f0:	4411                	li	s0,4
c:\Users\Paul Scalise\CH592F_SSD1306\obj/../User/driver_ssd1306.c:819
        handle->debug_print("ssd1306: left or top is invalid.\n");              /* left or top is invalid */
    13f2:	9782                	jalr	a5
c:\Users\Paul Scalise\CH592F_SSD1306\obj/../User/driver_ssd1306.c:849
            img++;                                                              /* img++ */
        }
    }
    
    return 0;                                                                   /* succeed return 0 */
}
    13f4:	8522                	mv	a0,s0
    13f6:	50b2                	lw	ra,44(sp)
    13f8:	5422                	lw	s0,40(sp)
    13fa:	5492                	lw	s1,36(sp)
    13fc:	5902                	lw	s2,32(sp)
    13fe:	49f2                	lw	s3,28(sp)
    1400:	4a62                	lw	s4,24(sp)
    1402:	4ad2                	lw	s5,20(sp)
    1404:	6145                	addi	sp,sp,48
    1406:	8082                	ret
c:\Users\Paul Scalise\CH592F_SSD1306\obj/../User/driver_ssd1306.c:823
    if ((right > 127) || (bottom > 63))                                         /* check right bottom */
    1408:	018a9613          	slli	a2,s5,0x18
    140c:	8661                	srai	a2,a2,0x18
    140e:	00064463          	bltz	a2,1416 <ssd1306_gram_draw_picture+0x6a>
c:\Users\Paul Scalise\CH592F_SSD1306\obj/../User/driver_ssd1306.c:823 (discriminator 1)
    1412:	00e6fb63          	bgeu	a3,a4,1428 <ssd1306_gram_draw_picture+0x7c>
c:\Users\Paul Scalise\CH592F_SSD1306\obj/../User/driver_ssd1306.c:825
        handle->debug_print("ssd1306: right or bottom is invalid.\n");          /* right or bottom is invalid */
    1416:	03092783          	lw	a5,48(s2)
    141a:	00005517          	auipc	a0,0x5
    141e:	80650513          	addi	a0,a0,-2042 # 5c20 <gsc_ssd1306_ascii_2412+0xe50>
c:\Users\Paul Scalise\CH592F_SSD1306\obj/../User/driver_ssd1306.c:827
        return 5;                                                               /* return error */
    1422:	4415                	li	s0,5
c:\Users\Paul Scalise\CH592F_SSD1306\obj/../User/driver_ssd1306.c:825
        handle->debug_print("ssd1306: right or bottom is invalid.\n");          /* right or bottom is invalid */
    1424:	9782                	jalr	a5
c:\Users\Paul Scalise\CH592F_SSD1306\obj/../User/driver_ssd1306.c:827
        return 5;                                                               /* return error */
    1426:	b7f9                	j	13f4 <ssd1306_gram_draw_picture+0x48>
c:\Users\Paul Scalise\CH592F_SSD1306\obj/../User/driver_ssd1306.c:829
    if ((left > right) || (top > bottom))                                       /* check left right top bottom */
    1428:	00bae463          	bltu	s5,a1,1430 <ssd1306_gram_draw_picture+0x84>
c:\Users\Paul Scalise\CH592F_SSD1306\obj/../User/driver_ssd1306.c:829 (discriminator 1)
    142c:	05477763          	bgeu	a4,s4,147a <ssd1306_gram_draw_picture+0xce>
c:\Users\Paul Scalise\CH592F_SSD1306\obj/../User/driver_ssd1306.c:831
        handle->debug_print("ssd1306: left > right or top > bottom.\n");        /* left > right or top > bottom */
    1430:	03092783          	lw	a5,48(s2)
    1434:	00005517          	auipc	a0,0x5
    1438:	81450513          	addi	a0,a0,-2028 # 5c48 <gsc_ssd1306_ascii_2412+0xe78>
c:\Users\Paul Scalise\CH592F_SSD1306\obj/../User/driver_ssd1306.c:833
        return 6;                                                               /* return error */
    143c:	4419                	li	s0,6
c:\Users\Paul Scalise\CH592F_SSD1306\obj/../User/driver_ssd1306.c:831
        handle->debug_print("ssd1306: left > right or top > bottom.\n");        /* left > right or top > bottom */
    143e:	9782                	jalr	a5
c:\Users\Paul Scalise\CH592F_SSD1306\obj/../User/driver_ssd1306.c:833
        return 6;                                                               /* return error */
    1440:	bf55                	j	13f4 <ssd1306_gram_draw_picture+0x48>
    1442:	89b6                	mv	s3,a3
c:\Users\Paul Scalise\CH592F_SSD1306\obj/../User/driver_ssd1306.c:840
            if (a_ssd1306_gram_draw_point(handle, x, y, *img) != 0)             /* draw point */
    1444:	0007c683          	lbu	a3,0(a5)
    1448:	864e                	mv	a2,s3
    144a:	85a6                	mv	a1,s1
    144c:	854a                	mv	a0,s2
    144e:	c63a                	sw	a4,12(sp)
    1450:	c43e                	sw	a5,8(sp)
    1452:	3479                	jal	ee0 <a_ssd1306_gram_draw_point>
    1454:	f145                	bnez	a0,13f4 <ssd1306_gram_draw_picture+0x48>
c:\Users\Paul Scalise\CH592F_SSD1306\obj/../User/driver_ssd1306.c:844 (discriminator 2)
            img++;                                                              /* img++ */
    1456:	47a2                	lw	a5,8(sp)
c:\Users\Paul Scalise\CH592F_SSD1306\obj/../User/driver_ssd1306.c:838 (discriminator 2)
        for (y = top; y <= bottom; y++)                                         /* write y */
    1458:	4732                	lw	a4,12(sp)
    145a:	00198693          	addi	a3,s3,1
c:\Users\Paul Scalise\CH592F_SSD1306\obj/../User/driver_ssd1306.c:844 (discriminator 2)
            img++;                                                              /* img++ */
    145e:	0785                	addi	a5,a5,1
c:\Users\Paul Scalise\CH592F_SSD1306\obj/../User/driver_ssd1306.c:838 (discriminator 2)
        for (y = top; y <= bottom; y++)                                         /* write y */
    1460:	0ff6f693          	andi	a3,a3,255
    1464:	fd371fe3          	bne	a4,s3,1442 <ssd1306_gram_draw_picture+0x96>
c:\Users\Paul Scalise\CH592F_SSD1306\obj/../User/driver_ssd1306.c:836 (discriminator 2)
    for (x = left; x <= right; x++)                                             /* write x */
    1468:	0485                	addi	s1,s1,1
    146a:	0ff4f493          	andi	s1,s1,255
    146e:	009af663          	bgeu	s5,s1,147a <ssd1306_gram_draw_picture+0xce>
c:\Users\Paul Scalise\CH592F_SSD1306\obj/../User/driver_ssd1306.c:848
    return 0;                                                                   /* succeed return 0 */
    1472:	4401                	li	s0,0
    1474:	b741                	j	13f4 <ssd1306_gram_draw_picture+0x48>
c:\Users\Paul Scalise\CH592F_SSD1306\obj/../User/driver_ssd1306.c:815
        return 3;                                                               /* return error */
    1476:	440d                	li	s0,3
    1478:	bfb5                	j	13f4 <ssd1306_gram_draw_picture+0x48>
c:\Users\Paul Scalise\CH592F_SSD1306\obj/../User/driver_ssd1306.c:806
{    
    147a:	89d2                	mv	s3,s4
    147c:	b7e1                	j	1444 <ssd1306_gram_draw_picture+0x98>

0000147e <ssd1306_init>:
ssd1306_init():
c:\Users\Paul Scalise\CH592F_SSD1306\obj/../User/driver_ssd1306.c:865
 *            - 5 command && data init failed
 *            - 6 interface param is invalid
 * @note      none
 */
uint8_t ssd1306_init(ssd1306_handle_t *handle)
{
    147e:	1141                	addi	sp,sp,-16
    1480:	c226                	sw	s1,4(sp)
    1482:	c606                	sw	ra,12(sp)
    1484:	c422                	sw	s0,8(sp)
c:\Users\Paul Scalise\CH592F_SSD1306\obj/../User/driver_ssd1306.c:868
    if (handle == NULL)                                                             /* check handle */
    {
        return 2;                                                                   /* return error */
    1486:	4489                	li	s1,2
c:\Users\Paul Scalise\CH592F_SSD1306\obj/../User/driver_ssd1306.c:866
    if (handle == NULL)                                                             /* check handle */
    1488:	cd01                	beqz	a0,14a0 <ssd1306_init+0x22>
c:\Users\Paul Scalise\CH592F_SSD1306\obj/../User/driver_ssd1306.c:870
    }
    if (handle->debug_print == NULL)                                                /* check debug_print */
    148a:	591c                	lw	a5,48(a0)
c:\Users\Paul Scalise\CH592F_SSD1306\obj/../User/driver_ssd1306.c:872
    {
        return 3;                                                                   /* return error */
    148c:	448d                	li	s1,3
c:\Users\Paul Scalise\CH592F_SSD1306\obj/../User/driver_ssd1306.c:870
    if (handle->debug_print == NULL)                                                /* check debug_print */
    148e:	cb89                	beqz	a5,14a0 <ssd1306_init+0x22>
c:\Users\Paul Scalise\CH592F_SSD1306\obj/../User/driver_ssd1306.c:874
    }
    if (handle->iic_init == NULL)                                                   /* check iic_init */
    1490:	4118                	lw	a4,0(a0)
    1492:	842a                	mv	s0,a0
    1494:	ef01                	bnez	a4,14ac <ssd1306_init+0x2e>
c:\Users\Paul Scalise\CH592F_SSD1306\obj/../User/driver_ssd1306.c:876
    {
        handle->debug_print("ssd1306: iic_init is null.\n");                        /* iic_init is null */
    1496:	00005517          	auipc	a0,0x5
    149a:	81e50513          	addi	a0,a0,-2018 # 5cb4 <gsc_ssd1306_ascii_2412+0xee4>
    149e:	9782                	jalr	a5
c:\Users\Paul Scalise\CH592F_SSD1306\obj/../User/driver_ssd1306.c:1016
        return 6;                                                                   /* return error */
    }
    handle->inited = 1;                                                             /* flag inited */
    
    return 0;                                                                       /* success return 0 */
}
    14a0:	40b2                	lw	ra,12(sp)
    14a2:	4422                	lw	s0,8(sp)
    14a4:	8526                	mv	a0,s1
    14a6:	4492                	lw	s1,4(sp)
    14a8:	0141                	addi	sp,sp,16
    14aa:	8082                	ret
c:\Users\Paul Scalise\CH592F_SSD1306\obj/../User/driver_ssd1306.c:880
    if (handle->iic_deinit == NULL)                                                 /* check iic_deinit */
    14ac:	4158                	lw	a4,4(a0)
c:\Users\Paul Scalise\CH592F_SSD1306\obj/../User/driver_ssd1306.c:882
        handle->debug_print("ssd1306: iic_deinit is null.\n");                      /* iic_deinit is null */
    14ae:	00005517          	auipc	a0,0x5
    14b2:	82250513          	addi	a0,a0,-2014 # 5cd0 <gsc_ssd1306_ascii_2412+0xf00>
c:\Users\Paul Scalise\CH592F_SSD1306\obj/../User/driver_ssd1306.c:880
    if (handle->iic_deinit == NULL)                                                 /* check iic_deinit */
    14b6:	c719                	beqz	a4,14c4 <ssd1306_init+0x46>
c:\Users\Paul Scalise\CH592F_SSD1306\obj/../User/driver_ssd1306.c:886
    if (handle->iic_write == NULL)                                                  /* check iic_write */
    14b8:	4418                	lw	a4,8(s0)
    14ba:	eb01                	bnez	a4,14ca <ssd1306_init+0x4c>
c:\Users\Paul Scalise\CH592F_SSD1306\obj/../User/driver_ssd1306.c:888
        handle->debug_print("ssd1306: iic_write is null.\n");                       /* iic_write is null */
    14bc:	00005517          	auipc	a0,0x5
    14c0:	83450513          	addi	a0,a0,-1996 # 5cf0 <gsc_ssd1306_ascii_2412+0xf20>
    14c4:	9782                	jalr	a5
c:\Users\Paul Scalise\CH592F_SSD1306\obj/../User/driver_ssd1306.c:890
        return 3;                                                                   /* return error */
    14c6:	448d                	li	s1,3
    14c8:	bfe1                	j	14a0 <ssd1306_init+0x22>
c:\Users\Paul Scalise\CH592F_SSD1306\obj/../User/driver_ssd1306.c:892
    if (handle->spi_init == NULL)                                                   /* check spi_init */
    14ca:	4458                	lw	a4,12(s0)
c:\Users\Paul Scalise\CH592F_SSD1306\obj/../User/driver_ssd1306.c:894
        handle->debug_print("ssd1306: spi_init is null.\n");                        /* spi_init is null */
    14cc:	00005517          	auipc	a0,0x5
    14d0:	84450513          	addi	a0,a0,-1980 # 5d10 <gsc_ssd1306_ascii_2412+0xf40>
c:\Users\Paul Scalise\CH592F_SSD1306\obj/../User/driver_ssd1306.c:892
    if (handle->spi_init == NULL)                                                   /* check spi_init */
    14d4:	db65                	beqz	a4,14c4 <ssd1306_init+0x46>
c:\Users\Paul Scalise\CH592F_SSD1306\obj/../User/driver_ssd1306.c:898
    if (handle->spi_deinit == NULL)                                                 /* check spi_deinit */
    14d6:	4818                	lw	a4,16(s0)
c:\Users\Paul Scalise\CH592F_SSD1306\obj/../User/driver_ssd1306.c:900
        handle->debug_print("ssd1306: spi_deinit is null.\n");                      /* spi_deinit is null */
    14d8:	00005517          	auipc	a0,0x5
    14dc:	85450513          	addi	a0,a0,-1964 # 5d2c <gsc_ssd1306_ascii_2412+0xf5c>
c:\Users\Paul Scalise\CH592F_SSD1306\obj/../User/driver_ssd1306.c:898
    if (handle->spi_deinit == NULL)                                                 /* check spi_deinit */
    14e0:	d375                	beqz	a4,14c4 <ssd1306_init+0x46>
c:\Users\Paul Scalise\CH592F_SSD1306\obj/../User/driver_ssd1306.c:904
    if (handle->spi_write_cmd == NULL)                                              /* check spi_write_cmd */
    14e2:	4858                	lw	a4,20(s0)
c:\Users\Paul Scalise\CH592F_SSD1306\obj/../User/driver_ssd1306.c:906
        handle->debug_print("ssd1306: spi_write_cmd is null.\n");                   /* spi_write_cmd is null */
    14e4:	00005517          	auipc	a0,0x5
    14e8:	86850513          	addi	a0,a0,-1944 # 5d4c <gsc_ssd1306_ascii_2412+0xf7c>
c:\Users\Paul Scalise\CH592F_SSD1306\obj/../User/driver_ssd1306.c:904
    if (handle->spi_write_cmd == NULL)                                              /* check spi_write_cmd */
    14ec:	df61                	beqz	a4,14c4 <ssd1306_init+0x46>
c:\Users\Paul Scalise\CH592F_SSD1306\obj/../User/driver_ssd1306.c:910
    if (handle->delay_ms == NULL)                                                   /* check delay_ms */
    14ee:	5858                	lw	a4,52(s0)
c:\Users\Paul Scalise\CH592F_SSD1306\obj/../User/driver_ssd1306.c:912
        handle->debug_print("ssd1306: delay_ms is null.\n");                        /* delay_ms is null */
    14f0:	00005517          	auipc	a0,0x5
    14f4:	88050513          	addi	a0,a0,-1920 # 5d70 <gsc_ssd1306_ascii_2412+0xfa0>
c:\Users\Paul Scalise\CH592F_SSD1306\obj/../User/driver_ssd1306.c:910
    if (handle->delay_ms == NULL)                                                   /* check delay_ms */
    14f8:	d771                	beqz	a4,14c4 <ssd1306_init+0x46>
c:\Users\Paul Scalise\CH592F_SSD1306\obj/../User/driver_ssd1306.c:916
    if (handle->spi_cmd_data_gpio_init == NULL)                                     /* check spi_cmd_data_gpio_init */
    14fa:	4c18                	lw	a4,24(s0)
c:\Users\Paul Scalise\CH592F_SSD1306\obj/../User/driver_ssd1306.c:918
        handle->debug_print("ssd1306: spi_cmd_data_gpio_init is null.\n");          /* spi_cmd_data_gpio_init is null */
    14fc:	00005517          	auipc	a0,0x5
    1500:	89050513          	addi	a0,a0,-1904 # 5d8c <gsc_ssd1306_ascii_2412+0xfbc>
c:\Users\Paul Scalise\CH592F_SSD1306\obj/../User/driver_ssd1306.c:916
    if (handle->spi_cmd_data_gpio_init == NULL)                                     /* check spi_cmd_data_gpio_init */
    1504:	d361                	beqz	a4,14c4 <ssd1306_init+0x46>
c:\Users\Paul Scalise\CH592F_SSD1306\obj/../User/driver_ssd1306.c:922
    if (handle->spi_cmd_data_gpio_deinit == NULL)                                   /* check spi_cmd_data_gpio_deinit */
    1506:	4c54                	lw	a3,28(s0)
c:\Users\Paul Scalise\CH592F_SSD1306\obj/../User/driver_ssd1306.c:924
        handle->debug_print("ssd1306: spi_cmd_data_gpio_deinit is null.\n");        /* spi_cmd_data_gpio_deinit is null */
    1508:	00005517          	auipc	a0,0x5
    150c:	8b050513          	addi	a0,a0,-1872 # 5db8 <gsc_ssd1306_ascii_2412+0xfe8>
c:\Users\Paul Scalise\CH592F_SSD1306\obj/../User/driver_ssd1306.c:922
    if (handle->spi_cmd_data_gpio_deinit == NULL)                                   /* check spi_cmd_data_gpio_deinit */
    1510:	dad5                	beqz	a3,14c4 <ssd1306_init+0x46>
c:\Users\Paul Scalise\CH592F_SSD1306\obj/../User/driver_ssd1306.c:928
    if (handle->spi_cmd_data_gpio_write == NULL)                                    /* check spi_cmd_data_gpio_write */
    1512:	5014                	lw	a3,32(s0)
c:\Users\Paul Scalise\CH592F_SSD1306\obj/../User/driver_ssd1306.c:930
        handle->debug_print("ssd1306: spi_cmd_data_gpio_write is null.\n");         /* spi_cmd_data_gpio_write is null */
    1514:	00005517          	auipc	a0,0x5
    1518:	8d050513          	addi	a0,a0,-1840 # 5de4 <gsc_ssd1306_ascii_2412+0x1014>
c:\Users\Paul Scalise\CH592F_SSD1306\obj/../User/driver_ssd1306.c:928
    if (handle->spi_cmd_data_gpio_write == NULL)                                    /* check spi_cmd_data_gpio_write */
    151c:	d6c5                	beqz	a3,14c4 <ssd1306_init+0x46>
c:\Users\Paul Scalise\CH592F_SSD1306\obj/../User/driver_ssd1306.c:934
    if (handle->reset_gpio_init == NULL)                                            /* check reset_gpio_init */
    151e:	5054                	lw	a3,36(s0)
c:\Users\Paul Scalise\CH592F_SSD1306\obj/../User/driver_ssd1306.c:936
        handle->debug_print("ssd1306: reset_gpio_init is null.\n");                 /* reset_gpio_init is null */
    1520:	00005517          	auipc	a0,0x5
    1524:	8f050513          	addi	a0,a0,-1808 # 5e10 <gsc_ssd1306_ascii_2412+0x1040>
c:\Users\Paul Scalise\CH592F_SSD1306\obj/../User/driver_ssd1306.c:934
    if (handle->reset_gpio_init == NULL)                                            /* check reset_gpio_init */
    1528:	ded1                	beqz	a3,14c4 <ssd1306_init+0x46>
c:\Users\Paul Scalise\CH592F_SSD1306\obj/../User/driver_ssd1306.c:940
    if (handle->reset_gpio_deinit == NULL)                                          /* check reset_gpio_deinit */
    152a:	5414                	lw	a3,40(s0)
c:\Users\Paul Scalise\CH592F_SSD1306\obj/../User/driver_ssd1306.c:942
        handle->debug_print("ssd1306: reset_gpio_deinit is null.\n");               /* reset_gpio_deinit is null */
    152c:	00005517          	auipc	a0,0x5
    1530:	90850513          	addi	a0,a0,-1784 # 5e34 <gsc_ssd1306_ascii_2412+0x1064>
c:\Users\Paul Scalise\CH592F_SSD1306\obj/../User/driver_ssd1306.c:940
    if (handle->reset_gpio_deinit == NULL)                                          /* check reset_gpio_deinit */
    1534:	dac1                	beqz	a3,14c4 <ssd1306_init+0x46>
c:\Users\Paul Scalise\CH592F_SSD1306\obj/../User/driver_ssd1306.c:946
    if(handle->reset_gpio_write == NULL)                                            /* check reset_gpio_write */
    1536:	5454                	lw	a3,44(s0)
c:\Users\Paul Scalise\CH592F_SSD1306\obj/../User/driver_ssd1306.c:948
        handle->debug_print("ssd1306: reset_gpio_write is null.\n");                /* reset_gpio_write is null */ 
    1538:	00005517          	auipc	a0,0x5
    153c:	92450513          	addi	a0,a0,-1756 # 5e5c <gsc_ssd1306_ascii_2412+0x108c>
c:\Users\Paul Scalise\CH592F_SSD1306\obj/../User/driver_ssd1306.c:946
    if(handle->reset_gpio_write == NULL)                                            /* check reset_gpio_write */
    1540:	d2d1                	beqz	a3,14c4 <ssd1306_init+0x46>
c:\Users\Paul Scalise\CH592F_SSD1306\obj/../User/driver_ssd1306.c:953
    if (handle->spi_cmd_data_gpio_init() != 0)                                      /* check spi_cmd_data_gpio_init */
    1542:	9702                	jalr	a4
    1544:	c909                	beqz	a0,1556 <ssd1306_init+0xd8>
c:\Users\Paul Scalise\CH592F_SSD1306\obj/../User/driver_ssd1306.c:955
        handle->debug_print("ssd1306: spi cmd data gpio init failed.\n");           /* spi cmd data gpio init failed */
    1546:	581c                	lw	a5,48(s0)
    1548:	00005517          	auipc	a0,0x5
    154c:	93850513          	addi	a0,a0,-1736 # 5e80 <gsc_ssd1306_ascii_2412+0x10b0>
c:\Users\Paul Scalise\CH592F_SSD1306\obj/../User/driver_ssd1306.c:957
        return 5;                                                                   /* return error */
    1550:	4495                	li	s1,5
c:\Users\Paul Scalise\CH592F_SSD1306\obj/../User/driver_ssd1306.c:955
        handle->debug_print("ssd1306: spi cmd data gpio init failed.\n");           /* spi cmd data gpio init failed */
    1552:	9782                	jalr	a5
c:\Users\Paul Scalise\CH592F_SSD1306\obj/../User/driver_ssd1306.c:957
        return 5;                                                                   /* return error */
    1554:	b7b1                	j	14a0 <ssd1306_init+0x22>
c:\Users\Paul Scalise\CH592F_SSD1306\obj/../User/driver_ssd1306.c:959
    if (handle->reset_gpio_init() != 0)                                             /* reset gpio init */
    1556:	505c                	lw	a5,36(s0)
    1558:	9782                	jalr	a5
    155a:	c919                	beqz	a0,1570 <ssd1306_init+0xf2>
c:\Users\Paul Scalise\CH592F_SSD1306\obj/../User/driver_ssd1306.c:961
        handle->debug_print("ssd1306: reset gpio init failed.\n");                  /* reset gpio init failed */
    155c:	581c                	lw	a5,48(s0)
    155e:	00005517          	auipc	a0,0x5
    1562:	94e50513          	addi	a0,a0,-1714 # 5eac <gsc_ssd1306_ascii_2412+0x10dc>
    1566:	9782                	jalr	a5
c:\Users\Paul Scalise\CH592F_SSD1306\obj/../User/driver_ssd1306.c:962
        (void)handle->spi_cmd_data_gpio_deinit();                                   /* spi_cmd_data_gpio_deinit */
    1568:	4c5c                	lw	a5,28(s0)
c:\Users\Paul Scalise\CH592F_SSD1306\obj/../User/driver_ssd1306.c:979
        (void)handle->reset_gpio_deinit();                                          /* reset_gpio_deinit */
    156a:	9782                	jalr	a5
c:\Users\Paul Scalise\CH592F_SSD1306\obj/../User/driver_ssd1306.c:981
        return 4;                                                                   /* return error */
    156c:	4491                	li	s1,4
    156e:	bf0d                	j	14a0 <ssd1306_init+0x22>
c:\Users\Paul Scalise\CH592F_SSD1306\obj/../User/driver_ssd1306.c:966
    if (handle->reset_gpio_write(0) != 0)                                           /* write 0 */
    1570:	545c                	lw	a5,44(s0)
    1572:	9782                	jalr	a5
    1574:	c919                	beqz	a0,158a <ssd1306_init+0x10c>
c:\Users\Paul Scalise\CH592F_SSD1306\obj/../User/driver_ssd1306.c:977
        handle->debug_print("ssd1306: reset gpio write failed.\n");                 /* reset gpio write failed */
    1576:	581c                	lw	a5,48(s0)
    1578:	00005517          	auipc	a0,0x5
    157c:	95850513          	addi	a0,a0,-1704 # 5ed0 <gsc_ssd1306_ascii_2412+0x1100>
    1580:	9782                	jalr	a5
c:\Users\Paul Scalise\CH592F_SSD1306\obj/../User/driver_ssd1306.c:978
        (void)handle->spi_cmd_data_gpio_deinit();                                   /* spi_cmd_data_gpio_deinit */
    1582:	4c5c                	lw	a5,28(s0)
    1584:	9782                	jalr	a5
c:\Users\Paul Scalise\CH592F_SSD1306\obj/../User/driver_ssd1306.c:979
        (void)handle->reset_gpio_deinit();                                          /* reset_gpio_deinit */
    1586:	541c                	lw	a5,40(s0)
    1588:	b7cd                	j	156a <ssd1306_init+0xec>
c:\Users\Paul Scalise\CH592F_SSD1306\obj/../User/driver_ssd1306.c:974
    handle->delay_ms(100);                                                          /* delay 100 ms */
    158a:	585c                	lw	a5,52(s0)
    158c:	06400513          	li	a0,100
    1590:	9782                	jalr	a5
c:\Users\Paul Scalise\CH592F_SSD1306\obj/../User/driver_ssd1306.c:975
    if (handle->reset_gpio_write(1) != 0)                                           /* write 1 */
    1592:	545c                	lw	a5,44(s0)
    1594:	4505                	li	a0,1
    1596:	9782                	jalr	a5
    1598:	84aa                	mv	s1,a0
    159a:	fd71                	bnez	a0,1576 <ssd1306_init+0xf8>
c:\Users\Paul Scalise\CH592F_SSD1306\obj/../User/driver_ssd1306.c:983
    if (handle->iic_spi == SSD1306_INTERFACE_IIC)                                   /* if iic interface */
    159c:	03a44783          	lbu	a5,58(s0)
    15a0:	e385                	bnez	a5,15c0 <ssd1306_init+0x142>
c:\Users\Paul Scalise\CH592F_SSD1306\obj/../User/driver_ssd1306.c:985
        if (handle->iic_init() != 0)                                                /* iic init */
    15a2:	401c                	lw	a5,0(s0)
    15a4:	9782                	jalr	a5
    15a6:	c529                	beqz	a0,15f0 <ssd1306_init+0x172>
c:\Users\Paul Scalise\CH592F_SSD1306\obj/../User/driver_ssd1306.c:987
            handle->debug_print("ssd1306: iic init failed.\n");                     /* iic init failed */
    15a8:	581c                	lw	a5,48(s0)
    15aa:	00005517          	auipc	a0,0x5
    15ae:	94a50513          	addi	a0,a0,-1718 # 5ef4 <gsc_ssd1306_ascii_2412+0x1124>
c:\Users\Paul Scalise\CH592F_SSD1306\obj/../User/driver_ssd1306.c:998
            handle->debug_print("ssd1306: spi init failed.\n");                     /* spi init failed */
    15b2:	9782                	jalr	a5
c:\Users\Paul Scalise\CH592F_SSD1306\obj/../User/driver_ssd1306.c:999
            (void)handle->spi_cmd_data_gpio_deinit();                               /* spi_cmd_data_gpio_deinit */
    15b4:	4c5c                	lw	a5,28(s0)
c:\Users\Paul Scalise\CH592F_SSD1306\obj/../User/driver_ssd1306.c:1002
            return 1;                                                               /* return error */
    15b6:	4485                	li	s1,1
c:\Users\Paul Scalise\CH592F_SSD1306\obj/../User/driver_ssd1306.c:999
            (void)handle->spi_cmd_data_gpio_deinit();                               /* spi_cmd_data_gpio_deinit */
    15b8:	9782                	jalr	a5
c:\Users\Paul Scalise\CH592F_SSD1306\obj/../User/driver_ssd1306.c:1000
            (void)handle->reset_gpio_deinit();                                      /* reset_gpio_deinit */
    15ba:	541c                	lw	a5,40(s0)
    15bc:	9782                	jalr	a5
c:\Users\Paul Scalise\CH592F_SSD1306\obj/../User/driver_ssd1306.c:1002
            return 1;                                                               /* return error */
    15be:	b5cd                	j	14a0 <ssd1306_init+0x22>
c:\Users\Paul Scalise\CH592F_SSD1306\obj/../User/driver_ssd1306.c:994
    else if (handle->iic_spi == SSD1306_INTERFACE_SPI)                              /* if spi interface */
    15c0:	4705                	li	a4,1
    15c2:	00e79b63          	bne	a5,a4,15d8 <ssd1306_init+0x15a>
c:\Users\Paul Scalise\CH592F_SSD1306\obj/../User/driver_ssd1306.c:996
        if (handle->spi_init() != 0)                                                /* spi init */
    15c6:	445c                	lw	a5,12(s0)
    15c8:	9782                	jalr	a5
    15ca:	c11d                	beqz	a0,15f0 <ssd1306_init+0x172>
c:\Users\Paul Scalise\CH592F_SSD1306\obj/../User/driver_ssd1306.c:998
            handle->debug_print("ssd1306: spi init failed.\n");                     /* spi init failed */
    15cc:	581c                	lw	a5,48(s0)
    15ce:	00005517          	auipc	a0,0x5
    15d2:	94250513          	addi	a0,a0,-1726 # 5f10 <gsc_ssd1306_ascii_2412+0x1140>
    15d6:	bff1                	j	15b2 <ssd1306_init+0x134>
c:\Users\Paul Scalise\CH592F_SSD1306\obj/../User/driver_ssd1306.c:1007
        handle->debug_print("ssd1306: interface is invalid.\n");                    /* interface is invalid */
    15d8:	581c                	lw	a5,48(s0)
    15da:	00005517          	auipc	a0,0x5
    15de:	95250513          	addi	a0,a0,-1710 # 5f2c <gsc_ssd1306_ascii_2412+0x115c>
c:\Users\Paul Scalise\CH592F_SSD1306\obj/../User/driver_ssd1306.c:1011
        return 6;                                                                   /* return error */
    15e2:	4499                	li	s1,6
c:\Users\Paul Scalise\CH592F_SSD1306\obj/../User/driver_ssd1306.c:1007
        handle->debug_print("ssd1306: interface is invalid.\n");                    /* interface is invalid */
    15e4:	9782                	jalr	a5
c:\Users\Paul Scalise\CH592F_SSD1306\obj/../User/driver_ssd1306.c:1008
        (void)handle->spi_cmd_data_gpio_deinit();                                   /* spi_cmd_data_gpio_deinit */
    15e6:	4c5c                	lw	a5,28(s0)
    15e8:	9782                	jalr	a5
c:\Users\Paul Scalise\CH592F_SSD1306\obj/../User/driver_ssd1306.c:1009
        (void)handle->reset_gpio_deinit();                                          /* reset_gpio_deinit */
    15ea:	541c                	lw	a5,40(s0)
    15ec:	9782                	jalr	a5
c:\Users\Paul Scalise\CH592F_SSD1306\obj/../User/driver_ssd1306.c:1011
        return 6;                                                                   /* return error */
    15ee:	bd4d                	j	14a0 <ssd1306_init+0x22>
c:\Users\Paul Scalise\CH592F_SSD1306\obj/../User/driver_ssd1306.c:1013
    handle->inited = 1;                                                             /* flag inited */
    15f0:	4785                	li	a5,1
    15f2:	02f40c23          	sb	a5,56(s0)
c:\Users\Paul Scalise\CH592F_SSD1306\obj/../User/driver_ssd1306.c:1015
    return 0;                                                                       /* success return 0 */
    15f6:	b56d                	j	14a0 <ssd1306_init+0x22>

000015f8 <ssd1306_deinit>:
ssd1306_deinit():
c:\Users\Paul Scalise\CH592F_SSD1306\obj/../User/driver_ssd1306.c:1033
 *            - 6 command && data deinit failed
 *            - 7 interface param is invalid
 * @note      none
 */
uint8_t ssd1306_deinit(ssd1306_handle_t *handle)
{
    15f8:	1101                	addi	sp,sp,-32
    15fa:	ca26                	sw	s1,20(sp)
    15fc:	ce06                	sw	ra,28(sp)
    15fe:	cc22                	sw	s0,24(sp)
    1600:	c84a                	sw	s2,16(sp)
c:\Users\Paul Scalise\CH592F_SSD1306\obj/../User/driver_ssd1306.c:1038
    uint8_t buf[2];
    
    if (handle == NULL)                                                              /* check handle */
    {
        return 2;                                                                    /* return error */
    1602:	4489                	li	s1,2
c:\Users\Paul Scalise\CH592F_SSD1306\obj/../User/driver_ssd1306.c:1036
    if (handle == NULL)                                                              /* check handle */
    1604:	c90d                	beqz	a0,1636 <ssd1306_deinit+0x3e>
c:\Users\Paul Scalise\CH592F_SSD1306\obj/../User/driver_ssd1306.c:1040
    }
    if (handle->inited != 1)                                                         /* check handle initialization */
    1606:	03854903          	lbu	s2,56(a0)
    160a:	4785                	li	a5,1
    160c:	842a                	mv	s0,a0
c:\Users\Paul Scalise\CH592F_SSD1306\obj/../User/driver_ssd1306.c:1042
    {
        return 3;                                                                    /* return error */
    160e:	448d                	li	s1,3
c:\Users\Paul Scalise\CH592F_SSD1306\obj/../User/driver_ssd1306.c:1040
    if (handle->inited != 1)                                                         /* check handle initialization */
    1610:	02f91363          	bne	s2,a5,1636 <ssd1306_deinit+0x3e>
c:\Users\Paul Scalise\CH592F_SSD1306\obj/../User/driver_ssd1306.c:1045
    }
    
    buf[0] = SSD1306_CMD_CHARGE_PUMP_SETTING;                                        /* charge pump off */
    1614:	6785                	lui	a5,0x1
    1616:	08d78793          	addi	a5,a5,141 # 108d <ssd1306_gram_write_point+0x3>
c:\Users\Paul Scalise\CH592F_SSD1306\obj/../User/driver_ssd1306.c:1047
    buf[1] = 0x10 | (0 << 2);                                                        /* set charge pump */
    if (a_ssd1306_multiple_write_byte(handle, (uint8_t *)buf, 2, SSD1306_CMD) != 0)  /* write command */
    161a:	4681                	li	a3,0
    161c:	4609                	li	a2,2
    161e:	006c                	addi	a1,sp,12
c:\Users\Paul Scalise\CH592F_SSD1306\obj/../User/driver_ssd1306.c:1045
    buf[0] = SSD1306_CMD_CHARGE_PUMP_SETTING;                                        /* charge pump off */
    1620:	00f11623          	sh	a5,12(sp)
c:\Users\Paul Scalise\CH592F_SSD1306\obj/../User/driver_ssd1306.c:1047
    if (a_ssd1306_multiple_write_byte(handle, (uint8_t *)buf, 2, SSD1306_CMD) != 0)  /* write command */
    1624:	30dd                	jal	f0a <a_ssd1306_multiple_write_byte>
    1626:	cd19                	beqz	a0,1644 <ssd1306_deinit+0x4c>
c:\Users\Paul Scalise\CH592F_SSD1306\obj/../User/driver_ssd1306.c:1055
            
        return 4;                                                                    /* return error */
    }
    if (a_ssd1306_write_byte(handle, SSD1306_CMD_DISPLAY_OFF, SSD1306_CMD) != 0)     /* write display off */
    {
        handle->debug_print("ssd1306: write command failed.\n");                     /* write command failed */
    1628:	581c                	lw	a5,48(s0)
    162a:	00004517          	auipc	a0,0x4
    162e:	52250513          	addi	a0,a0,1314 # 5b4c <gsc_ssd1306_ascii_2412+0xd7c>
c:\Users\Paul Scalise\CH592F_SSD1306\obj/../User/driver_ssd1306.c:1057
            
        return 4;                                                                    /* return error */
    1632:	4491                	li	s1,4
c:\Users\Paul Scalise\CH592F_SSD1306\obj/../User/driver_ssd1306.c:1055
        handle->debug_print("ssd1306: write command failed.\n");                     /* write command failed */
    1634:	9782                	jalr	a5
c:\Users\Paul Scalise\CH592F_SSD1306\obj/../User/driver_ssd1306.c:1098
        return 7;                                                                    /* return error */
    }
    handle->inited = 0;                                                              /* flag close */
    
    return 0;                                                                        /* success return 0 */
}
    1636:	40f2                	lw	ra,28(sp)
    1638:	4462                	lw	s0,24(sp)
    163a:	8526                	mv	a0,s1
    163c:	4942                	lw	s2,16(sp)
    163e:	44d2                	lw	s1,20(sp)
    1640:	6105                	addi	sp,sp,32
    1642:	8082                	ret
c:\Users\Paul Scalise\CH592F_SSD1306\obj/../User/driver_ssd1306.c:1053
    if (a_ssd1306_write_byte(handle, SSD1306_CMD_DISPLAY_OFF, SSD1306_CMD) != 0)     /* write display off */
    1644:	4601                	li	a2,0
    1646:	0ae00593          	li	a1,174
    164a:	8522                	mv	a0,s0
    164c:	83dff0ef          	jal	ra,e88 <a_ssd1306_write_byte>
    1650:	fd61                	bnez	a0,1628 <ssd1306_deinit+0x30>
c:\Users\Paul Scalise\CH592F_SSD1306\obj/../User/driver_ssd1306.c:1059
    if (handle->reset_gpio_deinit() != 0)                                            /* reset gpio deinit */
    1652:	541c                	lw	a5,40(s0)
    1654:	9782                	jalr	a5
    1656:	c909                	beqz	a0,1668 <ssd1306_deinit+0x70>
c:\Users\Paul Scalise\CH592F_SSD1306\obj/../User/driver_ssd1306.c:1061
        handle->debug_print("ssd1306: reset gpio deinit failed.\n");                 /* reset gpio deinit failed */
    1658:	581c                	lw	a5,48(s0)
    165a:	00004517          	auipc	a0,0x4
    165e:	51250513          	addi	a0,a0,1298 # 5b6c <gsc_ssd1306_ascii_2412+0xd9c>
c:\Users\Paul Scalise\CH592F_SSD1306\obj/../User/driver_ssd1306.c:1063
        return 5;                                                                    /* return error */
    1662:	4495                	li	s1,5
c:\Users\Paul Scalise\CH592F_SSD1306\obj/../User/driver_ssd1306.c:1061
        handle->debug_print("ssd1306: reset gpio deinit failed.\n");                 /* reset gpio deinit failed */
    1664:	9782                	jalr	a5
c:\Users\Paul Scalise\CH592F_SSD1306\obj/../User/driver_ssd1306.c:1063
        return 5;                                                                    /* return error */
    1666:	bfc1                	j	1636 <ssd1306_deinit+0x3e>
c:\Users\Paul Scalise\CH592F_SSD1306\obj/../User/driver_ssd1306.c:1065
    if (handle->spi_cmd_data_gpio_deinit() != 0)                                     /* spi cmd data gpio deinit */
    1668:	4c5c                	lw	a5,28(s0)
    166a:	9782                	jalr	a5
    166c:	84aa                	mv	s1,a0
    166e:	c909                	beqz	a0,1680 <ssd1306_deinit+0x88>
c:\Users\Paul Scalise\CH592F_SSD1306\obj/../User/driver_ssd1306.c:1067
        handle->debug_print("ssd1306: spi cmd data gpio deinit failed.\n");          /* spi cmd data gpio deinit failed */
    1670:	581c                	lw	a5,48(s0)
    1672:	00004517          	auipc	a0,0x4
    1676:	51e50513          	addi	a0,a0,1310 # 5b90 <gsc_ssd1306_ascii_2412+0xdc0>
c:\Users\Paul Scalise\CH592F_SSD1306\obj/../User/driver_ssd1306.c:1069
        return 6;                                                                    /* return error */
    167a:	4499                	li	s1,6
c:\Users\Paul Scalise\CH592F_SSD1306\obj/../User/driver_ssd1306.c:1067
        handle->debug_print("ssd1306: spi cmd data gpio deinit failed.\n");          /* spi cmd data gpio deinit failed */
    167c:	9782                	jalr	a5
c:\Users\Paul Scalise\CH592F_SSD1306\obj/../User/driver_ssd1306.c:1069
        return 6;                                                                    /* return error */
    167e:	bf65                	j	1636 <ssd1306_deinit+0x3e>
c:\Users\Paul Scalise\CH592F_SSD1306\obj/../User/driver_ssd1306.c:1071
    if (handle->iic_spi == SSD1306_INTERFACE_IIC)                                    /* if iic interface */
    1680:	03a44783          	lbu	a5,58(s0)
    1684:	ef81                	bnez	a5,169c <ssd1306_deinit+0xa4>
c:\Users\Paul Scalise\CH592F_SSD1306\obj/../User/driver_ssd1306.c:1073
        if (handle->iic_deinit() != 0)                                               /* iic deinit */
    1686:	405c                	lw	a5,4(s0)
    1688:	9782                	jalr	a5
    168a:	cd05                	beqz	a0,16c2 <ssd1306_deinit+0xca>
c:\Users\Paul Scalise\CH592F_SSD1306\obj/../User/driver_ssd1306.c:1075
            handle->debug_print("ssd1306: iic deinit failed.\n");                    /* iic deinit failed */
    168c:	581c                	lw	a5,48(s0)
    168e:	00004517          	auipc	a0,0x4
    1692:	52e50513          	addi	a0,a0,1326 # 5bbc <gsc_ssd1306_ascii_2412+0xdec>
c:\Users\Paul Scalise\CH592F_SSD1306\obj/../User/driver_ssd1306.c:1084
            handle->debug_print("ssd1306: spi deinit failed.\n");                    /* spi deinit failed */
    1696:	9782                	jalr	a5
c:\Users\Paul Scalise\CH592F_SSD1306\obj/../User/driver_ssd1306.c:1086
            return 1;                                                                /* return error */
    1698:	4485                	li	s1,1
    169a:	bf71                	j	1636 <ssd1306_deinit+0x3e>
c:\Users\Paul Scalise\CH592F_SSD1306\obj/../User/driver_ssd1306.c:1080
    else if (handle->iic_spi == SSD1306_INTERFACE_SPI)                               /* if spi interface */
    169c:	01279b63          	bne	a5,s2,16b2 <ssd1306_deinit+0xba>
c:\Users\Paul Scalise\CH592F_SSD1306\obj/../User/driver_ssd1306.c:1082
        if (handle->spi_deinit() != 0)                                               /* spi deinit */
    16a0:	481c                	lw	a5,16(s0)
    16a2:	9782                	jalr	a5
    16a4:	cd19                	beqz	a0,16c2 <ssd1306_deinit+0xca>
c:\Users\Paul Scalise\CH592F_SSD1306\obj/../User/driver_ssd1306.c:1084
            handle->debug_print("ssd1306: spi deinit failed.\n");                    /* spi deinit failed */
    16a6:	581c                	lw	a5,48(s0)
    16a8:	00004517          	auipc	a0,0x4
    16ac:	53450513          	addi	a0,a0,1332 # 5bdc <gsc_ssd1306_ascii_2412+0xe0c>
    16b0:	b7dd                	j	1696 <ssd1306_deinit+0x9e>
c:\Users\Paul Scalise\CH592F_SSD1306\obj/../User/driver_ssd1306.c:1091
        handle->debug_print("ssd1306: interface is invalid.\n");                     /* interface is invalid */
    16b2:	581c                	lw	a5,48(s0)
    16b4:	00005517          	auipc	a0,0x5
    16b8:	87850513          	addi	a0,a0,-1928 # 5f2c <gsc_ssd1306_ascii_2412+0x115c>
c:\Users\Paul Scalise\CH592F_SSD1306\obj/../User/driver_ssd1306.c:1093
        return 7;                                                                    /* return error */
    16bc:	449d                	li	s1,7
c:\Users\Paul Scalise\CH592F_SSD1306\obj/../User/driver_ssd1306.c:1091
        handle->debug_print("ssd1306: interface is invalid.\n");                     /* interface is invalid */
    16be:	9782                	jalr	a5
c:\Users\Paul Scalise\CH592F_SSD1306\obj/../User/driver_ssd1306.c:1093
        return 7;                                                                    /* return error */
    16c0:	bf9d                	j	1636 <ssd1306_deinit+0x3e>
c:\Users\Paul Scalise\CH592F_SSD1306\obj/../User/driver_ssd1306.c:1095
    handle->inited = 0;                                                              /* flag close */
    16c2:	02040c23          	sb	zero,56(s0)
c:\Users\Paul Scalise\CH592F_SSD1306\obj/../User/driver_ssd1306.c:1097
    return 0;                                                                        /* success return 0 */
    16c6:	bf85                	j	1636 <ssd1306_deinit+0x3e>

000016c8 <ssd1306_set_interface>:
ssd1306_set_interface():
c:\Users\Paul Scalise\CH592F_SSD1306\obj/../User/driver_ssd1306.c:1111
 *            - 2 handle is NULL
 * @note      none
 */
uint8_t ssd1306_set_interface(ssd1306_handle_t *handle, ssd1306_interface_t interface)
{
    if (handle == NULL)                          /* check handle */
    16c8:	c509                	beqz	a0,16d2 <ssd1306_set_interface+0xa>
c:\Users\Paul Scalise\CH592F_SSD1306\obj/../User/driver_ssd1306.c:1116
    {
        return 2;                                /* return error */
    }
    
    handle->iic_spi = (uint8_t)interface;        /* set interface */
    16ca:	02b50d23          	sb	a1,58(a0)
c:\Users\Paul Scalise\CH592F_SSD1306\obj/../User/driver_ssd1306.c:1118
    
    return 0;                                    /* success return 0 */
    16ce:	4501                	li	a0,0
    16d0:	8082                	ret
c:\Users\Paul Scalise\CH592F_SSD1306\obj/../User/driver_ssd1306.c:1113
        return 2;                                /* return error */
    16d2:	4509                	li	a0,2
c:\Users\Paul Scalise\CH592F_SSD1306\obj/../User/driver_ssd1306.c:1119
}
    16d4:	8082                	ret

000016d6 <ssd1306_set_addr_pin>:
ssd1306_set_addr_pin():
c:\Users\Paul Scalise\CH592F_SSD1306\obj/../User/driver_ssd1306.c:1153
 *            - 2 handle is NULL
 * @note      none
 */
uint8_t ssd1306_set_addr_pin(ssd1306_handle_t *handle, ssd1306_address_t addr_pin)
{
    if (handle == NULL)                          /* check handle */
    16d6:	c509                	beqz	a0,16e0 <ssd1306_set_addr_pin+0xa>
c:\Users\Paul Scalise\CH592F_SSD1306\obj/../User/driver_ssd1306.c:1158
    {
        return 2;                                /* return error */
    }
    
    handle->iic_addr = (uint8_t)addr_pin;        /* set addr pin */
    16d8:	02b50ca3          	sb	a1,57(a0)
c:\Users\Paul Scalise\CH592F_SSD1306\obj/../User/driver_ssd1306.c:1160
    
    return 0;                                    /* success return 0 */
    16dc:	4501                	li	a0,0
    16de:	8082                	ret
c:\Users\Paul Scalise\CH592F_SSD1306\obj/../User/driver_ssd1306.c:1155
        return 2;                                /* return error */
    16e0:	4509                	li	a0,2
c:\Users\Paul Scalise\CH592F_SSD1306\obj/../User/driver_ssd1306.c:1161
}
    16e2:	8082                	ret

000016e4 <ssd1306_set_low_column_start_address>:
ssd1306_set_low_column_start_address():
c:\Users\Paul Scalise\CH592F_SSD1306\obj/../User/driver_ssd1306.c:1198
 *            - 4 addr is invalid
 * @note      addr <= 0xF
 */
uint8_t ssd1306_set_low_column_start_address(ssd1306_handle_t *handle, uint8_t addr)
{
    if (handle == NULL)                                                                                         /* check handle */
    16e4:	c905                	beqz	a0,1714 <ssd1306_set_low_column_start_address+0x30>
c:\Users\Paul Scalise\CH592F_SSD1306\obj/../User/driver_ssd1306.c:1202
    {
        return 2;                                                                                               /* return error */
    }
    if (handle->inited != 1)                                                                                    /* check handle initialization */
    16e6:	03854603          	lbu	a2,56(a0)
    16ea:	4705                	li	a4,1
    16ec:	02e61663          	bne	a2,a4,1718 <ssd1306_set_low_column_start_address+0x34>
c:\Users\Paul Scalise\CH592F_SSD1306\obj/../User/driver_ssd1306.c:1206
    {
        return 3;                                                                                               /* return error */
    }
    if (addr > 0x0F)                                                                                            /* check addr */
    16f0:	473d                	li	a4,15
    16f2:	00b77e63          	bgeu	a4,a1,170e <ssd1306_set_low_column_start_address+0x2a>
c:\Users\Paul Scalise\CH592F_SSD1306\obj/../User/driver_ssd1306.c:1208
    {
        handle->debug_print("ssd1306: addr is invalid.\n");                                                     /* addr is invalid */
    16f6:	591c                	lw	a5,48(a0)
c:\Users\Paul Scalise\CH592F_SSD1306\obj/../User/driver_ssd1306.c:1197
{
    16f8:	1141                	addi	sp,sp,-16
    16fa:	c606                	sw	ra,12(sp)
c:\Users\Paul Scalise\CH592F_SSD1306\obj/../User/driver_ssd1306.c:1208
        handle->debug_print("ssd1306: addr is invalid.\n");                                                     /* addr is invalid */
    16fc:	00005517          	auipc	a0,0x5
    1700:	98c50513          	addi	a0,a0,-1652 # 6088 <gsc_ssd1306_ascii_2412+0x12b8>
    1704:	9782                	jalr	a5
c:\Users\Paul Scalise\CH592F_SSD1306\obj/../User/driver_ssd1306.c:1214
        
        return 4;                                                                                               /* return error */
    }
  
    return a_ssd1306_write_byte(handle, SSD1306_CMD_LOWER_COLUMN_START_ADDRESS|(addr&0x0F), SSD1306_CMD);       /* write command */
}
    1706:	40b2                	lw	ra,12(sp)
c:\Users\Paul Scalise\CH592F_SSD1306\obj/../User/driver_ssd1306.c:1210
        return 4;                                                                                               /* return error */
    1708:	4511                	li	a0,4
c:\Users\Paul Scalise\CH592F_SSD1306\obj/../User/driver_ssd1306.c:1214
}
    170a:	0141                	addi	sp,sp,16
    170c:	8082                	ret
c:\Users\Paul Scalise\CH592F_SSD1306\obj/../User/driver_ssd1306.c:1213
    return a_ssd1306_write_byte(handle, SSD1306_CMD_LOWER_COLUMN_START_ADDRESS|(addr&0x0F), SSD1306_CMD);       /* write command */
    170e:	4601                	li	a2,0
    1710:	f78ff06f          	j	e88 <a_ssd1306_write_byte>
c:\Users\Paul Scalise\CH592F_SSD1306\obj/../User/driver_ssd1306.c:1200
        return 2;                                                                                               /* return error */
    1714:	4509                	li	a0,2
    1716:	8082                	ret
c:\Users\Paul Scalise\CH592F_SSD1306\obj/../User/driver_ssd1306.c:1204
        return 3;                                                                                               /* return error */
    1718:	450d                	li	a0,3
c:\Users\Paul Scalise\CH592F_SSD1306\obj/../User/driver_ssd1306.c:1214
}
    171a:	8082                	ret

0000171c <ssd1306_set_high_column_start_address>:
ssd1306_set_high_column_start_address():
c:\Users\Paul Scalise\CH592F_SSD1306\obj/../User/driver_ssd1306.c:1230
 *            - 4 addr is invalid
 * @note      addr <= 0xF
 */
uint8_t ssd1306_set_high_column_start_address(ssd1306_handle_t *handle, uint8_t addr)
{
    if (handle == NULL)                                                                                         /* check handle */
    171c:	c915                	beqz	a0,1750 <ssd1306_set_high_column_start_address+0x34>
c:\Users\Paul Scalise\CH592F_SSD1306\obj/../User/driver_ssd1306.c:1234
    {
        return 2;                                                                                               /* return error */
    }
    if (handle->inited != 1)                                                                                    /* check handle initialization */
    171e:	03854683          	lbu	a3,56(a0)
    1722:	4705                	li	a4,1
    1724:	02e69863          	bne	a3,a4,1754 <ssd1306_set_high_column_start_address+0x38>
c:\Users\Paul Scalise\CH592F_SSD1306\obj/../User/driver_ssd1306.c:1238
    {
        return 3;                                                                                               /* return error */
    }
    if (addr > 0x0F)                                                                                            /* check addr */
    1728:	473d                	li	a4,15
    172a:	00b77e63          	bgeu	a4,a1,1746 <ssd1306_set_high_column_start_address+0x2a>
c:\Users\Paul Scalise\CH592F_SSD1306\obj/../User/driver_ssd1306.c:1240
    {
        handle->debug_print("ssd1306: addr is invalid.\n");                                                     /* addr is invalid */
    172e:	591c                	lw	a5,48(a0)
c:\Users\Paul Scalise\CH592F_SSD1306\obj/../User/driver_ssd1306.c:1229
{
    1730:	1141                	addi	sp,sp,-16
    1732:	c606                	sw	ra,12(sp)
c:\Users\Paul Scalise\CH592F_SSD1306\obj/../User/driver_ssd1306.c:1240
        handle->debug_print("ssd1306: addr is invalid.\n");                                                     /* addr is invalid */
    1734:	00005517          	auipc	a0,0x5
    1738:	95450513          	addi	a0,a0,-1708 # 6088 <gsc_ssd1306_ascii_2412+0x12b8>
    173c:	9782                	jalr	a5
c:\Users\Paul Scalise\CH592F_SSD1306\obj/../User/driver_ssd1306.c:1246
        
        return 4;                                                                                               /* return error */
    }
  
    return a_ssd1306_write_byte(handle, SSD1306_CMD_HIGHER_COLUMN_START_ADDRESS|(addr&0x0F), SSD1306_CMD);      /* write command */
}
    173e:	40b2                	lw	ra,12(sp)
c:\Users\Paul Scalise\CH592F_SSD1306\obj/../User/driver_ssd1306.c:1242
        return 4;                                                                                               /* return error */
    1740:	4511                	li	a0,4
c:\Users\Paul Scalise\CH592F_SSD1306\obj/../User/driver_ssd1306.c:1246
}
    1742:	0141                	addi	sp,sp,16
    1744:	8082                	ret
c:\Users\Paul Scalise\CH592F_SSD1306\obj/../User/driver_ssd1306.c:1245
    return a_ssd1306_write_byte(handle, SSD1306_CMD_HIGHER_COLUMN_START_ADDRESS|(addr&0x0F), SSD1306_CMD);      /* write command */
    1746:	4601                	li	a2,0
    1748:	0105e593          	ori	a1,a1,16
    174c:	f3cff06f          	j	e88 <a_ssd1306_write_byte>
c:\Users\Paul Scalise\CH592F_SSD1306\obj/../User/driver_ssd1306.c:1232
        return 2;                                                                                               /* return error */
    1750:	4509                	li	a0,2
    1752:	8082                	ret
c:\Users\Paul Scalise\CH592F_SSD1306\obj/../User/driver_ssd1306.c:1236
        return 3;                                                                                               /* return error */
    1754:	450d                	li	a0,3
c:\Users\Paul Scalise\CH592F_SSD1306\obj/../User/driver_ssd1306.c:1246
}
    1756:	8082                	ret

00001758 <ssd1306_set_memory_addressing_mode>:
ssd1306_set_memory_addressing_mode():
c:\Users\Paul Scalise\CH592F_SSD1306\obj/../User/driver_ssd1306.c:1263
 */
uint8_t ssd1306_set_memory_addressing_mode(ssd1306_handle_t *handle, ssd1306_memory_addressing_mode_t mode)
{
    uint8_t buf[2];

    if (handle == NULL)                                                                 /* check handle */
    1758:	c51d                	beqz	a0,1786 <ssd1306_set_memory_addressing_mode+0x2e>
c:\Users\Paul Scalise\CH592F_SSD1306\obj/../User/driver_ssd1306.c:1267
    {
        return 2;                                                                       /* return error */
    }
    if (handle->inited != 1)                                                            /* check handle initialization */
    175a:	03854683          	lbu	a3,56(a0)
    175e:	4705                	li	a4,1
c:\Users\Paul Scalise\CH592F_SSD1306\obj/../User/driver_ssd1306.c:1269
    {
        return 3;                                                                       /* return error */
    1760:	478d                	li	a5,3
c:\Users\Paul Scalise\CH592F_SSD1306\obj/../User/driver_ssd1306.c:1267
    if (handle->inited != 1)                                                            /* check handle initialization */
    1762:	02e69363          	bne	a3,a4,1788 <ssd1306_set_memory_addressing_mode+0x30>
c:\Users\Paul Scalise\CH592F_SSD1306\obj/../User/driver_ssd1306.c:1260
{
    1766:	1101                	addi	sp,sp,-32
c:\Users\Paul Scalise\CH592F_SSD1306\obj/../User/driver_ssd1306.c:1273
    }
  
    buf[0] = SSD1306_CMD_MEMORY_ADDRESSING_MODE;                                        /* set command mode */
    buf[1] = mode;                                                                      /* set mode */
    1768:	00b106a3          	sb	a1,13(sp)
c:\Users\Paul Scalise\CH592F_SSD1306\obj/../User/driver_ssd1306.c:1272
    buf[0] = SSD1306_CMD_MEMORY_ADDRESSING_MODE;                                        /* set command mode */
    176c:	02000793          	li	a5,32
c:\Users\Paul Scalise\CH592F_SSD1306\obj/../User/driver_ssd1306.c:1275
  
    return a_ssd1306_multiple_write_byte(handle, (uint8_t *)buf, 2, SSD1306_CMD);       /* write command */
    1770:	006c                	addi	a1,sp,12
    1772:	4681                	li	a3,0
    1774:	4609                	li	a2,2
c:\Users\Paul Scalise\CH592F_SSD1306\obj/../User/driver_ssd1306.c:1260
{
    1776:	ce06                	sw	ra,28(sp)
c:\Users\Paul Scalise\CH592F_SSD1306\obj/../User/driver_ssd1306.c:1272
    buf[0] = SSD1306_CMD_MEMORY_ADDRESSING_MODE;                                        /* set command mode */
    1778:	00f10623          	sb	a5,12(sp)
c:\Users\Paul Scalise\CH592F_SSD1306\obj/../User/driver_ssd1306.c:1275
    return a_ssd1306_multiple_write_byte(handle, (uint8_t *)buf, 2, SSD1306_CMD);       /* write command */
    177c:	f8eff0ef          	jal	ra,f0a <a_ssd1306_multiple_write_byte>
c:\Users\Paul Scalise\CH592F_SSD1306\obj/../User/driver_ssd1306.c:1276
}
    1780:	40f2                	lw	ra,28(sp)
    1782:	6105                	addi	sp,sp,32
    1784:	8082                	ret
c:\Users\Paul Scalise\CH592F_SSD1306\obj/../User/driver_ssd1306.c:1265
        return 2;                                                                       /* return error */
    1786:	4789                	li	a5,2
c:\Users\Paul Scalise\CH592F_SSD1306\obj/../User/driver_ssd1306.c:1276
}
    1788:	853e                	mv	a0,a5
    178a:	8082                	ret

0000178c <ssd1306_set_column_address_range>:
ssd1306_set_column_address_range():
c:\Users\Paul Scalise\CH592F_SSD1306\obj/../User/driver_ssd1306.c:1296
 */
uint8_t ssd1306_set_column_address_range(ssd1306_handle_t *handle, uint8_t start_addr, uint8_t end_addr)
{
    uint8_t buf[3];
    
    if (handle == NULL)                                                                 /* check handle */
    178c:	c52d                	beqz	a0,17f6 <ssd1306_set_column_address_range+0x6a>
c:\Users\Paul Scalise\CH592F_SSD1306\obj/../User/driver_ssd1306.c:1300
    {
        return 2;                                                                       /* return error */
    }
    if (handle->inited != 1)                                                            /* check handle initialization */
    178e:	03854803          	lbu	a6,56(a0)
    1792:	4685                	li	a3,1
c:\Users\Paul Scalise\CH592F_SSD1306\obj/../User/driver_ssd1306.c:1302
    {
        return 3;                                                                       /* return error */
    1794:	470d                	li	a4,3
c:\Users\Paul Scalise\CH592F_SSD1306\obj/../User/driver_ssd1306.c:1300
    if (handle->inited != 1)                                                            /* check handle initialization */
    1796:	06d81163          	bne	a6,a3,17f8 <ssd1306_set_column_address_range+0x6c>
c:\Users\Paul Scalise\CH592F_SSD1306\obj/../User/driver_ssd1306.c:1293
{
    179a:	1101                	addi	sp,sp,-32
c:\Users\Paul Scalise\CH592F_SSD1306\obj/../User/driver_ssd1306.c:1304
    }
    if (start_addr > 0x7F)                                                              /* check start addr */
    179c:	01859713          	slli	a4,a1,0x18
c:\Users\Paul Scalise\CH592F_SSD1306\obj/../User/driver_ssd1306.c:1293
{
    17a0:	ce06                	sw	ra,28(sp)
c:\Users\Paul Scalise\CH592F_SSD1306\obj/../User/driver_ssd1306.c:1304
    if (start_addr > 0x7F)                                                              /* check start addr */
    17a2:	8761                	srai	a4,a4,0x18
    17a4:	00075d63          	bgez	a4,17be <ssd1306_set_column_address_range+0x32>
c:\Users\Paul Scalise\CH592F_SSD1306\obj/../User/driver_ssd1306.c:1306
    {
        handle->debug_print("ssd1306: start addr is invalid.\n");                       /* start addr is invalid */
    17a8:	591c                	lw	a5,48(a0)
    17aa:	00004517          	auipc	a0,0x4
    17ae:	7a250513          	addi	a0,a0,1954 # 5f4c <gsc_ssd1306_ascii_2412+0x117c>
    17b2:	9782                	jalr	a5
c:\Users\Paul Scalise\CH592F_SSD1306\obj/../User/driver_ssd1306.c:1308
        
        return 4;                                                                       /* return error */
    17b4:	4711                	li	a4,4
c:\Users\Paul Scalise\CH592F_SSD1306\obj/../User/driver_ssd1306.c:1322
    buf[0] = SSD1306_CMD_SET_COLUMN_ADDRESS;                                            /* set command */
    buf[1] = start_addr & 0x7F;                                                         /* set start address */
    buf[2] = end_addr & 0x7F;                                                           /* set end address */
  
    return a_ssd1306_multiple_write_byte(handle, (uint8_t *)buf, 3, SSD1306_CMD);       /* write command */
}
    17b6:	40f2                	lw	ra,28(sp)
    17b8:	853a                	mv	a0,a4
    17ba:	6105                	addi	sp,sp,32
    17bc:	8082                	ret
c:\Users\Paul Scalise\CH592F_SSD1306\obj/../User/driver_ssd1306.c:1310
    if (end_addr > 0x7F)                                                                /* check end addr */
    17be:	01861713          	slli	a4,a2,0x18
    17c2:	8761                	srai	a4,a4,0x18
    17c4:	00075a63          	bgez	a4,17d8 <ssd1306_set_column_address_range+0x4c>
c:\Users\Paul Scalise\CH592F_SSD1306\obj/../User/driver_ssd1306.c:1312
        handle->debug_print("ssd1306: end addr is invalid.\n");                         /* end addr is invalid */
    17c8:	591c                	lw	a5,48(a0)
    17ca:	00004517          	auipc	a0,0x4
    17ce:	7a650513          	addi	a0,a0,1958 # 5f70 <gsc_ssd1306_ascii_2412+0x11a0>
    17d2:	9782                	jalr	a5
c:\Users\Paul Scalise\CH592F_SSD1306\obj/../User/driver_ssd1306.c:1314
        return 5;                                                                       /* return error */
    17d4:	4715                	li	a4,5
    17d6:	b7c5                	j	17b6 <ssd1306_set_column_address_range+0x2a>
c:\Users\Paul Scalise\CH592F_SSD1306\obj/../User/driver_ssd1306.c:1317
    buf[0] = SSD1306_CMD_SET_COLUMN_ADDRESS;                                            /* set command */
    17d8:	02100793          	li	a5,33
c:\Users\Paul Scalise\CH592F_SSD1306\obj/../User/driver_ssd1306.c:1318
    buf[1] = start_addr & 0x7F;                                                         /* set start address */
    17dc:	00b106a3          	sb	a1,13(sp)
c:\Users\Paul Scalise\CH592F_SSD1306\obj/../User/driver_ssd1306.c:1319
    buf[2] = end_addr & 0x7F;                                                           /* set end address */
    17e0:	00c10723          	sb	a2,14(sp)
c:\Users\Paul Scalise\CH592F_SSD1306\obj/../User/driver_ssd1306.c:1321
    return a_ssd1306_multiple_write_byte(handle, (uint8_t *)buf, 3, SSD1306_CMD);       /* write command */
    17e4:	4681                	li	a3,0
    17e6:	460d                	li	a2,3
    17e8:	006c                	addi	a1,sp,12
c:\Users\Paul Scalise\CH592F_SSD1306\obj/../User/driver_ssd1306.c:1317
    buf[0] = SSD1306_CMD_SET_COLUMN_ADDRESS;                                            /* set command */
    17ea:	00f10623          	sb	a5,12(sp)
c:\Users\Paul Scalise\CH592F_SSD1306\obj/../User/driver_ssd1306.c:1321
    return a_ssd1306_multiple_write_byte(handle, (uint8_t *)buf, 3, SSD1306_CMD);       /* write command */
    17ee:	f1cff0ef          	jal	ra,f0a <a_ssd1306_multiple_write_byte>
    17f2:	872a                	mv	a4,a0
    17f4:	b7c9                	j	17b6 <ssd1306_set_column_address_range+0x2a>
c:\Users\Paul Scalise\CH592F_SSD1306\obj/../User/driver_ssd1306.c:1298
        return 2;                                                                       /* return error */
    17f6:	4709                	li	a4,2
c:\Users\Paul Scalise\CH592F_SSD1306\obj/../User/driver_ssd1306.c:1322
}
    17f8:	853a                	mv	a0,a4
    17fa:	8082                	ret

000017fc <ssd1306_set_page_address_range>:
ssd1306_set_page_address_range():
c:\Users\Paul Scalise\CH592F_SSD1306\obj/../User/driver_ssd1306.c:1342
 */
uint8_t ssd1306_set_page_address_range(ssd1306_handle_t *handle, uint8_t start_addr, uint8_t end_addr)
{
    uint8_t buf[3];

    if (handle == NULL)                                                                 /* check handle */
    17fc:	c125                	beqz	a0,185c <ssd1306_set_page_address_range+0x60>
c:\Users\Paul Scalise\CH592F_SSD1306\obj/../User/driver_ssd1306.c:1346
    {
        return 2;                                                                       /* return error */
    }
    if (handle->inited != 1)                                                            /* check handle initialization */
    17fe:	03854803          	lbu	a6,56(a0)
    1802:	4685                	li	a3,1
c:\Users\Paul Scalise\CH592F_SSD1306\obj/../User/driver_ssd1306.c:1348
    {
        return 3;                                                                       /* return error */
    1804:	470d                	li	a4,3
c:\Users\Paul Scalise\CH592F_SSD1306\obj/../User/driver_ssd1306.c:1346
    if (handle->inited != 1)                                                            /* check handle initialization */
    1806:	04d81c63          	bne	a6,a3,185e <ssd1306_set_page_address_range+0x62>
c:\Users\Paul Scalise\CH592F_SSD1306\obj/../User/driver_ssd1306.c:1339
{
    180a:	1101                	addi	sp,sp,-32
    180c:	ce06                	sw	ra,28(sp)
c:\Users\Paul Scalise\CH592F_SSD1306\obj/../User/driver_ssd1306.c:1350
    }
    if (start_addr > 0x07)                                                              /* check start addr */
    180e:	471d                	li	a4,7
    1810:	00b77d63          	bgeu	a4,a1,182a <ssd1306_set_page_address_range+0x2e>
c:\Users\Paul Scalise\CH592F_SSD1306\obj/../User/driver_ssd1306.c:1352
    {
        handle->debug_print("ssd1306: start addr is invalid.\n");                       /* start addr is invalid */
    1814:	591c                	lw	a5,48(a0)
    1816:	00004517          	auipc	a0,0x4
    181a:	73650513          	addi	a0,a0,1846 # 5f4c <gsc_ssd1306_ascii_2412+0x117c>
    181e:	9782                	jalr	a5
c:\Users\Paul Scalise\CH592F_SSD1306\obj/../User/driver_ssd1306.c:1354
        
        return 4;                                                                       /* return error */
    1820:	4711                	li	a4,4
c:\Users\Paul Scalise\CH592F_SSD1306\obj/../User/driver_ssd1306.c:1368
    buf[0] = SSD1306_CMD_SET_PAGE_ADDRESS;                                              /* set command */
    buf[1] = start_addr & 0x07;                                                         /* set start address */
    buf[2] = end_addr & 0x07;                                                           /* set end address */
  
    return a_ssd1306_multiple_write_byte(handle, (uint8_t *)buf, 3, SSD1306_CMD);       /* write command */
}
    1822:	40f2                	lw	ra,28(sp)
    1824:	853a                	mv	a0,a4
    1826:	6105                	addi	sp,sp,32
    1828:	8082                	ret
c:\Users\Paul Scalise\CH592F_SSD1306\obj/../User/driver_ssd1306.c:1356
    if (end_addr > 0x07)                                                                /* check end addr */
    182a:	00c77a63          	bgeu	a4,a2,183e <ssd1306_set_page_address_range+0x42>
c:\Users\Paul Scalise\CH592F_SSD1306\obj/../User/driver_ssd1306.c:1358
        handle->debug_print("ssd1306: end addr is invalid.\n");                         /* end_addr is invalid */
    182e:	591c                	lw	a5,48(a0)
    1830:	00004517          	auipc	a0,0x4
    1834:	74050513          	addi	a0,a0,1856 # 5f70 <gsc_ssd1306_ascii_2412+0x11a0>
    1838:	9782                	jalr	a5
c:\Users\Paul Scalise\CH592F_SSD1306\obj/../User/driver_ssd1306.c:1360
        return 5;                                                                       /* return error */
    183a:	4715                	li	a4,5
    183c:	b7dd                	j	1822 <ssd1306_set_page_address_range+0x26>
c:\Users\Paul Scalise\CH592F_SSD1306\obj/../User/driver_ssd1306.c:1363
    buf[0] = SSD1306_CMD_SET_PAGE_ADDRESS;                                              /* set command */
    183e:	02200793          	li	a5,34
c:\Users\Paul Scalise\CH592F_SSD1306\obj/../User/driver_ssd1306.c:1364
    buf[1] = start_addr & 0x07;                                                         /* set start address */
    1842:	00b106a3          	sb	a1,13(sp)
c:\Users\Paul Scalise\CH592F_SSD1306\obj/../User/driver_ssd1306.c:1365
    buf[2] = end_addr & 0x07;                                                           /* set end address */
    1846:	00c10723          	sb	a2,14(sp)
c:\Users\Paul Scalise\CH592F_SSD1306\obj/../User/driver_ssd1306.c:1367
    return a_ssd1306_multiple_write_byte(handle, (uint8_t *)buf, 3, SSD1306_CMD);       /* write command */
    184a:	4681                	li	a3,0
    184c:	460d                	li	a2,3
    184e:	006c                	addi	a1,sp,12
c:\Users\Paul Scalise\CH592F_SSD1306\obj/../User/driver_ssd1306.c:1363
    buf[0] = SSD1306_CMD_SET_PAGE_ADDRESS;                                              /* set command */
    1850:	00f10623          	sb	a5,12(sp)
c:\Users\Paul Scalise\CH592F_SSD1306\obj/../User/driver_ssd1306.c:1367
    return a_ssd1306_multiple_write_byte(handle, (uint8_t *)buf, 3, SSD1306_CMD);       /* write command */
    1854:	eb6ff0ef          	jal	ra,f0a <a_ssd1306_multiple_write_byte>
    1858:	872a                	mv	a4,a0
    185a:	b7e1                	j	1822 <ssd1306_set_page_address_range+0x26>
c:\Users\Paul Scalise\CH592F_SSD1306\obj/../User/driver_ssd1306.c:1344
        return 2;                                                                       /* return error */
    185c:	4709                	li	a4,2
c:\Users\Paul Scalise\CH592F_SSD1306\obj/../User/driver_ssd1306.c:1368
}
    185e:	853a                	mv	a0,a4
    1860:	8082                	ret

00001862 <ssd1306_set_fade_blinking_mode>:
ssd1306_set_fade_blinking_mode():
c:\Users\Paul Scalise\CH592F_SSD1306\obj/../User/driver_ssd1306.c:1387
 */
uint8_t ssd1306_set_fade_blinking_mode(ssd1306_handle_t *handle, ssd1306_fade_blinking_mode_t mode, uint8_t frames)
{
    uint8_t buf[2];
    
    if (handle == NULL)                                                                 /* check handle */
    1862:	c531                	beqz	a0,18ae <ssd1306_set_fade_blinking_mode+0x4c>
c:\Users\Paul Scalise\CH592F_SSD1306\obj/../User/driver_ssd1306.c:1391
    {
        return 2;                                                                       /* return error */
    }
    if (handle->inited != 1)                                                            /* check handle initialization */
    1864:	03854803          	lbu	a6,56(a0)
    1868:	4685                	li	a3,1
c:\Users\Paul Scalise\CH592F_SSD1306\obj/../User/driver_ssd1306.c:1393
    {
        return 3;                                                                       /* return error */
    186a:	470d                	li	a4,3
c:\Users\Paul Scalise\CH592F_SSD1306\obj/../User/driver_ssd1306.c:1391
    if (handle->inited != 1)                                                            /* check handle initialization */
    186c:	04d81263          	bne	a6,a3,18b0 <ssd1306_set_fade_blinking_mode+0x4e>
c:\Users\Paul Scalise\CH592F_SSD1306\obj/../User/driver_ssd1306.c:1384
{
    1870:	1101                	addi	sp,sp,-32
    1872:	ce06                	sw	ra,28(sp)
c:\Users\Paul Scalise\CH592F_SSD1306\obj/../User/driver_ssd1306.c:1395
    }
    if (frames> 0x0F)                                                                   /* check frames */
    1874:	473d                	li	a4,15
    1876:	00c77d63          	bgeu	a4,a2,1890 <ssd1306_set_fade_blinking_mode+0x2e>
c:\Users\Paul Scalise\CH592F_SSD1306\obj/../User/driver_ssd1306.c:1397
    {
        handle->debug_print("ssd1306: frames is invalid.\n");                           /* frames is invalid */
    187a:	591c                	lw	a5,48(a0)
    187c:	00004517          	auipc	a0,0x4
    1880:	7a050513          	addi	a0,a0,1952 # 601c <gsc_ssd1306_ascii_2412+0x124c>
    1884:	9782                	jalr	a5
c:\Users\Paul Scalise\CH592F_SSD1306\obj/../User/driver_ssd1306.c:1399
        
        return 4;                                                                       /* return error */
    1886:	4711                	li	a4,4
c:\Users\Paul Scalise\CH592F_SSD1306\obj/../User/driver_ssd1306.c:1406
    
    buf[0] = SSD1306_CMD_SET_FADE_OUT_AND_BLINKING;                                     /* set command */
    buf[1] = (uint8_t)((mode << 4) | (frames & 0x0F));                                  /* set mode */
  
    return a_ssd1306_multiple_write_byte(handle, (uint8_t *)buf, 2, SSD1306_CMD);       /* write command */
}
    1888:	40f2                	lw	ra,28(sp)
    188a:	853a                	mv	a0,a4
    188c:	6105                	addi	sp,sp,32
    188e:	8082                	ret
c:\Users\Paul Scalise\CH592F_SSD1306\obj/../User/driver_ssd1306.c:1403
    buf[1] = (uint8_t)((mode << 4) | (frames & 0x0F));                                  /* set mode */
    1890:	0592                	slli	a1,a1,0x4
    1892:	8e4d                	or	a2,a2,a1
c:\Users\Paul Scalise\CH592F_SSD1306\obj/../User/driver_ssd1306.c:1402
    buf[0] = SSD1306_CMD_SET_FADE_OUT_AND_BLINKING;                                     /* set command */
    1894:	02300793          	li	a5,35
c:\Users\Paul Scalise\CH592F_SSD1306\obj/../User/driver_ssd1306.c:1403
    buf[1] = (uint8_t)((mode << 4) | (frames & 0x0F));                                  /* set mode */
    1898:	00c106a3          	sb	a2,13(sp)
c:\Users\Paul Scalise\CH592F_SSD1306\obj/../User/driver_ssd1306.c:1405
    return a_ssd1306_multiple_write_byte(handle, (uint8_t *)buf, 2, SSD1306_CMD);       /* write command */
    189c:	4681                	li	a3,0
    189e:	4609                	li	a2,2
    18a0:	006c                	addi	a1,sp,12
c:\Users\Paul Scalise\CH592F_SSD1306\obj/../User/driver_ssd1306.c:1402
    buf[0] = SSD1306_CMD_SET_FADE_OUT_AND_BLINKING;                                     /* set command */
    18a2:	00f10623          	sb	a5,12(sp)
c:\Users\Paul Scalise\CH592F_SSD1306\obj/../User/driver_ssd1306.c:1405
    return a_ssd1306_multiple_write_byte(handle, (uint8_t *)buf, 2, SSD1306_CMD);       /* write command */
    18a6:	e64ff0ef          	jal	ra,f0a <a_ssd1306_multiple_write_byte>
    18aa:	872a                	mv	a4,a0
    18ac:	bff1                	j	1888 <ssd1306_set_fade_blinking_mode+0x26>
c:\Users\Paul Scalise\CH592F_SSD1306\obj/../User/driver_ssd1306.c:1389
        return 2;                                                                       /* return error */
    18ae:	4709                	li	a4,2
c:\Users\Paul Scalise\CH592F_SSD1306\obj/../User/driver_ssd1306.c:1406
}
    18b0:	853a                	mv	a0,a4
    18b2:	8082                	ret

000018b4 <ssd1306_set_right_horizontal_scroll>:
ssd1306_set_right_horizontal_scroll():
c:\Users\Paul Scalise\CH592F_SSD1306\obj/../User/driver_ssd1306.c:1428
uint8_t ssd1306_set_right_horizontal_scroll(ssd1306_handle_t *handle, uint8_t start_page_addr, uint8_t end_page_addr, 
                                            ssd1306_scroll_frame_t frames)
{
    uint8_t buf[7];
    
    if (handle == NULL)                                                                 /* check handle */
    18b4:	c925                	beqz	a0,1924 <ssd1306_set_right_horizontal_scroll+0x70>
c:\Users\Paul Scalise\CH592F_SSD1306\obj/../User/driver_ssd1306.c:1432
    {
        return 2;                                                                       /* return error */
    }
    if (handle->inited != 1)                                                            /* check handle initialization */
    18b6:	03854883          	lbu	a7,56(a0)
    18ba:	4805                	li	a6,1
c:\Users\Paul Scalise\CH592F_SSD1306\obj/../User/driver_ssd1306.c:1434
    {
        return 3;                                                                       /* return error */
    18bc:	470d                	li	a4,3
c:\Users\Paul Scalise\CH592F_SSD1306\obj/../User/driver_ssd1306.c:1432
    if (handle->inited != 1)                                                            /* check handle initialization */
    18be:	07089463          	bne	a7,a6,1926 <ssd1306_set_right_horizontal_scroll+0x72>
c:\Users\Paul Scalise\CH592F_SSD1306\obj/../User/driver_ssd1306.c:1425
{
    18c2:	1101                	addi	sp,sp,-32
    18c4:	ce06                	sw	ra,28(sp)
c:\Users\Paul Scalise\CH592F_SSD1306\obj/../User/driver_ssd1306.c:1436
    }
    if (start_page_addr > 0x07)                                                         /* check start_page_addr */
    18c6:	471d                	li	a4,7
    18c8:	00b77d63          	bgeu	a4,a1,18e2 <ssd1306_set_right_horizontal_scroll+0x2e>
c:\Users\Paul Scalise\CH592F_SSD1306\obj/../User/driver_ssd1306.c:1438
    {
        handle->debug_print("ssd1306: start page addr is invalid.\n");                  /* start page addr is invalid */
    18cc:	591c                	lw	a5,48(a0)
    18ce:	00005517          	auipc	a0,0x5
    18d2:	86650513          	addi	a0,a0,-1946 # 6134 <gsc_ssd1306_ascii_2412+0x1364>
    18d6:	9782                	jalr	a5
c:\Users\Paul Scalise\CH592F_SSD1306\obj/../User/driver_ssd1306.c:1440
        
        return 4;                                                                       /* return error */
    18d8:	4711                	li	a4,4
c:\Users\Paul Scalise\CH592F_SSD1306\obj/../User/driver_ssd1306.c:1458
    buf[4] = end_page_addr & 0x07;                                                      /* set end page address */
    buf[5] = 0x00;                                                                      /* set null */
    buf[6] = 0xFF;                                                                      /* set frame end */
  
    return a_ssd1306_multiple_write_byte(handle, (uint8_t *)buf, 7, SSD1306_CMD);       /* write command */
}
    18da:	40f2                	lw	ra,28(sp)
    18dc:	853a                	mv	a0,a4
    18de:	6105                	addi	sp,sp,32
    18e0:	8082                	ret
c:\Users\Paul Scalise\CH592F_SSD1306\obj/../User/driver_ssd1306.c:1442
    if (end_page_addr > 0x07)                                                           /* check end_page_addr */
    18e2:	00c77a63          	bgeu	a4,a2,18f6 <ssd1306_set_right_horizontal_scroll+0x42>
c:\Users\Paul Scalise\CH592F_SSD1306\obj/../User/driver_ssd1306.c:1444
        handle->debug_print("ssd1306: end page addr is invalid.\n");                    /* end page addr is invalid */
    18e6:	591c                	lw	a5,48(a0)
    18e8:	00005517          	auipc	a0,0x5
    18ec:	87450513          	addi	a0,a0,-1932 # 615c <gsc_ssd1306_ascii_2412+0x138c>
    18f0:	9782                	jalr	a5
c:\Users\Paul Scalise\CH592F_SSD1306\obj/../User/driver_ssd1306.c:1446
        return 5;                                                                       /* return error */
    18f2:	4715                	li	a4,5
    18f4:	b7dd                	j	18da <ssd1306_set_right_horizontal_scroll+0x26>
c:\Users\Paul Scalise\CH592F_SSD1306\obj/../User/driver_ssd1306.c:1449
    buf[0] = SSD1306_CMD_RIGHT_HORIZONTAL_SCROLL;                                       /* set command */
    18f6:	02600793          	li	a5,38
c:\Users\Paul Scalise\CH592F_SSD1306\obj/../User/driver_ssd1306.c:1452
    buf[3] = frames & 0x07;                                                             /* set frames */
    18fa:	8a9d                	andi	a3,a3,7
c:\Users\Paul Scalise\CH592F_SSD1306\obj/../User/driver_ssd1306.c:1449
    buf[0] = SSD1306_CMD_RIGHT_HORIZONTAL_SCROLL;                                       /* set command */
    18fc:	00f11423          	sh	a5,8(sp)
c:\Users\Paul Scalise\CH592F_SSD1306\obj/../User/driver_ssd1306.c:1451
    buf[2] = start_page_addr & 0x07;                                                    /* set start page address */
    1900:	00b10523          	sb	a1,10(sp)
c:\Users\Paul Scalise\CH592F_SSD1306\obj/../User/driver_ssd1306.c:1452
    buf[3] = frames & 0x07;                                                             /* set frames */
    1904:	00d105a3          	sb	a3,11(sp)
c:\Users\Paul Scalise\CH592F_SSD1306\obj/../User/driver_ssd1306.c:1453
    buf[4] = end_page_addr & 0x07;                                                      /* set end page address */
    1908:	00c10623          	sb	a2,12(sp)
c:\Users\Paul Scalise\CH592F_SSD1306\obj/../User/driver_ssd1306.c:1455
    buf[6] = 0xFF;                                                                      /* set frame end */
    190c:	57fd                	li	a5,-1
c:\Users\Paul Scalise\CH592F_SSD1306\obj/../User/driver_ssd1306.c:1457
    return a_ssd1306_multiple_write_byte(handle, (uint8_t *)buf, 7, SSD1306_CMD);       /* write command */
    190e:	4681                	li	a3,0
    1910:	461d                	li	a2,7
    1912:	002c                	addi	a1,sp,8
c:\Users\Paul Scalise\CH592F_SSD1306\obj/../User/driver_ssd1306.c:1454
    buf[5] = 0x00;                                                                      /* set null */
    1914:	000106a3          	sb	zero,13(sp)
c:\Users\Paul Scalise\CH592F_SSD1306\obj/../User/driver_ssd1306.c:1455
    buf[6] = 0xFF;                                                                      /* set frame end */
    1918:	00f10723          	sb	a5,14(sp)
c:\Users\Paul Scalise\CH592F_SSD1306\obj/../User/driver_ssd1306.c:1457
    return a_ssd1306_multiple_write_byte(handle, (uint8_t *)buf, 7, SSD1306_CMD);       /* write command */
    191c:	deeff0ef          	jal	ra,f0a <a_ssd1306_multiple_write_byte>
    1920:	872a                	mv	a4,a0
    1922:	bf65                	j	18da <ssd1306_set_right_horizontal_scroll+0x26>
c:\Users\Paul Scalise\CH592F_SSD1306\obj/../User/driver_ssd1306.c:1430
        return 2;                                                                       /* return error */
    1924:	4709                	li	a4,2
c:\Users\Paul Scalise\CH592F_SSD1306\obj/../User/driver_ssd1306.c:1458
}
    1926:	853a                	mv	a0,a4
    1928:	8082                	ret

0000192a <ssd1306_set_left_horizontal_scroll>:
ssd1306_set_left_horizontal_scroll():
c:\Users\Paul Scalise\CH592F_SSD1306\obj/../User/driver_ssd1306.c:1480
uint8_t ssd1306_set_left_horizontal_scroll(ssd1306_handle_t *handle, uint8_t start_page_addr, uint8_t end_page_addr, 
                                           ssd1306_scroll_frame_t frames)
{
    uint8_t buf[7];
    
    if (handle == NULL)                                                                 /* check handle */
    192a:	c925                	beqz	a0,199a <ssd1306_set_left_horizontal_scroll+0x70>
c:\Users\Paul Scalise\CH592F_SSD1306\obj/../User/driver_ssd1306.c:1484
    {
        return 2;                                                                       /* return error */
    }
    if (handle->inited != 1)                                                            /* check handle initialization */
    192c:	03854883          	lbu	a7,56(a0)
    1930:	4805                	li	a6,1
c:\Users\Paul Scalise\CH592F_SSD1306\obj/../User/driver_ssd1306.c:1486
    {
        return 3;                                                                       /* return error */
    1932:	470d                	li	a4,3
c:\Users\Paul Scalise\CH592F_SSD1306\obj/../User/driver_ssd1306.c:1484
    if (handle->inited != 1)                                                            /* check handle initialization */
    1934:	07089463          	bne	a7,a6,199c <ssd1306_set_left_horizontal_scroll+0x72>
c:\Users\Paul Scalise\CH592F_SSD1306\obj/../User/driver_ssd1306.c:1477
{
    1938:	1101                	addi	sp,sp,-32
    193a:	ce06                	sw	ra,28(sp)
c:\Users\Paul Scalise\CH592F_SSD1306\obj/../User/driver_ssd1306.c:1488
    }
    if (start_page_addr > 0x07)                                                         /* check start_page_addr */
    193c:	471d                	li	a4,7
    193e:	00b77d63          	bgeu	a4,a1,1958 <ssd1306_set_left_horizontal_scroll+0x2e>
c:\Users\Paul Scalise\CH592F_SSD1306\obj/../User/driver_ssd1306.c:1490
    {
        handle->debug_print("ssd1306: start_page_addr is invalid.\n");                  /* start_page_addr is invalid */
    1942:	591c                	lw	a5,48(a0)
    1944:	00004517          	auipc	a0,0x4
    1948:	6f850513          	addi	a0,a0,1784 # 603c <gsc_ssd1306_ascii_2412+0x126c>
    194c:	9782                	jalr	a5
c:\Users\Paul Scalise\CH592F_SSD1306\obj/../User/driver_ssd1306.c:1492
        
        return 4;                                                                       /* return error */
    194e:	4711                	li	a4,4
c:\Users\Paul Scalise\CH592F_SSD1306\obj/../User/driver_ssd1306.c:1510
    buf[4] = end_page_addr & 0x07;                                                      /* set end page addr */
    buf[5] = 0x00;                                                                      /* set null */
    buf[6] = 0xFF;                                                                      /* set frame end */
  
    return a_ssd1306_multiple_write_byte(handle, (uint8_t *)buf, 7, SSD1306_CMD);       /* write command */
}
    1950:	40f2                	lw	ra,28(sp)
    1952:	853a                	mv	a0,a4
    1954:	6105                	addi	sp,sp,32
    1956:	8082                	ret
c:\Users\Paul Scalise\CH592F_SSD1306\obj/../User/driver_ssd1306.c:1494
    if (end_page_addr > 0x07)                                                           /* check end_page_addr */
    1958:	00c77a63          	bgeu	a4,a2,196c <ssd1306_set_left_horizontal_scroll+0x42>
c:\Users\Paul Scalise\CH592F_SSD1306\obj/../User/driver_ssd1306.c:1496
        handle->debug_print("ssd1306: end_page_addr is invalid.\n");                    /* end_page_addr is invalid */
    195c:	591c                	lw	a5,48(a0)
    195e:	00004517          	auipc	a0,0x4
    1962:	70650513          	addi	a0,a0,1798 # 6064 <gsc_ssd1306_ascii_2412+0x1294>
    1966:	9782                	jalr	a5
c:\Users\Paul Scalise\CH592F_SSD1306\obj/../User/driver_ssd1306.c:1498
        return 5;                                                                       /* return error */
    1968:	4715                	li	a4,5
    196a:	b7dd                	j	1950 <ssd1306_set_left_horizontal_scroll+0x26>
c:\Users\Paul Scalise\CH592F_SSD1306\obj/../User/driver_ssd1306.c:1501
    buf[0] = SSD1306_CMD_LEFT_HORIZONTAL_SCROLL;                                        /* set command */
    196c:	02700793          	li	a5,39
c:\Users\Paul Scalise\CH592F_SSD1306\obj/../User/driver_ssd1306.c:1504
    buf[3] = frames & 0x07;                                                             /* set frames */
    1970:	8a9d                	andi	a3,a3,7
c:\Users\Paul Scalise\CH592F_SSD1306\obj/../User/driver_ssd1306.c:1501
    buf[0] = SSD1306_CMD_LEFT_HORIZONTAL_SCROLL;                                        /* set command */
    1972:	00f11423          	sh	a5,8(sp)
c:\Users\Paul Scalise\CH592F_SSD1306\obj/../User/driver_ssd1306.c:1503
    buf[2] = start_page_addr & 0x07;                                                    /* set end page addr */
    1976:	00b10523          	sb	a1,10(sp)
c:\Users\Paul Scalise\CH592F_SSD1306\obj/../User/driver_ssd1306.c:1504
    buf[3] = frames & 0x07;                                                             /* set frames */
    197a:	00d105a3          	sb	a3,11(sp)
c:\Users\Paul Scalise\CH592F_SSD1306\obj/../User/driver_ssd1306.c:1505
    buf[4] = end_page_addr & 0x07;                                                      /* set end page addr */
    197e:	00c10623          	sb	a2,12(sp)
c:\Users\Paul Scalise\CH592F_SSD1306\obj/../User/driver_ssd1306.c:1507
    buf[6] = 0xFF;                                                                      /* set frame end */
    1982:	57fd                	li	a5,-1
c:\Users\Paul Scalise\CH592F_SSD1306\obj/../User/driver_ssd1306.c:1509
    return a_ssd1306_multiple_write_byte(handle, (uint8_t *)buf, 7, SSD1306_CMD);       /* write command */
    1984:	4681                	li	a3,0
    1986:	461d                	li	a2,7
    1988:	002c                	addi	a1,sp,8
c:\Users\Paul Scalise\CH592F_SSD1306\obj/../User/driver_ssd1306.c:1506
    buf[5] = 0x00;                                                                      /* set null */
    198a:	000106a3          	sb	zero,13(sp)
c:\Users\Paul Scalise\CH592F_SSD1306\obj/../User/driver_ssd1306.c:1507
    buf[6] = 0xFF;                                                                      /* set frame end */
    198e:	00f10723          	sb	a5,14(sp)
c:\Users\Paul Scalise\CH592F_SSD1306\obj/../User/driver_ssd1306.c:1509
    return a_ssd1306_multiple_write_byte(handle, (uint8_t *)buf, 7, SSD1306_CMD);       /* write command */
    1992:	d78ff0ef          	jal	ra,f0a <a_ssd1306_multiple_write_byte>
    1996:	872a                	mv	a4,a0
    1998:	bf65                	j	1950 <ssd1306_set_left_horizontal_scroll+0x26>
c:\Users\Paul Scalise\CH592F_SSD1306\obj/../User/driver_ssd1306.c:1482
        return 2;                                                                       /* return error */
    199a:	4709                	li	a4,2
c:\Users\Paul Scalise\CH592F_SSD1306\obj/../User/driver_ssd1306.c:1510
}
    199c:	853a                	mv	a0,a4
    199e:	8082                	ret

000019a0 <ssd1306_set_vertical_right_horizontal_scroll>:
ssd1306_set_vertical_right_horizontal_scroll():
c:\Users\Paul Scalise\CH592F_SSD1306\obj/../User/driver_ssd1306.c:1534
uint8_t ssd1306_set_vertical_right_horizontal_scroll(ssd1306_handle_t *handle, uint8_t start_page_addr, uint8_t end_page_addr, 
                                                     uint8_t rows, ssd1306_scroll_frame_t frames)
{
    uint8_t buf[6];

    if (handle == NULL)                                                                 /* check handle */
    19a0:	c149                	beqz	a0,1a22 <ssd1306_set_vertical_right_horizontal_scroll+0x82>
c:\Users\Paul Scalise\CH592F_SSD1306\obj/../User/driver_ssd1306.c:1538
    {
        return 2;                                                                       /* return error */
    }
    if (handle->inited != 1)                                                            /* check handle initialization */
    19a2:	03854303          	lbu	t1,56(a0)
    19a6:	4885                	li	a7,1
c:\Users\Paul Scalise\CH592F_SSD1306\obj/../User/driver_ssd1306.c:1540
    {
        return 3;                                                                       /* return error */
    19a8:	480d                	li	a6,3
c:\Users\Paul Scalise\CH592F_SSD1306\obj/../User/driver_ssd1306.c:1538
    if (handle->inited != 1)                                                            /* check handle initialization */
    19aa:	07131d63          	bne	t1,a7,1a24 <ssd1306_set_vertical_right_horizontal_scroll+0x84>
c:\Users\Paul Scalise\CH592F_SSD1306\obj/../User/driver_ssd1306.c:1531
{
    19ae:	1101                	addi	sp,sp,-32
    19b0:	ce06                	sw	ra,28(sp)
c:\Users\Paul Scalise\CH592F_SSD1306\obj/../User/driver_ssd1306.c:1542
    }
    if (start_page_addr > 0x07)                                                         /* check start_page_addr */
    19b2:	481d                	li	a6,7
    19b4:	00b87d63          	bgeu	a6,a1,19ce <ssd1306_set_vertical_right_horizontal_scroll+0x2e>
c:\Users\Paul Scalise\CH592F_SSD1306\obj/../User/driver_ssd1306.c:1544
    {
        handle->debug_print("ssd1306: start_page_addr is invalid.\n");                  /* start_page_addr is invalid */
    19b8:	591c                	lw	a5,48(a0)
    19ba:	00004517          	auipc	a0,0x4
    19be:	68250513          	addi	a0,a0,1666 # 603c <gsc_ssd1306_ascii_2412+0x126c>
    19c2:	9782                	jalr	a5
c:\Users\Paul Scalise\CH592F_SSD1306\obj/../User/driver_ssd1306.c:1546
        
        return 4;                                                                       /* return error */
    19c4:	4811                	li	a6,4
c:\Users\Paul Scalise\CH592F_SSD1306\obj/../User/driver_ssd1306.c:1569
    buf[3] = frames & 0x07;                                                             /* set frames */
    buf[4] = end_page_addr & 0x07;                                                      /* set end page addr */
    buf[5] = rows & 0x3F;                                                               /* set rows */
  
    return a_ssd1306_multiple_write_byte(handle, (uint8_t *)buf, 6, SSD1306_CMD);       /* write command */
}
    19c6:	40f2                	lw	ra,28(sp)
    19c8:	8542                	mv	a0,a6
    19ca:	6105                	addi	sp,sp,32
    19cc:	8082                	ret
c:\Users\Paul Scalise\CH592F_SSD1306\obj/../User/driver_ssd1306.c:1548
    if (end_page_addr > 0x07)                                                           /* check end page addr */
    19ce:	00c87a63          	bgeu	a6,a2,19e2 <ssd1306_set_vertical_right_horizontal_scroll+0x42>
c:\Users\Paul Scalise\CH592F_SSD1306\obj/../User/driver_ssd1306.c:1550
        handle->debug_print("ssd1306: end_page_addr is invalid.\n");                    /* end_page_addr is invalid */
    19d2:	591c                	lw	a5,48(a0)
    19d4:	00004517          	auipc	a0,0x4
    19d8:	69050513          	addi	a0,a0,1680 # 6064 <gsc_ssd1306_ascii_2412+0x1294>
    19dc:	9782                	jalr	a5
c:\Users\Paul Scalise\CH592F_SSD1306\obj/../User/driver_ssd1306.c:1552
        return 5;                                                                       /* return error */
    19de:	4815                	li	a6,5
    19e0:	b7dd                	j	19c6 <ssd1306_set_vertical_right_horizontal_scroll+0x26>
c:\Users\Paul Scalise\CH592F_SSD1306\obj/../User/driver_ssd1306.c:1554
    if (rows > 0x3F)                                                                    /* check rows */
    19e2:	03f00813          	li	a6,63
    19e6:	00d87a63          	bgeu	a6,a3,19fa <ssd1306_set_vertical_right_horizontal_scroll+0x5a>
c:\Users\Paul Scalise\CH592F_SSD1306\obj/../User/driver_ssd1306.c:1556
        handle->debug_print("ssd1306: rows is invalid.\n");                             /* rows is invalid */
    19ea:	591c                	lw	a5,48(a0)
    19ec:	00004517          	auipc	a0,0x4
    19f0:	79450513          	addi	a0,a0,1940 # 6180 <gsc_ssd1306_ascii_2412+0x13b0>
    19f4:	9782                	jalr	a5
c:\Users\Paul Scalise\CH592F_SSD1306\obj/../User/driver_ssd1306.c:1558
        return 6;                                                                       /* return error */
    19f6:	4819                	li	a6,6
    19f8:	b7f9                	j	19c6 <ssd1306_set_vertical_right_horizontal_scroll+0x26>
c:\Users\Paul Scalise\CH592F_SSD1306\obj/../User/driver_ssd1306.c:1561
    buf[0] = SSD1306_CMD_VERTICAL_RIGHT_HORIZONTAL_SCROLL;                              /* set command */
    19fa:	02900793          	li	a5,41
c:\Users\Paul Scalise\CH592F_SSD1306\obj/../User/driver_ssd1306.c:1563
    buf[2] = start_page_addr & 0x07;                                                    /* set start page addr */
    19fe:	00b10523          	sb	a1,10(sp)
c:\Users\Paul Scalise\CH592F_SSD1306\obj/../User/driver_ssd1306.c:1564
    buf[3] = frames & 0x07;                                                             /* set frames */
    1a02:	8b1d                	andi	a4,a4,7
c:\Users\Paul Scalise\CH592F_SSD1306\obj/../User/driver_ssd1306.c:1565
    buf[4] = end_page_addr & 0x07;                                                      /* set end page addr */
    1a04:	00c10623          	sb	a2,12(sp)
c:\Users\Paul Scalise\CH592F_SSD1306\obj/../User/driver_ssd1306.c:1566
    buf[5] = rows & 0x3F;                                                               /* set rows */
    1a08:	00d106a3          	sb	a3,13(sp)
c:\Users\Paul Scalise\CH592F_SSD1306\obj/../User/driver_ssd1306.c:1568
    return a_ssd1306_multiple_write_byte(handle, (uint8_t *)buf, 6, SSD1306_CMD);       /* write command */
    1a0c:	4619                	li	a2,6
    1a0e:	4681                	li	a3,0
    1a10:	002c                	addi	a1,sp,8
c:\Users\Paul Scalise\CH592F_SSD1306\obj/../User/driver_ssd1306.c:1561
    buf[0] = SSD1306_CMD_VERTICAL_RIGHT_HORIZONTAL_SCROLL;                              /* set command */
    1a12:	00f11423          	sh	a5,8(sp)
c:\Users\Paul Scalise\CH592F_SSD1306\obj/../User/driver_ssd1306.c:1564
    buf[3] = frames & 0x07;                                                             /* set frames */
    1a16:	00e105a3          	sb	a4,11(sp)
c:\Users\Paul Scalise\CH592F_SSD1306\obj/../User/driver_ssd1306.c:1568
    return a_ssd1306_multiple_write_byte(handle, (uint8_t *)buf, 6, SSD1306_CMD);       /* write command */
    1a1a:	cf0ff0ef          	jal	ra,f0a <a_ssd1306_multiple_write_byte>
    1a1e:	882a                	mv	a6,a0
    1a20:	b75d                	j	19c6 <ssd1306_set_vertical_right_horizontal_scroll+0x26>
c:\Users\Paul Scalise\CH592F_SSD1306\obj/../User/driver_ssd1306.c:1536
        return 2;                                                                       /* return error */
    1a22:	4809                	li	a6,2
c:\Users\Paul Scalise\CH592F_SSD1306\obj/../User/driver_ssd1306.c:1569
}
    1a24:	8542                	mv	a0,a6
    1a26:	8082                	ret

00001a28 <ssd1306_set_vertical_left_horizontal_scroll>:
ssd1306_set_vertical_left_horizontal_scroll():
c:\Users\Paul Scalise\CH592F_SSD1306\obj/../User/driver_ssd1306.c:1593
uint8_t ssd1306_set_vertical_left_horizontal_scroll(ssd1306_handle_t *handle, uint8_t start_page_addr, uint8_t end_page_addr, 
                                                    uint8_t rows, ssd1306_scroll_frame_t frames)
{
    uint8_t buf[6];

    if (handle == NULL)                                                                 /* check handle */
    1a28:	c149                	beqz	a0,1aaa <ssd1306_set_vertical_left_horizontal_scroll+0x82>
c:\Users\Paul Scalise\CH592F_SSD1306\obj/../User/driver_ssd1306.c:1597
    {
        return 2;                                                                       /* return error */
    }
    if (handle->inited != 1)                                                            /* check handle initialization */
    1a2a:	03854303          	lbu	t1,56(a0)
    1a2e:	4885                	li	a7,1
c:\Users\Paul Scalise\CH592F_SSD1306\obj/../User/driver_ssd1306.c:1599
    {
        return 3;                                                                       /* return error */
    1a30:	480d                	li	a6,3
c:\Users\Paul Scalise\CH592F_SSD1306\obj/../User/driver_ssd1306.c:1597
    if (handle->inited != 1)                                                            /* check handle initialization */
    1a32:	07131d63          	bne	t1,a7,1aac <ssd1306_set_vertical_left_horizontal_scroll+0x84>
c:\Users\Paul Scalise\CH592F_SSD1306\obj/../User/driver_ssd1306.c:1590
{
    1a36:	1101                	addi	sp,sp,-32
    1a38:	ce06                	sw	ra,28(sp)
c:\Users\Paul Scalise\CH592F_SSD1306\obj/../User/driver_ssd1306.c:1601
    }
    if (start_page_addr > 0x07)                                                         /* check start_page_addr */
    1a3a:	481d                	li	a6,7
    1a3c:	00b87d63          	bgeu	a6,a1,1a56 <ssd1306_set_vertical_left_horizontal_scroll+0x2e>
c:\Users\Paul Scalise\CH592F_SSD1306\obj/../User/driver_ssd1306.c:1603
    {
        handle->debug_print("ssd1306: start_page_addr is invalid.\n");                  /* start_page_addr is invalid */
    1a40:	591c                	lw	a5,48(a0)
    1a42:	00004517          	auipc	a0,0x4
    1a46:	5fa50513          	addi	a0,a0,1530 # 603c <gsc_ssd1306_ascii_2412+0x126c>
    1a4a:	9782                	jalr	a5
c:\Users\Paul Scalise\CH592F_SSD1306\obj/../User/driver_ssd1306.c:1605
        
        return 4;                                                                       /* return error */
    1a4c:	4811                	li	a6,4
c:\Users\Paul Scalise\CH592F_SSD1306\obj/../User/driver_ssd1306.c:1628
    buf[3] = frames & 0x07;                                                             /* set frames */
    buf[4] = end_page_addr & 0x07;                                                      /* set end page addr */
    buf[5] = rows & 0x3F;                                                               /* set rows */
  
    return a_ssd1306_multiple_write_byte(handle, (uint8_t *)buf, 6, SSD1306_CMD);       /* write command */
}
    1a4e:	40f2                	lw	ra,28(sp)
    1a50:	8542                	mv	a0,a6
    1a52:	6105                	addi	sp,sp,32
    1a54:	8082                	ret
c:\Users\Paul Scalise\CH592F_SSD1306\obj/../User/driver_ssd1306.c:1607
    if (end_page_addr > 0x07)                                                           /* check end_page_addr */
    1a56:	00c87a63          	bgeu	a6,a2,1a6a <ssd1306_set_vertical_left_horizontal_scroll+0x42>
c:\Users\Paul Scalise\CH592F_SSD1306\obj/../User/driver_ssd1306.c:1609
        handle->debug_print("ssd1306: end_page_addr is invalid.\n");                    /* end_page_addr is invalid */
    1a5a:	591c                	lw	a5,48(a0)
    1a5c:	00004517          	auipc	a0,0x4
    1a60:	60850513          	addi	a0,a0,1544 # 6064 <gsc_ssd1306_ascii_2412+0x1294>
    1a64:	9782                	jalr	a5
c:\Users\Paul Scalise\CH592F_SSD1306\obj/../User/driver_ssd1306.c:1611
        return 5;                                                                       /* return error */
    1a66:	4815                	li	a6,5
    1a68:	b7dd                	j	1a4e <ssd1306_set_vertical_left_horizontal_scroll+0x26>
c:\Users\Paul Scalise\CH592F_SSD1306\obj/../User/driver_ssd1306.c:1613
    if (rows > 0x3F)                                                                    /* check rows */
    1a6a:	03f00813          	li	a6,63
    1a6e:	00d87a63          	bgeu	a6,a3,1a82 <ssd1306_set_vertical_left_horizontal_scroll+0x5a>
c:\Users\Paul Scalise\CH592F_SSD1306\obj/../User/driver_ssd1306.c:1615
        handle->debug_print("ssd1306: rows is invalid.\n");                             /* rows is invalid */
    1a72:	591c                	lw	a5,48(a0)
    1a74:	00004517          	auipc	a0,0x4
    1a78:	70c50513          	addi	a0,a0,1804 # 6180 <gsc_ssd1306_ascii_2412+0x13b0>
    1a7c:	9782                	jalr	a5
c:\Users\Paul Scalise\CH592F_SSD1306\obj/../User/driver_ssd1306.c:1617
        return 6;                                                                       /* return error */
    1a7e:	4819                	li	a6,6
    1a80:	b7f9                	j	1a4e <ssd1306_set_vertical_left_horizontal_scroll+0x26>
c:\Users\Paul Scalise\CH592F_SSD1306\obj/../User/driver_ssd1306.c:1620
    buf[0] = SSD1306_CMD_VERTICAL_LEFT_HORIZONTAL_SCROLL;                               /* set command */
    1a82:	02a00793          	li	a5,42
c:\Users\Paul Scalise\CH592F_SSD1306\obj/../User/driver_ssd1306.c:1622
    buf[2] = start_page_addr & 0x07;                                                    /* set start page addr */
    1a86:	00b10523          	sb	a1,10(sp)
c:\Users\Paul Scalise\CH592F_SSD1306\obj/../User/driver_ssd1306.c:1623
    buf[3] = frames & 0x07;                                                             /* set frames */
    1a8a:	8b1d                	andi	a4,a4,7
c:\Users\Paul Scalise\CH592F_SSD1306\obj/../User/driver_ssd1306.c:1624
    buf[4] = end_page_addr & 0x07;                                                      /* set end page addr */
    1a8c:	00c10623          	sb	a2,12(sp)
c:\Users\Paul Scalise\CH592F_SSD1306\obj/../User/driver_ssd1306.c:1625
    buf[5] = rows & 0x3F;                                                               /* set rows */
    1a90:	00d106a3          	sb	a3,13(sp)
c:\Users\Paul Scalise\CH592F_SSD1306\obj/../User/driver_ssd1306.c:1627
    return a_ssd1306_multiple_write_byte(handle, (uint8_t *)buf, 6, SSD1306_CMD);       /* write command */
    1a94:	4619                	li	a2,6
    1a96:	4681                	li	a3,0
    1a98:	002c                	addi	a1,sp,8
c:\Users\Paul Scalise\CH592F_SSD1306\obj/../User/driver_ssd1306.c:1620
    buf[0] = SSD1306_CMD_VERTICAL_LEFT_HORIZONTAL_SCROLL;                               /* set command */
    1a9a:	00f11423          	sh	a5,8(sp)
c:\Users\Paul Scalise\CH592F_SSD1306\obj/../User/driver_ssd1306.c:1623
    buf[3] = frames & 0x07;                                                             /* set frames */
    1a9e:	00e105a3          	sb	a4,11(sp)
c:\Users\Paul Scalise\CH592F_SSD1306\obj/../User/driver_ssd1306.c:1627
    return a_ssd1306_multiple_write_byte(handle, (uint8_t *)buf, 6, SSD1306_CMD);       /* write command */
    1aa2:	c68ff0ef          	jal	ra,f0a <a_ssd1306_multiple_write_byte>
    1aa6:	882a                	mv	a6,a0
    1aa8:	b75d                	j	1a4e <ssd1306_set_vertical_left_horizontal_scroll+0x26>
c:\Users\Paul Scalise\CH592F_SSD1306\obj/../User/driver_ssd1306.c:1595
        return 2;                                                                       /* return error */
    1aaa:	4809                	li	a6,2
c:\Users\Paul Scalise\CH592F_SSD1306\obj/../User/driver_ssd1306.c:1628
}
    1aac:	8542                	mv	a0,a6
    1aae:	8082                	ret

00001ab0 <ssd1306_deactivate_scroll>:
ssd1306_deactivate_scroll():
c:\Users\Paul Scalise\CH592F_SSD1306\obj/../User/driver_ssd1306.c:1642
 *            - 3 handle is not initialized
 * @note      none
 */
uint8_t ssd1306_deactivate_scroll(ssd1306_handle_t *handle)
{
    if (handle == NULL)                                                                    /* check handle */
    1ab0:	cd01                	beqz	a0,1ac8 <ssd1306_deactivate_scroll+0x18>
c:\Users\Paul Scalise\CH592F_SSD1306\obj/../User/driver_ssd1306.c:1646
    {
        return 2;                                                                          /* return error */
    }
    if (handle->inited != 1)                                                               /* check handle initialization */
    1ab2:	03854683          	lbu	a3,56(a0)
    1ab6:	4705                	li	a4,1
c:\Users\Paul Scalise\CH592F_SSD1306\obj/../User/driver_ssd1306.c:1648
    {
        return 3;                                                                          /* return error */
    1ab8:	478d                	li	a5,3
c:\Users\Paul Scalise\CH592F_SSD1306\obj/../User/driver_ssd1306.c:1646
    if (handle->inited != 1)                                                               /* check handle initialization */
    1aba:	00e69863          	bne	a3,a4,1aca <ssd1306_deactivate_scroll+0x1a>
c:\Users\Paul Scalise\CH592F_SSD1306\obj/../User/driver_ssd1306.c:1651
    }
  
    return a_ssd1306_write_byte(handle, SSD1306_CMD_DEACTIVATE_SCROLL, SSD1306_CMD);       /* write command */
    1abe:	4601                	li	a2,0
    1ac0:	02e00593          	li	a1,46
    1ac4:	bc4ff06f          	j	e88 <a_ssd1306_write_byte>
c:\Users\Paul Scalise\CH592F_SSD1306\obj/../User/driver_ssd1306.c:1644
        return 2;                                                                          /* return error */
    1ac8:	4789                	li	a5,2
c:\Users\Paul Scalise\CH592F_SSD1306\obj/../User/driver_ssd1306.c:1652
}
    1aca:	853e                	mv	a0,a5
    1acc:	8082                	ret

00001ace <ssd1306_activate_scroll>:
ssd1306_activate_scroll():
c:\Users\Paul Scalise\CH592F_SSD1306\obj/../User/driver_ssd1306.c:1666
 *            - 3 handle is not initialized
 * @note      none
 */
uint8_t ssd1306_activate_scroll(ssd1306_handle_t *handle)
{
    if (handle == NULL)                                                                  /* check handle */
    1ace:	cd01                	beqz	a0,1ae6 <ssd1306_activate_scroll+0x18>
c:\Users\Paul Scalise\CH592F_SSD1306\obj/../User/driver_ssd1306.c:1670
    {
        return 2;                                                                        /* return error */
    }
    if (handle->inited != 1)                                                             /* check handle initialization */
    1ad0:	03854683          	lbu	a3,56(a0)
    1ad4:	4705                	li	a4,1
c:\Users\Paul Scalise\CH592F_SSD1306\obj/../User/driver_ssd1306.c:1672
    {
        return 3;                                                                        /* return error */
    1ad6:	478d                	li	a5,3
c:\Users\Paul Scalise\CH592F_SSD1306\obj/../User/driver_ssd1306.c:1670
    if (handle->inited != 1)                                                             /* check handle initialization */
    1ad8:	00e69863          	bne	a3,a4,1ae8 <ssd1306_activate_scroll+0x1a>
c:\Users\Paul Scalise\CH592F_SSD1306\obj/../User/driver_ssd1306.c:1675
    }
    
    return a_ssd1306_write_byte(handle, SSD1306_CMD_ACTIVATE_SCROLL, SSD1306_CMD);       /* write command */
    1adc:	4601                	li	a2,0
    1ade:	02f00593          	li	a1,47
    1ae2:	ba6ff06f          	j	e88 <a_ssd1306_write_byte>
c:\Users\Paul Scalise\CH592F_SSD1306\obj/../User/driver_ssd1306.c:1668
        return 2;                                                                        /* return error */
    1ae6:	4789                	li	a5,2
c:\Users\Paul Scalise\CH592F_SSD1306\obj/../User/driver_ssd1306.c:1676
}
    1ae8:	853e                	mv	a0,a5
    1aea:	8082                	ret

00001aec <ssd1306_set_display_start_line>:
ssd1306_set_display_start_line():
c:\Users\Paul Scalise\CH592F_SSD1306\obj/../User/driver_ssd1306.c:1692
 *            - 4 line is invalid
 * @note      line <= 0x3F
 */
uint8_t ssd1306_set_display_start_line(ssd1306_handle_t *handle, uint8_t l)
{
    if (handle == NULL)                                                                                 /* check handle */
    1aec:	c91d                	beqz	a0,1b22 <ssd1306_set_display_start_line+0x36>
c:\Users\Paul Scalise\CH592F_SSD1306\obj/../User/driver_ssd1306.c:1696
    {
        return 2;                                                                                       /* return error */
    }
    if (handle->inited != 1)                                                                            /* check handle initialization */
    1aee:	03854683          	lbu	a3,56(a0)
    1af2:	4705                	li	a4,1
    1af4:	02e69963          	bne	a3,a4,1b26 <ssd1306_set_display_start_line+0x3a>
c:\Users\Paul Scalise\CH592F_SSD1306\obj/../User/driver_ssd1306.c:1700
    {
        return 3;                                                                                       /* return error */
    }
    if (l > 0x3F)                                                                                       /* check line */
    1af8:	03f00713          	li	a4,63
    1afc:	00b77e63          	bgeu	a4,a1,1b18 <ssd1306_set_display_start_line+0x2c>
c:\Users\Paul Scalise\CH592F_SSD1306\obj/../User/driver_ssd1306.c:1702
    {
        handle->debug_print("ssd1306: line is invalid.\n");                                             /* line is invalid */
    1b00:	591c                	lw	a5,48(a0)
c:\Users\Paul Scalise\CH592F_SSD1306\obj/../User/driver_ssd1306.c:1691
{
    1b02:	1141                	addi	sp,sp,-16
    1b04:	c606                	sw	ra,12(sp)
c:\Users\Paul Scalise\CH592F_SSD1306\obj/../User/driver_ssd1306.c:1702
        handle->debug_print("ssd1306: line is invalid.\n");                                             /* line is invalid */
    1b06:	00004517          	auipc	a0,0x4
    1b0a:	4fa50513          	addi	a0,a0,1274 # 6000 <gsc_ssd1306_ascii_2412+0x1230>
    1b0e:	9782                	jalr	a5
c:\Users\Paul Scalise\CH592F_SSD1306\obj/../User/driver_ssd1306.c:1708
        
        return 4;                                                                                       /* return error */
    }
  
    return a_ssd1306_write_byte(handle, SSD1306_CMD_DISPLAY_START_LINE|(l&0x3F), SSD1306_CMD);          /* write command */
}
    1b10:	40b2                	lw	ra,12(sp)
c:\Users\Paul Scalise\CH592F_SSD1306\obj/../User/driver_ssd1306.c:1704
        return 4;                                                                                       /* return error */
    1b12:	4511                	li	a0,4
c:\Users\Paul Scalise\CH592F_SSD1306\obj/../User/driver_ssd1306.c:1708
}
    1b14:	0141                	addi	sp,sp,16
    1b16:	8082                	ret
c:\Users\Paul Scalise\CH592F_SSD1306\obj/../User/driver_ssd1306.c:1707
    return a_ssd1306_write_byte(handle, SSD1306_CMD_DISPLAY_START_LINE|(l&0x3F), SSD1306_CMD);          /* write command */
    1b18:	4601                	li	a2,0
    1b1a:	0405e593          	ori	a1,a1,64
    1b1e:	b6aff06f          	j	e88 <a_ssd1306_write_byte>
c:\Users\Paul Scalise\CH592F_SSD1306\obj/../User/driver_ssd1306.c:1694
        return 2;                                                                                       /* return error */
    1b22:	4509                	li	a0,2
    1b24:	8082                	ret
c:\Users\Paul Scalise\CH592F_SSD1306\obj/../User/driver_ssd1306.c:1698
        return 3;                                                                                       /* return error */
    1b26:	450d                	li	a0,3
c:\Users\Paul Scalise\CH592F_SSD1306\obj/../User/driver_ssd1306.c:1708
}
    1b28:	8082                	ret

00001b2a <ssd1306_set_contrast>:
ssd1306_set_contrast():
c:\Users\Paul Scalise\CH592F_SSD1306\obj/../User/driver_ssd1306.c:1725
 */
uint8_t ssd1306_set_contrast(ssd1306_handle_t *handle, uint8_t contrast)
{
    uint8_t buf[2];
    
    if (handle == NULL)                                                                 /* check handle */
    1b2a:	c51d                	beqz	a0,1b58 <ssd1306_set_contrast+0x2e>
c:\Users\Paul Scalise\CH592F_SSD1306\obj/../User/driver_ssd1306.c:1729
    {
        return 2;                                                                       /* return error */
    }
    if (handle->inited != 1)                                                            /* check handle initialization */
    1b2c:	03854683          	lbu	a3,56(a0)
    1b30:	4705                	li	a4,1
c:\Users\Paul Scalise\CH592F_SSD1306\obj/../User/driver_ssd1306.c:1731
    {
        return 3;                                                                       /* return error */
    1b32:	478d                	li	a5,3
c:\Users\Paul Scalise\CH592F_SSD1306\obj/../User/driver_ssd1306.c:1729
    if (handle->inited != 1)                                                            /* check handle initialization */
    1b34:	02e69363          	bne	a3,a4,1b5a <ssd1306_set_contrast+0x30>
c:\Users\Paul Scalise\CH592F_SSD1306\obj/../User/driver_ssd1306.c:1722
{
    1b38:	1101                	addi	sp,sp,-32
c:\Users\Paul Scalise\CH592F_SSD1306\obj/../User/driver_ssd1306.c:1735
    }
    
    buf[0] = SSD1306_CMD_CONTRAST_CONTROL;                                              /* set command */
    buf[1] = contrast;                                                                  /* set contrast */
    1b3a:	00b106a3          	sb	a1,13(sp)
c:\Users\Paul Scalise\CH592F_SSD1306\obj/../User/driver_ssd1306.c:1734
    buf[0] = SSD1306_CMD_CONTRAST_CONTROL;                                              /* set command */
    1b3e:	f8100793          	li	a5,-127
c:\Users\Paul Scalise\CH592F_SSD1306\obj/../User/driver_ssd1306.c:1737
  
    return a_ssd1306_multiple_write_byte(handle, (uint8_t *)buf, 2, SSD1306_CMD);       /* write command */
    1b42:	006c                	addi	a1,sp,12
    1b44:	4681                	li	a3,0
    1b46:	4609                	li	a2,2
c:\Users\Paul Scalise\CH592F_SSD1306\obj/../User/driver_ssd1306.c:1722
{
    1b48:	ce06                	sw	ra,28(sp)
c:\Users\Paul Scalise\CH592F_SSD1306\obj/../User/driver_ssd1306.c:1734
    buf[0] = SSD1306_CMD_CONTRAST_CONTROL;                                              /* set command */
    1b4a:	00f10623          	sb	a5,12(sp)
c:\Users\Paul Scalise\CH592F_SSD1306\obj/../User/driver_ssd1306.c:1737
    return a_ssd1306_multiple_write_byte(handle, (uint8_t *)buf, 2, SSD1306_CMD);       /* write command */
    1b4e:	bbcff0ef          	jal	ra,f0a <a_ssd1306_multiple_write_byte>
c:\Users\Paul Scalise\CH592F_SSD1306\obj/../User/driver_ssd1306.c:1738
}
    1b52:	40f2                	lw	ra,28(sp)
    1b54:	6105                	addi	sp,sp,32
    1b56:	8082                	ret
c:\Users\Paul Scalise\CH592F_SSD1306\obj/../User/driver_ssd1306.c:1727
        return 2;                                                                       /* return error */
    1b58:	4789                	li	a5,2
c:\Users\Paul Scalise\CH592F_SSD1306\obj/../User/driver_ssd1306.c:1738
}
    1b5a:	853e                	mv	a0,a5
    1b5c:	8082                	ret

00001b5e <ssd1306_set_charge_pump>:
ssd1306_set_charge_pump():
c:\Users\Paul Scalise\CH592F_SSD1306\obj/../User/driver_ssd1306.c:1755
 */
uint8_t ssd1306_set_charge_pump(ssd1306_handle_t *handle, ssd1306_charge_pump_t enable)
{
    uint8_t buf[2];

    if (handle == NULL)                                                                 /* check handle */
    1b5e:	c915                	beqz	a0,1b92 <ssd1306_set_charge_pump+0x34>
c:\Users\Paul Scalise\CH592F_SSD1306\obj/../User/driver_ssd1306.c:1759
    {
        return 2;                                                                       /* return error */
    }
    if (handle->inited != 1)                                                            /* check handle initialization */
    1b60:	03854683          	lbu	a3,56(a0)
    1b64:	4705                	li	a4,1
c:\Users\Paul Scalise\CH592F_SSD1306\obj/../User/driver_ssd1306.c:1761
    {
        return 3;                                                                       /* return error */
    1b66:	478d                	li	a5,3
c:\Users\Paul Scalise\CH592F_SSD1306\obj/../User/driver_ssd1306.c:1759
    if (handle->inited != 1)                                                            /* check handle initialization */
    1b68:	02e69663          	bne	a3,a4,1b94 <ssd1306_set_charge_pump+0x36>
c:\Users\Paul Scalise\CH592F_SSD1306\obj/../User/driver_ssd1306.c:1765
    }
    
    buf[0] = SSD1306_CMD_CHARGE_PUMP_SETTING;                                           /* set command */
    buf[1] = (uint8_t)(0x10 | (enable << 2));                                           /* set charge pump */
    1b6c:	058a                	slli	a1,a1,0x2
c:\Users\Paul Scalise\CH592F_SSD1306\obj/../User/driver_ssd1306.c:1752
{
    1b6e:	1101                	addi	sp,sp,-32
c:\Users\Paul Scalise\CH592F_SSD1306\obj/../User/driver_ssd1306.c:1765
    buf[1] = (uint8_t)(0x10 | (enable << 2));                                           /* set charge pump */
    1b70:	0105e593          	ori	a1,a1,16
    1b74:	00b106a3          	sb	a1,13(sp)
c:\Users\Paul Scalise\CH592F_SSD1306\obj/../User/driver_ssd1306.c:1764
    buf[0] = SSD1306_CMD_CHARGE_PUMP_SETTING;                                           /* set command */
    1b78:	f8d00793          	li	a5,-115
c:\Users\Paul Scalise\CH592F_SSD1306\obj/../User/driver_ssd1306.c:1767
 
    return a_ssd1306_multiple_write_byte(handle, (uint8_t *)buf, 2, SSD1306_CMD);       /* write command */
    1b7c:	006c                	addi	a1,sp,12
    1b7e:	4681                	li	a3,0
    1b80:	4609                	li	a2,2
c:\Users\Paul Scalise\CH592F_SSD1306\obj/../User/driver_ssd1306.c:1752
{
    1b82:	ce06                	sw	ra,28(sp)
c:\Users\Paul Scalise\CH592F_SSD1306\obj/../User/driver_ssd1306.c:1764
    buf[0] = SSD1306_CMD_CHARGE_PUMP_SETTING;                                           /* set command */
    1b84:	00f10623          	sb	a5,12(sp)
c:\Users\Paul Scalise\CH592F_SSD1306\obj/../User/driver_ssd1306.c:1767
    return a_ssd1306_multiple_write_byte(handle, (uint8_t *)buf, 2, SSD1306_CMD);       /* write command */
    1b88:	b82ff0ef          	jal	ra,f0a <a_ssd1306_multiple_write_byte>
c:\Users\Paul Scalise\CH592F_SSD1306\obj/../User/driver_ssd1306.c:1768
}
    1b8c:	40f2                	lw	ra,28(sp)
    1b8e:	6105                	addi	sp,sp,32
    1b90:	8082                	ret
c:\Users\Paul Scalise\CH592F_SSD1306\obj/../User/driver_ssd1306.c:1757
        return 2;                                                                       /* return error */
    1b92:	4789                	li	a5,2
c:\Users\Paul Scalise\CH592F_SSD1306\obj/../User/driver_ssd1306.c:1768
}
    1b94:	853e                	mv	a0,a5
    1b96:	8082                	ret

00001b98 <ssd1306_set_segment_remap>:
ssd1306_set_segment_remap():
c:\Users\Paul Scalise\CH592F_SSD1306\obj/../User/driver_ssd1306.c:1783
 *            - 3 handle is not initialized
 * @note      none
 */
uint8_t ssd1306_set_segment_remap(ssd1306_handle_t *handle, ssd1306_segment_column_remap_t remap)
{
    if (handle == NULL)                                                                                /* check handle */
    1b98:	cd19                	beqz	a0,1bb6 <ssd1306_set_segment_remap+0x1e>
c:\Users\Paul Scalise\CH592F_SSD1306\obj/../User/driver_ssd1306.c:1787
    {
        return 2;                                                                                      /* return error */
    }
    if (handle->inited != 1)                                                                           /* check handle initialization */
    1b9a:	03854703          	lbu	a4,56(a0)
    1b9e:	4785                	li	a5,1
    1ba0:	00f71d63          	bne	a4,a5,1bba <ssd1306_set_segment_remap+0x22>
c:\Users\Paul Scalise\CH592F_SSD1306\obj/../User/driver_ssd1306.c:1794
        return 3;                                                                                      /* return error */
    }
    
    if (remap != 0)                                                                                    /* check remap */
    {
        return a_ssd1306_write_byte(handle, SSD1306_CMD_COLUMN_127_MAPPED_TO_SEG0, SSD1306_CMD);       /* write remap */
    1ba4:	4601                	li	a2,0
c:\Users\Paul Scalise\CH592F_SSD1306\obj/../User/driver_ssd1306.c:1792
    if (remap != 0)                                                                                    /* check remap */
    1ba6:	c589                	beqz	a1,1bb0 <ssd1306_set_segment_remap+0x18>
c:\Users\Paul Scalise\CH592F_SSD1306\obj/../User/driver_ssd1306.c:1794
        return a_ssd1306_write_byte(handle, SSD1306_CMD_COLUMN_127_MAPPED_TO_SEG0, SSD1306_CMD);       /* write remap */
    1ba8:	0a100593          	li	a1,161
c:\Users\Paul Scalise\CH592F_SSD1306\obj/../User/driver_ssd1306.c:1798
    }
    else
    {
        return a_ssd1306_write_byte(handle, SSD1306_CMD_COLUMN_0_MAPPED_TO_SEG0, SSD1306_CMD);         /* write remap */
    1bac:	adcff06f          	j	e88 <a_ssd1306_write_byte>
    1bb0:	0a000593          	li	a1,160
    1bb4:	bfe5                	j	1bac <ssd1306_set_segment_remap+0x14>
c:\Users\Paul Scalise\CH592F_SSD1306\obj/../User/driver_ssd1306.c:1785
        return 2;                                                                                      /* return error */
    1bb6:	4509                	li	a0,2
    1bb8:	8082                	ret
c:\Users\Paul Scalise\CH592F_SSD1306\obj/../User/driver_ssd1306.c:1789
        return 3;                                                                                      /* return error */
    1bba:	450d                	li	a0,3
c:\Users\Paul Scalise\CH592F_SSD1306\obj/../User/driver_ssd1306.c:1800
    }
}
    1bbc:	8082                	ret

00001bbe <ssd1306_set_entire_display>:
ssd1306_set_entire_display():
c:\Users\Paul Scalise\CH592F_SSD1306\obj/../User/driver_ssd1306.c:1868
 *            - 3 handle is not initialized
 * @note      none
 */
uint8_t ssd1306_set_entire_display(ssd1306_handle_t *handle, ssd1306_entire_display_t enable)
{
    if (handle == NULL)                                                                         /* check handle */
    1bbe:	cd19                	beqz	a0,1bdc <ssd1306_set_entire_display+0x1e>
c:\Users\Paul Scalise\CH592F_SSD1306\obj/../User/driver_ssd1306.c:1872
    {
        return 2;                                                                               /* return error */
    }
    if (handle->inited != 1)                                                                    /* check handle initialization */
    1bc0:	03854703          	lbu	a4,56(a0)
    1bc4:	4785                	li	a5,1
    1bc6:	00f71d63          	bne	a4,a5,1be0 <ssd1306_set_entire_display+0x22>
c:\Users\Paul Scalise\CH592F_SSD1306\obj/../User/driver_ssd1306.c:1879
        return 3;                                                                               /* return error */
    }
    
    if (enable != 0)                                                                            /* if enable */
    {
        return a_ssd1306_write_byte(handle, SSD1306_CMD_ENTIRE_DISPLAY_ON, SSD1306_CMD);        /* write command */
    1bca:	4601                	li	a2,0
c:\Users\Paul Scalise\CH592F_SSD1306\obj/../User/driver_ssd1306.c:1877
    if (enable != 0)                                                                            /* if enable */
    1bcc:	c589                	beqz	a1,1bd6 <ssd1306_set_entire_display+0x18>
c:\Users\Paul Scalise\CH592F_SSD1306\obj/../User/driver_ssd1306.c:1879
        return a_ssd1306_write_byte(handle, SSD1306_CMD_ENTIRE_DISPLAY_ON, SSD1306_CMD);        /* write command */
    1bce:	0a500593          	li	a1,165
c:\Users\Paul Scalise\CH592F_SSD1306\obj/../User/driver_ssd1306.c:1883
    }
    else
    {
        return a_ssd1306_write_byte(handle, SSD1306_CMD_ENTIRE_DISPLAY_OFF, SSD1306_CMD);       /* write command */
    1bd2:	ab6ff06f          	j	e88 <a_ssd1306_write_byte>
    1bd6:	0a400593          	li	a1,164
    1bda:	bfe5                	j	1bd2 <ssd1306_set_entire_display+0x14>
c:\Users\Paul Scalise\CH592F_SSD1306\obj/../User/driver_ssd1306.c:1870
        return 2;                                                                               /* return error */
    1bdc:	4509                	li	a0,2
    1bde:	8082                	ret
c:\Users\Paul Scalise\CH592F_SSD1306\obj/../User/driver_ssd1306.c:1874
        return 3;                                                                               /* return error */
    1be0:	450d                	li	a0,3
c:\Users\Paul Scalise\CH592F_SSD1306\obj/../User/driver_ssd1306.c:1885
    }
}
    1be2:	8082                	ret

00001be4 <ssd1306_set_display_mode>:
ssd1306_set_display_mode():
c:\Users\Paul Scalise\CH592F_SSD1306\obj/../User/driver_ssd1306.c:1900
 *            - 3 handle is not initialized
 * @note      none
 */
uint8_t ssd1306_set_display_mode(ssd1306_handle_t *handle, ssd1306_display_mode_t mode)
{
    if (handle == NULL)                                                                         /* check handle */
    1be4:	cd19                	beqz	a0,1c02 <ssd1306_set_display_mode+0x1e>
c:\Users\Paul Scalise\CH592F_SSD1306\obj/../User/driver_ssd1306.c:1904
    {
        return 2;                                                                               /* return error */
    }
    if (handle->inited != 1)                                                                    /* check handle initialization */
    1be6:	03854703          	lbu	a4,56(a0)
    1bea:	4785                	li	a5,1
    1bec:	00f71d63          	bne	a4,a5,1c06 <ssd1306_set_display_mode+0x22>
c:\Users\Paul Scalise\CH592F_SSD1306\obj/../User/driver_ssd1306.c:1911
        return 3;                                                                               /* return error */
    }
    
    if (mode != 0)                                                                              /* check mode */
    {
        return a_ssd1306_write_byte(handle, SSD1306_CMD_INVERSE_DISPLAY, SSD1306_CMD);          /* write command */
    1bf0:	4601                	li	a2,0
c:\Users\Paul Scalise\CH592F_SSD1306\obj/../User/driver_ssd1306.c:1909
    if (mode != 0)                                                                              /* check mode */
    1bf2:	c589                	beqz	a1,1bfc <ssd1306_set_display_mode+0x18>
c:\Users\Paul Scalise\CH592F_SSD1306\obj/../User/driver_ssd1306.c:1911
        return a_ssd1306_write_byte(handle, SSD1306_CMD_INVERSE_DISPLAY, SSD1306_CMD);          /* write command */
    1bf4:	0a700593          	li	a1,167
c:\Users\Paul Scalise\CH592F_SSD1306\obj/../User/driver_ssd1306.c:1915
    }
    else
    {
        return a_ssd1306_write_byte(handle, SSD1306_CMD_NORMAL_DISPLAY, SSD1306_CMD);           /* write command */
    1bf8:	a90ff06f          	j	e88 <a_ssd1306_write_byte>
    1bfc:	0a600593          	li	a1,166
    1c00:	bfe5                	j	1bf8 <ssd1306_set_display_mode+0x14>
c:\Users\Paul Scalise\CH592F_SSD1306\obj/../User/driver_ssd1306.c:1902
        return 2;                                                                               /* return error */
    1c02:	4509                	li	a0,2
    1c04:	8082                	ret
c:\Users\Paul Scalise\CH592F_SSD1306\obj/../User/driver_ssd1306.c:1906
        return 3;                                                                               /* return error */
    1c06:	450d                	li	a0,3
c:\Users\Paul Scalise\CH592F_SSD1306\obj/../User/driver_ssd1306.c:1917
    }
}
    1c08:	8082                	ret

00001c0a <ssd1306_set_multiplex_ratio>:
ssd1306_set_multiplex_ratio():
c:\Users\Paul Scalise\CH592F_SSD1306\obj/../User/driver_ssd1306.c:1936
 */
uint8_t ssd1306_set_multiplex_ratio(ssd1306_handle_t *handle, uint8_t multiplex)
{
    uint8_t buf[2];

    if (handle == NULL)                                                                 /* check handle */
    1c0a:	c125                	beqz	a0,1c6a <ssd1306_set_multiplex_ratio+0x60>
c:\Users\Paul Scalise\CH592F_SSD1306\obj/../User/driver_ssd1306.c:1940
    {
        return 2;                                                                       /* return error */
    }
    if (handle->inited != 1)                                                            /* check handle initialization */
    1c0c:	03854603          	lbu	a2,56(a0)
    1c10:	4685                	li	a3,1
c:\Users\Paul Scalise\CH592F_SSD1306\obj/../User/driver_ssd1306.c:1942
    {
        return 3;                                                                       /* return error */
    1c12:	470d                	li	a4,3
c:\Users\Paul Scalise\CH592F_SSD1306\obj/../User/driver_ssd1306.c:1940
    if (handle->inited != 1)                                                            /* check handle initialization */
    1c14:	04d61c63          	bne	a2,a3,1c6c <ssd1306_set_multiplex_ratio+0x62>
c:\Users\Paul Scalise\CH592F_SSD1306\obj/../User/driver_ssd1306.c:1933
{
    1c18:	1101                	addi	sp,sp,-32
    1c1a:	ce06                	sw	ra,28(sp)
c:\Users\Paul Scalise\CH592F_SSD1306\obj/../User/driver_ssd1306.c:1944
    }
    if (multiplex < 0x0F)                                                               /* check multiplex */
    1c1c:	4739                	li	a4,14
    1c1e:	00b76d63          	bltu	a4,a1,1c38 <ssd1306_set_multiplex_ratio+0x2e>
c:\Users\Paul Scalise\CH592F_SSD1306\obj/../User/driver_ssd1306.c:1946
    {
        handle->debug_print("ssd1306: multiplex is too small.\n");                      /* multiplex is too small */
    1c22:	591c                	lw	a5,48(a0)
    1c24:	00004517          	auipc	a0,0x4
    1c28:	48050513          	addi	a0,a0,1152 # 60a4 <gsc_ssd1306_ascii_2412+0x12d4>
    1c2c:	9782                	jalr	a5
c:\Users\Paul Scalise\CH592F_SSD1306\obj/../User/driver_ssd1306.c:1948
       
        return 4;                                                                       /* return error */
    1c2e:	4711                	li	a4,4
c:\Users\Paul Scalise\CH592F_SSD1306\obj/../User/driver_ssd1306.c:1961
    
    buf[0] = SSD1306_CMD_MULTIPLEX_RATIO ;                                              /* set command */
    buf[1] = multiplex;                                                                 /* set multiplex */
  
    return a_ssd1306_multiple_write_byte(handle, (uint8_t *)buf, 2, SSD1306_CMD);       /* write command */
}
    1c30:	40f2                	lw	ra,28(sp)
    1c32:	853a                	mv	a0,a4
    1c34:	6105                	addi	sp,sp,32
    1c36:	8082                	ret
c:\Users\Paul Scalise\CH592F_SSD1306\obj/../User/driver_ssd1306.c:1950
    if (multiplex > 0x3F)                                                               /* check multiplex */
    1c38:	03f00713          	li	a4,63
    1c3c:	00b77a63          	bgeu	a4,a1,1c50 <ssd1306_set_multiplex_ratio+0x46>
c:\Users\Paul Scalise\CH592F_SSD1306\obj/../User/driver_ssd1306.c:1952
        handle->debug_print("ssd1306: multiplex is too large.\n");                      /* multiplex is too large */
    1c40:	591c                	lw	a5,48(a0)
    1c42:	00004517          	auipc	a0,0x4
    1c46:	48650513          	addi	a0,a0,1158 # 60c8 <gsc_ssd1306_ascii_2412+0x12f8>
    1c4a:	9782                	jalr	a5
c:\Users\Paul Scalise\CH592F_SSD1306\obj/../User/driver_ssd1306.c:1954
        return 5;                                                                       /* return error */
    1c4c:	4715                	li	a4,5
    1c4e:	b7cd                	j	1c30 <ssd1306_set_multiplex_ratio+0x26>
c:\Users\Paul Scalise\CH592F_SSD1306\obj/../User/driver_ssd1306.c:1957
    buf[0] = SSD1306_CMD_MULTIPLEX_RATIO ;                                              /* set command */
    1c50:	fa800793          	li	a5,-88
c:\Users\Paul Scalise\CH592F_SSD1306\obj/../User/driver_ssd1306.c:1958
    buf[1] = multiplex;                                                                 /* set multiplex */
    1c54:	00b106a3          	sb	a1,13(sp)
c:\Users\Paul Scalise\CH592F_SSD1306\obj/../User/driver_ssd1306.c:1960
    return a_ssd1306_multiple_write_byte(handle, (uint8_t *)buf, 2, SSD1306_CMD);       /* write command */
    1c58:	4681                	li	a3,0
    1c5a:	4609                	li	a2,2
    1c5c:	006c                	addi	a1,sp,12
c:\Users\Paul Scalise\CH592F_SSD1306\obj/../User/driver_ssd1306.c:1957
    buf[0] = SSD1306_CMD_MULTIPLEX_RATIO ;                                              /* set command */
    1c5e:	00f10623          	sb	a5,12(sp)
c:\Users\Paul Scalise\CH592F_SSD1306\obj/../User/driver_ssd1306.c:1960
    return a_ssd1306_multiple_write_byte(handle, (uint8_t *)buf, 2, SSD1306_CMD);       /* write command */
    1c62:	aa8ff0ef          	jal	ra,f0a <a_ssd1306_multiple_write_byte>
    1c66:	872a                	mv	a4,a0
    1c68:	b7e1                	j	1c30 <ssd1306_set_multiplex_ratio+0x26>
c:\Users\Paul Scalise\CH592F_SSD1306\obj/../User/driver_ssd1306.c:1938
        return 2;                                                                       /* return error */
    1c6a:	4709                	li	a4,2
c:\Users\Paul Scalise\CH592F_SSD1306\obj/../User/driver_ssd1306.c:1961
}
    1c6c:	853a                	mv	a0,a4
    1c6e:	8082                	ret

00001c70 <ssd1306_set_display>:
ssd1306_set_display():
c:\Users\Paul Scalise\CH592F_SSD1306\obj/../User/driver_ssd1306.c:1976
 *            - 3 handle is not initialized
 * @note      none
 */
uint8_t ssd1306_set_display(ssd1306_handle_t *handle, ssd1306_display_t on_off)
{
    if (handle == NULL)                                                                  /* check handle */
    1c70:	cd19                	beqz	a0,1c8e <ssd1306_set_display+0x1e>
c:\Users\Paul Scalise\CH592F_SSD1306\obj/../User/driver_ssd1306.c:1980
    {
        return 2;                                                                        /* return error */
    }
    if (handle->inited != 1)                                                             /* check handle initialization */
    1c72:	03854703          	lbu	a4,56(a0)
    1c76:	4785                	li	a5,1
    1c78:	00f71d63          	bne	a4,a5,1c92 <ssd1306_set_display+0x22>
c:\Users\Paul Scalise\CH592F_SSD1306\obj/../User/driver_ssd1306.c:1987
        return 3;                                                                        /* return error */
    }
    
    if (on_off != 0)                                                                     /* check on off */
    {
        return a_ssd1306_write_byte(handle, SSD1306_CMD_DISPLAY_ON, SSD1306_CMD);        /* write command */
    1c7c:	4601                	li	a2,0
c:\Users\Paul Scalise\CH592F_SSD1306\obj/../User/driver_ssd1306.c:1985
    if (on_off != 0)                                                                     /* check on off */
    1c7e:	c589                	beqz	a1,1c88 <ssd1306_set_display+0x18>
c:\Users\Paul Scalise\CH592F_SSD1306\obj/../User/driver_ssd1306.c:1987
        return a_ssd1306_write_byte(handle, SSD1306_CMD_DISPLAY_ON, SSD1306_CMD);        /* write command */
    1c80:	0af00593          	li	a1,175
c:\Users\Paul Scalise\CH592F_SSD1306\obj/../User/driver_ssd1306.c:1991
    }
    else
    {
        return a_ssd1306_write_byte(handle, SSD1306_CMD_DISPLAY_OFF, SSD1306_CMD);       /* write command */
    1c84:	a04ff06f          	j	e88 <a_ssd1306_write_byte>
    1c88:	0ae00593          	li	a1,174
    1c8c:	bfe5                	j	1c84 <ssd1306_set_display+0x14>
c:\Users\Paul Scalise\CH592F_SSD1306\obj/../User/driver_ssd1306.c:1978
        return 2;                                                                        /* return error */
    1c8e:	4509                	li	a0,2
    1c90:	8082                	ret
c:\Users\Paul Scalise\CH592F_SSD1306\obj/../User/driver_ssd1306.c:1982
        return 3;                                                                        /* return error */
    1c92:	450d                	li	a0,3
c:\Users\Paul Scalise\CH592F_SSD1306\obj/../User/driver_ssd1306.c:1993
    }
}
    1c94:	8082                	ret

00001c96 <ssd1306_set_scan_direction>:
ssd1306_set_scan_direction():
c:\Users\Paul Scalise\CH592F_SSD1306\obj/../User/driver_ssd1306.c:2040
 *            - 3 handle is not initialized
 * @note      none
 */
uint8_t ssd1306_set_scan_direction(ssd1306_handle_t *handle, ssd1306_scan_direction_t dir)
{
    if (handle == NULL)                                                                                  /* check handle */
    1c96:	cd19                	beqz	a0,1cb4 <ssd1306_set_scan_direction+0x1e>
c:\Users\Paul Scalise\CH592F_SSD1306\obj/../User/driver_ssd1306.c:2044
    {
        return 2;                                                                                        /* return error */
    }
    if (handle->inited != 1)                                                                             /* check handle initialization */
    1c98:	03854703          	lbu	a4,56(a0)
    1c9c:	4785                	li	a5,1
    1c9e:	00f71d63          	bne	a4,a5,1cb8 <ssd1306_set_scan_direction+0x22>
c:\Users\Paul Scalise\CH592F_SSD1306\obj/../User/driver_ssd1306.c:2051
        return 3;                                                                                        /* return error */
    }
    
    if (dir != 0)                                                                                        /* choose dir */
    {
        return a_ssd1306_write_byte(handle, SSD1306_CMD_SCAN_DIRECTION_COMN_1_START, SSD1306_CMD);       /* write command */
    1ca2:	4601                	li	a2,0
c:\Users\Paul Scalise\CH592F_SSD1306\obj/../User/driver_ssd1306.c:2049
    if (dir != 0)                                                                                        /* choose dir */
    1ca4:	c589                	beqz	a1,1cae <ssd1306_set_scan_direction+0x18>
c:\Users\Paul Scalise\CH592F_SSD1306\obj/../User/driver_ssd1306.c:2051
        return a_ssd1306_write_byte(handle, SSD1306_CMD_SCAN_DIRECTION_COMN_1_START, SSD1306_CMD);       /* write command */
    1ca6:	0c800593          	li	a1,200
c:\Users\Paul Scalise\CH592F_SSD1306\obj/../User/driver_ssd1306.c:2055
    }
    else
    {
        return a_ssd1306_write_byte(handle, SSD1306_CMD_SCAN_DIRECTION_COM0_START, SSD1306_CMD);         /* write command */
    1caa:	9deff06f          	j	e88 <a_ssd1306_write_byte>
    1cae:	0c000593          	li	a1,192
    1cb2:	bfe5                	j	1caa <ssd1306_set_scan_direction+0x14>
c:\Users\Paul Scalise\CH592F_SSD1306\obj/../User/driver_ssd1306.c:2042
        return 2;                                                                                        /* return error */
    1cb4:	4509                	li	a0,2
    1cb6:	8082                	ret
c:\Users\Paul Scalise\CH592F_SSD1306\obj/../User/driver_ssd1306.c:2046
        return 3;                                                                                        /* return error */
    1cb8:	450d                	li	a0,3
c:\Users\Paul Scalise\CH592F_SSD1306\obj/../User/driver_ssd1306.c:2057
    }
}
    1cba:	8082                	ret

00001cbc <ssd1306_set_display_offset>:
ssd1306_set_display_offset():
c:\Users\Paul Scalise\CH592F_SSD1306\obj/../User/driver_ssd1306.c:2075
 */
uint8_t ssd1306_set_display_offset(ssd1306_handle_t *handle, uint8_t offset)
{
    uint8_t buf[2];

    if (handle == NULL)                                                                 /* check handle */
    1cbc:	c529                	beqz	a0,1d06 <ssd1306_set_display_offset+0x4a>
c:\Users\Paul Scalise\CH592F_SSD1306\obj/../User/driver_ssd1306.c:2079
    {
        return 2;                                                                       /* return error */
    }
    if (handle->inited != 1)                                                            /* check handle initialization */
    1cbe:	03854603          	lbu	a2,56(a0)
    1cc2:	4685                	li	a3,1
c:\Users\Paul Scalise\CH592F_SSD1306\obj/../User/driver_ssd1306.c:2081
    {
        return 3;                                                                       /* return error */
    1cc4:	470d                	li	a4,3
c:\Users\Paul Scalise\CH592F_SSD1306\obj/../User/driver_ssd1306.c:2079
    if (handle->inited != 1)                                                            /* check handle initialization */
    1cc6:	04d61163          	bne	a2,a3,1d08 <ssd1306_set_display_offset+0x4c>
c:\Users\Paul Scalise\CH592F_SSD1306\obj/../User/driver_ssd1306.c:2072
{
    1cca:	1101                	addi	sp,sp,-32
    1ccc:	ce06                	sw	ra,28(sp)
c:\Users\Paul Scalise\CH592F_SSD1306\obj/../User/driver_ssd1306.c:2083
    }
    if (offset > 0x3F)                                                                  /* check offset */
    1cce:	03f00713          	li	a4,63
    1cd2:	00b77d63          	bgeu	a4,a1,1cec <ssd1306_set_display_offset+0x30>
c:\Users\Paul Scalise\CH592F_SSD1306\obj/../User/driver_ssd1306.c:2085
    {
        handle->debug_print("ssd1306: offset is invalid.\n");                           /* offset is invalid */
    1cd6:	591c                	lw	a5,48(a0)
    1cd8:	00004517          	auipc	a0,0x4
    1cdc:	30850513          	addi	a0,a0,776 # 5fe0 <gsc_ssd1306_ascii_2412+0x1210>
    1ce0:	9782                	jalr	a5
c:\Users\Paul Scalise\CH592F_SSD1306\obj/../User/driver_ssd1306.c:2087
       
        return 4;                                                                       /* return error */
    1ce2:	4711                	li	a4,4
c:\Users\Paul Scalise\CH592F_SSD1306\obj/../User/driver_ssd1306.c:2094
    
    buf[0] = SSD1306_CMD_DISPLAY_OFFSET ;                                               /* set command */
    buf[1] = offset;                                                                    /* set offset */
  
    return a_ssd1306_multiple_write_byte(handle, (uint8_t *)buf, 2, SSD1306_CMD);       /* write command */
}
    1ce4:	40f2                	lw	ra,28(sp)
    1ce6:	853a                	mv	a0,a4
    1ce8:	6105                	addi	sp,sp,32
    1cea:	8082                	ret
c:\Users\Paul Scalise\CH592F_SSD1306\obj/../User/driver_ssd1306.c:2090
    buf[0] = SSD1306_CMD_DISPLAY_OFFSET ;                                               /* set command */
    1cec:	fd300793          	li	a5,-45
c:\Users\Paul Scalise\CH592F_SSD1306\obj/../User/driver_ssd1306.c:2091
    buf[1] = offset;                                                                    /* set offset */
    1cf0:	00b106a3          	sb	a1,13(sp)
c:\Users\Paul Scalise\CH592F_SSD1306\obj/../User/driver_ssd1306.c:2093
    return a_ssd1306_multiple_write_byte(handle, (uint8_t *)buf, 2, SSD1306_CMD);       /* write command */
    1cf4:	4681                	li	a3,0
    1cf6:	4609                	li	a2,2
    1cf8:	006c                	addi	a1,sp,12
c:\Users\Paul Scalise\CH592F_SSD1306\obj/../User/driver_ssd1306.c:2090
    buf[0] = SSD1306_CMD_DISPLAY_OFFSET ;                                               /* set command */
    1cfa:	00f10623          	sb	a5,12(sp)
c:\Users\Paul Scalise\CH592F_SSD1306\obj/../User/driver_ssd1306.c:2093
    return a_ssd1306_multiple_write_byte(handle, (uint8_t *)buf, 2, SSD1306_CMD);       /* write command */
    1cfe:	a0cff0ef          	jal	ra,f0a <a_ssd1306_multiple_write_byte>
    1d02:	872a                	mv	a4,a0
    1d04:	b7c5                	j	1ce4 <ssd1306_set_display_offset+0x28>
c:\Users\Paul Scalise\CH592F_SSD1306\obj/../User/driver_ssd1306.c:2077
        return 2;                                                                       /* return error */
    1d06:	4709                	li	a4,2
c:\Users\Paul Scalise\CH592F_SSD1306\obj/../User/driver_ssd1306.c:2094
}
    1d08:	853a                	mv	a0,a4
    1d0a:	8082                	ret

00001d0c <ssd1306_set_display_clock>:
ssd1306_set_display_clock():
c:\Users\Paul Scalise\CH592F_SSD1306\obj/../User/driver_ssd1306.c:2114
 */
uint8_t ssd1306_set_display_clock(ssd1306_handle_t *handle, uint8_t oscillator_frequency, uint8_t clock_divide)
{
    uint8_t buf[2];
    
    if (handle == NULL)                                                                 /* check handle */
    1d0c:	c125                	beqz	a0,1d6c <ssd1306_set_display_clock+0x60>
c:\Users\Paul Scalise\CH592F_SSD1306\obj/../User/driver_ssd1306.c:2118
    {
        return 2;                                                                       /* return error */
    }
    if (handle->inited != 1)                                                            /* check handle initialization */
    1d0e:	03854803          	lbu	a6,56(a0)
    1d12:	4685                	li	a3,1
c:\Users\Paul Scalise\CH592F_SSD1306\obj/../User/driver_ssd1306.c:2120
    {
        return 3;                                                                       /* return error */
    1d14:	470d                	li	a4,3
c:\Users\Paul Scalise\CH592F_SSD1306\obj/../User/driver_ssd1306.c:2118
    if (handle->inited != 1)                                                            /* check handle initialization */
    1d16:	04d81c63          	bne	a6,a3,1d6e <ssd1306_set_display_clock+0x62>
c:\Users\Paul Scalise\CH592F_SSD1306\obj/../User/driver_ssd1306.c:2111
{
    1d1a:	1101                	addi	sp,sp,-32
    1d1c:	ce06                	sw	ra,28(sp)
c:\Users\Paul Scalise\CH592F_SSD1306\obj/../User/driver_ssd1306.c:2122
    }
    if (oscillator_frequency> 0x0F)                                                     /* check oscillator_frequency */
    1d1e:	473d                	li	a4,15
    1d20:	00b77d63          	bgeu	a4,a1,1d3a <ssd1306_set_display_clock+0x2e>
c:\Users\Paul Scalise\CH592F_SSD1306\obj/../User/driver_ssd1306.c:2124
    {
        handle->debug_print("ssd1306: oscillator frequency is invalid.\n");             /* oscillator frequency is invalid */
    1d24:	591c                	lw	a5,48(a0)
    1d26:	00004517          	auipc	a0,0x4
    1d2a:	26a50513          	addi	a0,a0,618 # 5f90 <gsc_ssd1306_ascii_2412+0x11c0>
    1d2e:	9782                	jalr	a5
c:\Users\Paul Scalise\CH592F_SSD1306\obj/../User/driver_ssd1306.c:2126
        
        return 4;                                                                       /* return error */
    1d30:	4711                	li	a4,4
c:\Users\Paul Scalise\CH592F_SSD1306\obj/../User/driver_ssd1306.c:2139
    
    buf[0] = SSD1306_CMD_DISPLAY_CLOCK_DIVIDE ;                                         /* set command */
    buf[1] = (oscillator_frequency<<4) | clock_divide;                                  /* set oscillator frequency and clock divide */
  
    return a_ssd1306_multiple_write_byte(handle, (uint8_t *)buf, 2, SSD1306_CMD);       /* write command */
}
    1d32:	40f2                	lw	ra,28(sp)
    1d34:	853a                	mv	a0,a4
    1d36:	6105                	addi	sp,sp,32
    1d38:	8082                	ret
c:\Users\Paul Scalise\CH592F_SSD1306\obj/../User/driver_ssd1306.c:2128
    if (clock_divide> 0x0F)                                                             /* check clock_divide */
    1d3a:	00c77a63          	bgeu	a4,a2,1d4e <ssd1306_set_display_clock+0x42>
c:\Users\Paul Scalise\CH592F_SSD1306\obj/../User/driver_ssd1306.c:2130
        handle->debug_print("ssd1306: clock divide is invalid.\n");                     /* clock divide is invalid */
    1d3e:	591c                	lw	a5,48(a0)
    1d40:	00004517          	auipc	a0,0x4
    1d44:	27c50513          	addi	a0,a0,636 # 5fbc <gsc_ssd1306_ascii_2412+0x11ec>
    1d48:	9782                	jalr	a5
c:\Users\Paul Scalise\CH592F_SSD1306\obj/../User/driver_ssd1306.c:2132
        return 5;                                                                       /* return error */
    1d4a:	4715                	li	a4,5
    1d4c:	b7dd                	j	1d32 <ssd1306_set_display_clock+0x26>
c:\Users\Paul Scalise\CH592F_SSD1306\obj/../User/driver_ssd1306.c:2136
    buf[1] = (oscillator_frequency<<4) | clock_divide;                                  /* set oscillator frequency and clock divide */
    1d4e:	0592                	slli	a1,a1,0x4
    1d50:	8e4d                	or	a2,a2,a1
c:\Users\Paul Scalise\CH592F_SSD1306\obj/../User/driver_ssd1306.c:2135
    buf[0] = SSD1306_CMD_DISPLAY_CLOCK_DIVIDE ;                                         /* set command */
    1d52:	fd500793          	li	a5,-43
c:\Users\Paul Scalise\CH592F_SSD1306\obj/../User/driver_ssd1306.c:2136
    buf[1] = (oscillator_frequency<<4) | clock_divide;                                  /* set oscillator frequency and clock divide */
    1d56:	00c106a3          	sb	a2,13(sp)
c:\Users\Paul Scalise\CH592F_SSD1306\obj/../User/driver_ssd1306.c:2138
    return a_ssd1306_multiple_write_byte(handle, (uint8_t *)buf, 2, SSD1306_CMD);       /* write command */
    1d5a:	4681                	li	a3,0
    1d5c:	4609                	li	a2,2
    1d5e:	006c                	addi	a1,sp,12
c:\Users\Paul Scalise\CH592F_SSD1306\obj/../User/driver_ssd1306.c:2135
    buf[0] = SSD1306_CMD_DISPLAY_CLOCK_DIVIDE ;                                         /* set command */
    1d60:	00f10623          	sb	a5,12(sp)
c:\Users\Paul Scalise\CH592F_SSD1306\obj/../User/driver_ssd1306.c:2138
    return a_ssd1306_multiple_write_byte(handle, (uint8_t *)buf, 2, SSD1306_CMD);       /* write command */
    1d64:	9a6ff0ef          	jal	ra,f0a <a_ssd1306_multiple_write_byte>
    1d68:	872a                	mv	a4,a0
    1d6a:	b7e1                	j	1d32 <ssd1306_set_display_clock+0x26>
c:\Users\Paul Scalise\CH592F_SSD1306\obj/../User/driver_ssd1306.c:2116
        return 2;                                                                       /* return error */
    1d6c:	4709                	li	a4,2
c:\Users\Paul Scalise\CH592F_SSD1306\obj/../User/driver_ssd1306.c:2139
}
    1d6e:	853a                	mv	a0,a4
    1d70:	8082                	ret

00001d72 <ssd1306_set_zoom_in>:
ssd1306_set_zoom_in():
c:\Users\Paul Scalise\CH592F_SSD1306\obj/../User/driver_ssd1306.c:2156
 */
uint8_t ssd1306_set_zoom_in(ssd1306_handle_t *handle, ssd1306_zoom_in_t zoom)
{
    uint8_t buf[2];
    
    if (handle == NULL)                                                                 /* check handle */
    1d72:	c51d                	beqz	a0,1da0 <ssd1306_set_zoom_in+0x2e>
c:\Users\Paul Scalise\CH592F_SSD1306\obj/../User/driver_ssd1306.c:2160
    {
        return 2;                                                                       /* return error */
    }
    if (handle->inited != 1)                                                            /* check handle initialization */
    1d74:	03854683          	lbu	a3,56(a0)
    1d78:	4705                	li	a4,1
c:\Users\Paul Scalise\CH592F_SSD1306\obj/../User/driver_ssd1306.c:2162
    {
        return 3;                                                                       /* return error */
    1d7a:	478d                	li	a5,3
c:\Users\Paul Scalise\CH592F_SSD1306\obj/../User/driver_ssd1306.c:2160
    if (handle->inited != 1)                                                            /* check handle initialization */
    1d7c:	02e69363          	bne	a3,a4,1da2 <ssd1306_set_zoom_in+0x30>
c:\Users\Paul Scalise\CH592F_SSD1306\obj/../User/driver_ssd1306.c:2153
{
    1d80:	1101                	addi	sp,sp,-32
c:\Users\Paul Scalise\CH592F_SSD1306\obj/../User/driver_ssd1306.c:2166
    }
    
    buf[0] = SSD1306_CMD_SET_ZOOM_IN ;                                                  /* set command */
    buf[1] = zoom;                                                                      /* set zoom */
    1d82:	00b106a3          	sb	a1,13(sp)
c:\Users\Paul Scalise\CH592F_SSD1306\obj/../User/driver_ssd1306.c:2165
    buf[0] = SSD1306_CMD_SET_ZOOM_IN ;                                                  /* set command */
    1d86:	fd600793          	li	a5,-42
c:\Users\Paul Scalise\CH592F_SSD1306\obj/../User/driver_ssd1306.c:2168
  
    return a_ssd1306_multiple_write_byte(handle, (uint8_t *)buf, 2, SSD1306_CMD);       /* write command */
    1d8a:	006c                	addi	a1,sp,12
    1d8c:	4681                	li	a3,0
    1d8e:	4609                	li	a2,2
c:\Users\Paul Scalise\CH592F_SSD1306\obj/../User/driver_ssd1306.c:2153
{
    1d90:	ce06                	sw	ra,28(sp)
c:\Users\Paul Scalise\CH592F_SSD1306\obj/../User/driver_ssd1306.c:2165
    buf[0] = SSD1306_CMD_SET_ZOOM_IN ;                                                  /* set command */
    1d92:	00f10623          	sb	a5,12(sp)
c:\Users\Paul Scalise\CH592F_SSD1306\obj/../User/driver_ssd1306.c:2168
    return a_ssd1306_multiple_write_byte(handle, (uint8_t *)buf, 2, SSD1306_CMD);       /* write command */
    1d96:	974ff0ef          	jal	ra,f0a <a_ssd1306_multiple_write_byte>
c:\Users\Paul Scalise\CH592F_SSD1306\obj/../User/driver_ssd1306.c:2169
}
    1d9a:	40f2                	lw	ra,28(sp)
    1d9c:	6105                	addi	sp,sp,32
    1d9e:	8082                	ret
c:\Users\Paul Scalise\CH592F_SSD1306\obj/../User/driver_ssd1306.c:2158
        return 2;                                                                       /* return error */
    1da0:	4789                	li	a5,2
c:\Users\Paul Scalise\CH592F_SSD1306\obj/../User/driver_ssd1306.c:2169
}
    1da2:	853e                	mv	a0,a5
    1da4:	8082                	ret

00001da6 <ssd1306_set_precharge_period>:
ssd1306_set_precharge_period():
c:\Users\Paul Scalise\CH592F_SSD1306\obj/../User/driver_ssd1306.c:2189
 */
uint8_t ssd1306_set_precharge_period(ssd1306_handle_t *handle, uint8_t phase1_period, uint8_t phase2_period)
{
    uint8_t buf[2];

    if (handle == NULL)                                                                 /* check handle */
    1da6:	c125                	beqz	a0,1e06 <ssd1306_set_precharge_period+0x60>
c:\Users\Paul Scalise\CH592F_SSD1306\obj/../User/driver_ssd1306.c:2193
    {
        return 2;                                                                       /* return error */
    }
    if (handle->inited != 1)                                                            /* check handle initialization */
    1da8:	03854803          	lbu	a6,56(a0)
    1dac:	4685                	li	a3,1
c:\Users\Paul Scalise\CH592F_SSD1306\obj/../User/driver_ssd1306.c:2195
    {
        return 3;                                                                       /* return error */
    1dae:	470d                	li	a4,3
c:\Users\Paul Scalise\CH592F_SSD1306\obj/../User/driver_ssd1306.c:2193
    if (handle->inited != 1)                                                            /* check handle initialization */
    1db0:	04d81c63          	bne	a6,a3,1e08 <ssd1306_set_precharge_period+0x62>
c:\Users\Paul Scalise\CH592F_SSD1306\obj/../User/driver_ssd1306.c:2186
{
    1db4:	1101                	addi	sp,sp,-32
    1db6:	ce06                	sw	ra,28(sp)
c:\Users\Paul Scalise\CH592F_SSD1306\obj/../User/driver_ssd1306.c:2197
    }
    if (phase1_period> 0x0F)                                                            /* check phase1 period */
    1db8:	473d                	li	a4,15
    1dba:	00b77d63          	bgeu	a4,a1,1dd4 <ssd1306_set_precharge_period+0x2e>
c:\Users\Paul Scalise\CH592F_SSD1306\obj/../User/driver_ssd1306.c:2199
    {
        handle->debug_print("ssd1306: phase1 period is invalid.\n");                    /* phase1 period is invalid */
    1dbe:	591c                	lw	a5,48(a0)
    1dc0:	00004517          	auipc	a0,0x4
    1dc4:	32c50513          	addi	a0,a0,812 # 60ec <gsc_ssd1306_ascii_2412+0x131c>
    1dc8:	9782                	jalr	a5
c:\Users\Paul Scalise\CH592F_SSD1306\obj/../User/driver_ssd1306.c:2201
        
        return 4;                                                                       /* return error */
    1dca:	4711                	li	a4,4
c:\Users\Paul Scalise\CH592F_SSD1306\obj/../User/driver_ssd1306.c:2214
    
    buf[0] = SSD1306_CMD_PRE_CHARGE_PERIOD;                                             /* set command */
    buf[1] = (phase2_period << 4) | phase1_period;                                      /* set period */
  
    return a_ssd1306_multiple_write_byte(handle, (uint8_t *)buf, 2, SSD1306_CMD);       /* write command */
}
    1dcc:	40f2                	lw	ra,28(sp)
    1dce:	853a                	mv	a0,a4
    1dd0:	6105                	addi	sp,sp,32
    1dd2:	8082                	ret
c:\Users\Paul Scalise\CH592F_SSD1306\obj/../User/driver_ssd1306.c:2203
    if (phase2_period> 0x0F)                                                            /* check phase2 period */
    1dd4:	00c77a63          	bgeu	a4,a2,1de8 <ssd1306_set_precharge_period+0x42>
c:\Users\Paul Scalise\CH592F_SSD1306\obj/../User/driver_ssd1306.c:2205
        handle->debug_print("ssd1306: phase2 period is invalid.\n");                    /* phase2 period is invalid */
    1dd8:	591c                	lw	a5,48(a0)
    1dda:	00004517          	auipc	a0,0x4
    1dde:	33650513          	addi	a0,a0,822 # 6110 <gsc_ssd1306_ascii_2412+0x1340>
    1de2:	9782                	jalr	a5
c:\Users\Paul Scalise\CH592F_SSD1306\obj/../User/driver_ssd1306.c:2207
        return 5;                                                                       /* return error */
    1de4:	4715                	li	a4,5
    1de6:	b7dd                	j	1dcc <ssd1306_set_precharge_period+0x26>
c:\Users\Paul Scalise\CH592F_SSD1306\obj/../User/driver_ssd1306.c:2211
    buf[1] = (phase2_period << 4) | phase1_period;                                      /* set period */
    1de8:	0612                	slli	a2,a2,0x4
    1dea:	8dd1                	or	a1,a1,a2
c:\Users\Paul Scalise\CH592F_SSD1306\obj/../User/driver_ssd1306.c:2210
    buf[0] = SSD1306_CMD_PRE_CHARGE_PERIOD;                                             /* set command */
    1dec:	fd900793          	li	a5,-39
c:\Users\Paul Scalise\CH592F_SSD1306\obj/../User/driver_ssd1306.c:2211
    buf[1] = (phase2_period << 4) | phase1_period;                                      /* set period */
    1df0:	00b106a3          	sb	a1,13(sp)
c:\Users\Paul Scalise\CH592F_SSD1306\obj/../User/driver_ssd1306.c:2213
    return a_ssd1306_multiple_write_byte(handle, (uint8_t *)buf, 2, SSD1306_CMD);       /* write command */
    1df4:	4681                	li	a3,0
    1df6:	4609                	li	a2,2
    1df8:	006c                	addi	a1,sp,12
c:\Users\Paul Scalise\CH592F_SSD1306\obj/../User/driver_ssd1306.c:2210
    buf[0] = SSD1306_CMD_PRE_CHARGE_PERIOD;                                             /* set command */
    1dfa:	00f10623          	sb	a5,12(sp)
c:\Users\Paul Scalise\CH592F_SSD1306\obj/../User/driver_ssd1306.c:2213
    return a_ssd1306_multiple_write_byte(handle, (uint8_t *)buf, 2, SSD1306_CMD);       /* write command */
    1dfe:	90cff0ef          	jal	ra,f0a <a_ssd1306_multiple_write_byte>
    1e02:	872a                	mv	a4,a0
    1e04:	b7e1                	j	1dcc <ssd1306_set_precharge_period+0x26>
c:\Users\Paul Scalise\CH592F_SSD1306\obj/../User/driver_ssd1306.c:2191
        return 2;                                                                       /* return error */
    1e06:	4709                	li	a4,2
c:\Users\Paul Scalise\CH592F_SSD1306\obj/../User/driver_ssd1306.c:2214
}
    1e08:	853a                	mv	a0,a4
    1e0a:	8082                	ret

00001e0c <ssd1306_set_com_pins_hardware_conf>:
ssd1306_set_com_pins_hardware_conf():
c:\Users\Paul Scalise\CH592F_SSD1306\obj/../User/driver_ssd1306.c:2232
 */
uint8_t ssd1306_set_com_pins_hardware_conf(ssd1306_handle_t *handle, ssd1306_pin_conf_t conf, ssd1306_left_right_remap_t remap)
{
    uint8_t buf[2];
    
    if (handle == NULL)                                                                 /* check handle */
    1e0c:	cd05                	beqz	a0,1e44 <ssd1306_set_com_pins_hardware_conf+0x38>
c:\Users\Paul Scalise\CH592F_SSD1306\obj/../User/driver_ssd1306.c:2236
    {
        return 2;                                                                       /* return error */
    }
    if (handle->inited != 1)                                                            /* check handle initialization */
    1e0e:	03854683          	lbu	a3,56(a0)
    1e12:	4705                	li	a4,1
c:\Users\Paul Scalise\CH592F_SSD1306\obj/../User/driver_ssd1306.c:2238
    {
        return 3;                                                                       /* return error */
    1e14:	478d                	li	a5,3
c:\Users\Paul Scalise\CH592F_SSD1306\obj/../User/driver_ssd1306.c:2236
    if (handle->inited != 1)                                                            /* check handle initialization */
    1e16:	02e69863          	bne	a3,a4,1e46 <ssd1306_set_com_pins_hardware_conf+0x3a>
c:\Users\Paul Scalise\CH592F_SSD1306\obj/../User/driver_ssd1306.c:2242
    }
    
    buf[0] = SSD1306_CMD_COM_PINS_CONF;                                                 /* set command */
    buf[1] = (uint8_t)((conf<<4) | (remap<<5) |0x02);                                   /* set com pins */
    1e1a:	0616                	slli	a2,a2,0x5
    1e1c:	0592                	slli	a1,a1,0x4
    1e1e:	8dd1                	or	a1,a1,a2
c:\Users\Paul Scalise\CH592F_SSD1306\obj/../User/driver_ssd1306.c:2229
{
    1e20:	1101                	addi	sp,sp,-32
c:\Users\Paul Scalise\CH592F_SSD1306\obj/../User/driver_ssd1306.c:2242
    buf[1] = (uint8_t)((conf<<4) | (remap<<5) |0x02);                                   /* set com pins */
    1e22:	0025e593          	ori	a1,a1,2
    1e26:	00b106a3          	sb	a1,13(sp)
c:\Users\Paul Scalise\CH592F_SSD1306\obj/../User/driver_ssd1306.c:2241
    buf[0] = SSD1306_CMD_COM_PINS_CONF;                                                 /* set command */
    1e2a:	fda00793          	li	a5,-38
c:\Users\Paul Scalise\CH592F_SSD1306\obj/../User/driver_ssd1306.c:2244
  
    return a_ssd1306_multiple_write_byte(handle, (uint8_t *)buf, 2, SSD1306_CMD);       /* write command */
    1e2e:	006c                	addi	a1,sp,12
    1e30:	4681                	li	a3,0
    1e32:	4609                	li	a2,2
c:\Users\Paul Scalise\CH592F_SSD1306\obj/../User/driver_ssd1306.c:2229
{
    1e34:	ce06                	sw	ra,28(sp)
c:\Users\Paul Scalise\CH592F_SSD1306\obj/../User/driver_ssd1306.c:2241
    buf[0] = SSD1306_CMD_COM_PINS_CONF;                                                 /* set command */
    1e36:	00f10623          	sb	a5,12(sp)
c:\Users\Paul Scalise\CH592F_SSD1306\obj/../User/driver_ssd1306.c:2244
    return a_ssd1306_multiple_write_byte(handle, (uint8_t *)buf, 2, SSD1306_CMD);       /* write command */
    1e3a:	8d0ff0ef          	jal	ra,f0a <a_ssd1306_multiple_write_byte>
c:\Users\Paul Scalise\CH592F_SSD1306\obj/../User/driver_ssd1306.c:2245
}
    1e3e:	40f2                	lw	ra,28(sp)
    1e40:	6105                	addi	sp,sp,32
    1e42:	8082                	ret
c:\Users\Paul Scalise\CH592F_SSD1306\obj/../User/driver_ssd1306.c:2234
        return 2;                                                                       /* return error */
    1e44:	4789                	li	a5,2
c:\Users\Paul Scalise\CH592F_SSD1306\obj/../User/driver_ssd1306.c:2245
}
    1e46:	853e                	mv	a0,a5
    1e48:	8082                	ret

00001e4a <ssd1306_set_deselect_level>:
ssd1306_set_deselect_level():
c:\Users\Paul Scalise\CH592F_SSD1306\obj/../User/driver_ssd1306.c:2262
 */
uint8_t ssd1306_set_deselect_level(ssd1306_handle_t *handle, ssd1306_deselect_level_t level)
{
    uint8_t buf[2];
    
    if (handle == NULL)                                                                 /* check handle */
    1e4a:	c905                	beqz	a0,1e7a <ssd1306_set_deselect_level+0x30>
c:\Users\Paul Scalise\CH592F_SSD1306\obj/../User/driver_ssd1306.c:2266
    {
        return 2;                                                                       /* return error */
    }
    if (handle->inited != 1)                                                            /* check handle initialization */
    1e4c:	03854683          	lbu	a3,56(a0)
    1e50:	4705                	li	a4,1
c:\Users\Paul Scalise\CH592F_SSD1306\obj/../User/driver_ssd1306.c:2268
    {
        return 3;                                                                       /* return error */
    1e52:	478d                	li	a5,3
c:\Users\Paul Scalise\CH592F_SSD1306\obj/../User/driver_ssd1306.c:2266
    if (handle->inited != 1)                                                            /* check handle initialization */
    1e54:	02e69463          	bne	a3,a4,1e7c <ssd1306_set_deselect_level+0x32>
c:\Users\Paul Scalise\CH592F_SSD1306\obj/../User/driver_ssd1306.c:2259
{
    1e58:	1101                	addi	sp,sp,-32
c:\Users\Paul Scalise\CH592F_SSD1306\obj/../User/driver_ssd1306.c:2272
    }
    
    buf[0] = SSD1306_CMD_COMH_DESLECT_LEVEL;                                            /* set command */
    buf[1] = (uint8_t)(level << 4);                                                     /* set level */
    1e5a:	0592                	slli	a1,a1,0x4
    1e5c:	00b106a3          	sb	a1,13(sp)
c:\Users\Paul Scalise\CH592F_SSD1306\obj/../User/driver_ssd1306.c:2271
    buf[0] = SSD1306_CMD_COMH_DESLECT_LEVEL;                                            /* set command */
    1e60:	fdb00793          	li	a5,-37
c:\Users\Paul Scalise\CH592F_SSD1306\obj/../User/driver_ssd1306.c:2274
  
    return a_ssd1306_multiple_write_byte(handle, (uint8_t *)buf, 2, SSD1306_CMD);       /* write command */
    1e64:	006c                	addi	a1,sp,12
    1e66:	4681                	li	a3,0
    1e68:	4609                	li	a2,2
c:\Users\Paul Scalise\CH592F_SSD1306\obj/../User/driver_ssd1306.c:2259
{
    1e6a:	ce06                	sw	ra,28(sp)
c:\Users\Paul Scalise\CH592F_SSD1306\obj/../User/driver_ssd1306.c:2271
    buf[0] = SSD1306_CMD_COMH_DESLECT_LEVEL;                                            /* set command */
    1e6c:	00f10623          	sb	a5,12(sp)
c:\Users\Paul Scalise\CH592F_SSD1306\obj/../User/driver_ssd1306.c:2274
    return a_ssd1306_multiple_write_byte(handle, (uint8_t *)buf, 2, SSD1306_CMD);       /* write command */
    1e70:	89aff0ef          	jal	ra,f0a <a_ssd1306_multiple_write_byte>
c:\Users\Paul Scalise\CH592F_SSD1306\obj/../User/driver_ssd1306.c:2275
}
    1e74:	40f2                	lw	ra,28(sp)
    1e76:	6105                	addi	sp,sp,32
    1e78:	8082                	ret
c:\Users\Paul Scalise\CH592F_SSD1306\obj/../User/driver_ssd1306.c:2264
        return 2;                                                                       /* return error */
    1e7a:	4789                	li	a5,2
c:\Users\Paul Scalise\CH592F_SSD1306\obj/../User/driver_ssd1306.c:2275
}
    1e7c:	853e                	mv	a0,a5
    1e7e:	8082                	ret

00001e80 <ssd1306_info>:
ssd1306_info():
c:\Users\Paul Scalise\CH592F_SSD1306\obj/../User/driver_ssd1306.c:2339
 *             - 2 handle is NULL
 * @note       none
 */
uint8_t ssd1306_info(ssd1306_info_t *info)
{
    if (info == NULL)                                               /* check handle */
    1e80:	cd41                	beqz	a0,1f18 <ssd1306_info+0x98>
c:\Users\Paul Scalise\CH592F_SSD1306\obj/../User/driver_ssd1306.c:2338
{
    1e82:	1141                	addi	sp,sp,-16
c:\Users\Paul Scalise\CH592F_SSD1306\obj/../User/driver_ssd1306.c:2344
    {
        return 2;                                                   /* return error */
    }
    
    memset(info, 0, sizeof(ssd1306_info_t));                        /* initialize ssd1306 info structure */
    1e84:	04000613          	li	a2,64
    1e88:	4581                	li	a1,0
c:\Users\Paul Scalise\CH592F_SSD1306\obj/../User/driver_ssd1306.c:2338
{
    1e8a:	c606                	sw	ra,12(sp)
    1e8c:	c422                	sw	s0,8(sp)
    1e8e:	842a                	mv	s0,a0
c:\Users\Paul Scalise\CH592F_SSD1306\obj/../User/driver_ssd1306.c:2344
    memset(info, 0, sizeof(ssd1306_info_t));                        /* initialize ssd1306 info structure */
    1e90:	dbbfe0ef          	jal	ra,c4a <memset>
c:\Users\Paul Scalise\CH592F_SSD1306\obj/../User/driver_ssd1306.c:2345
    strncpy(info->chip_name, CHIP_NAME, 32);                        /* copy chip name */
    1e94:	02000613          	li	a2,32
    1e98:	00004597          	auipc	a1,0x4
    1e9c:	dec58593          	addi	a1,a1,-532 # 5c84 <gsc_ssd1306_ascii_2412+0xeb4>
    1ea0:	8522                	mv	a0,s0
    1ea2:	380010ef          	jal	ra,3222 <strncpy>
c:\Users\Paul Scalise\CH592F_SSD1306\obj/../User/driver_ssd1306.c:2346
    strncpy(info->manufacturer_name, MANUFACTURER_NAME, 32);        /* copy manufacturer name */
    1ea6:	02000613          	li	a2,32
    1eaa:	00004597          	auipc	a1,0x4
    1eae:	df258593          	addi	a1,a1,-526 # 5c9c <gsc_ssd1306_ascii_2412+0xecc>
    1eb2:	02040513          	addi	a0,s0,32
    1eb6:	36c010ef          	jal	ra,3222 <strncpy>
c:\Users\Paul Scalise\CH592F_SSD1306\obj/../User/driver_ssd1306.c:2347
    strncpy(info->interface, "IIC SPI", 8);                         /* copy interface name */
    1eba:	04040513          	addi	a0,s0,64
    1ebe:	4621                	li	a2,8
    1ec0:	00004597          	auipc	a1,0x4
    1ec4:	dec58593          	addi	a1,a1,-532 # 5cac <gsc_ssd1306_ascii_2412+0xedc>
    1ec8:	1c6010ef          	jal	ra,308e <memcpy>
c:\Users\Paul Scalise\CH592F_SSD1306\obj/../User/driver_ssd1306.c:2348
    info->supply_voltage_min_v = SUPPLY_VOLTAGE_MIN;                /* set minimal supply voltage */
    1ecc:	00004797          	auipc	a5,0x4
    1ed0:	da478793          	addi	a5,a5,-604 # 5c70 <gsc_ssd1306_ascii_2412+0xea0>
    1ed4:	439c                	lw	a5,0(a5)
c:\Users\Paul Scalise\CH592F_SSD1306\obj/../User/driver_ssd1306.c:2356
    info->temperature_max = TEMPERATURE_MAX;                        /* set minimal temperature */
    info->temperature_min = TEMPERATURE_MIN;                        /* set maximum temperature */
    info->driver_version = DRIVER_VERSION;                          /* set driver version */
    
    return 0;                                                       /* success return 0 */
}
    1ed6:	40b2                	lw	ra,12(sp)
c:\Users\Paul Scalise\CH592F_SSD1306\obj/../User/driver_ssd1306.c:2355
    return 0;                                                       /* success return 0 */
    1ed8:	4501                	li	a0,0
c:\Users\Paul Scalise\CH592F_SSD1306\obj/../User/driver_ssd1306.c:2348
    info->supply_voltage_min_v = SUPPLY_VOLTAGE_MIN;                /* set minimal supply voltage */
    1eda:	c43c                	sw	a5,72(s0)
c:\Users\Paul Scalise\CH592F_SSD1306\obj/../User/driver_ssd1306.c:2349
    info->supply_voltage_max_v = SUPPLY_VOLTAGE_MAX;                /* set maximum supply voltage */
    1edc:	00004797          	auipc	a5,0x4
    1ee0:	d9878793          	addi	a5,a5,-616 # 5c74 <gsc_ssd1306_ascii_2412+0xea4>
    1ee4:	439c                	lw	a5,0(a5)
    1ee6:	c47c                	sw	a5,76(s0)
c:\Users\Paul Scalise\CH592F_SSD1306\obj/../User/driver_ssd1306.c:2350
    info->max_current_ma = MAX_CURRENT;                             /* set maximum current */
    1ee8:	00004797          	auipc	a5,0x4
    1eec:	d9078793          	addi	a5,a5,-624 # 5c78 <gsc_ssd1306_ascii_2412+0xea8>
    1ef0:	439c                	lw	a5,0(a5)
    1ef2:	c83c                	sw	a5,80(s0)
c:\Users\Paul Scalise\CH592F_SSD1306\obj/../User/driver_ssd1306.c:2351
    info->temperature_max = TEMPERATURE_MAX;                        /* set minimal temperature */
    1ef4:	00004797          	auipc	a5,0x4
    1ef8:	d8878793          	addi	a5,a5,-632 # 5c7c <gsc_ssd1306_ascii_2412+0xeac>
    1efc:	439c                	lw	a5,0(a5)
    1efe:	cc3c                	sw	a5,88(s0)
c:\Users\Paul Scalise\CH592F_SSD1306\obj/../User/driver_ssd1306.c:2352
    info->temperature_min = TEMPERATURE_MIN;                        /* set maximum temperature */
    1f00:	00004797          	auipc	a5,0x4
    1f04:	d8078793          	addi	a5,a5,-640 # 5c80 <gsc_ssd1306_ascii_2412+0xeb0>
    1f08:	439c                	lw	a5,0(a5)
    1f0a:	c87c                	sw	a5,84(s0)
c:\Users\Paul Scalise\CH592F_SSD1306\obj/../User/driver_ssd1306.c:2353
    info->driver_version = DRIVER_VERSION;                          /* set driver version */
    1f0c:	7d000793          	li	a5,2000
    1f10:	cc7c                	sw	a5,92(s0)
c:\Users\Paul Scalise\CH592F_SSD1306\obj/../User/driver_ssd1306.c:2356
}
    1f12:	4422                	lw	s0,8(sp)
    1f14:	0141                	addi	sp,sp,16
    1f16:	8082                	ret
c:\Users\Paul Scalise\CH592F_SSD1306\obj/../User/driver_ssd1306.c:2341
        return 2;                                                   /* return error */
    1f18:	4509                	li	a0,2
c:\Users\Paul Scalise\CH592F_SSD1306\obj/../User/driver_ssd1306.c:2356
}
    1f1a:	8082                	ret

00001f1c <ssd1306_basic_deinit>:
ssd1306_basic_deinit():
c:\Users\Paul Scalise\CH592F_SSD1306\obj/../User/driver_ssd1306_basic.c:350
 *         - 0 success
 *         - 1 deinit failed
 * @note   none
 */
uint8_t ssd1306_basic_deinit(void)
{
    1f1c:	1141                	addi	sp,sp,-16
c:\Users\Paul Scalise\CH592F_SSD1306\obj/../User/driver_ssd1306_basic.c:352
    /* deinit ssd1306 */
    if (ssd1306_deinit(&gs_handle) != 0)
    1f1e:	9a018513          	addi	a0,gp,-1632 # 20002da0 <gs_handle>
c:\Users\Paul Scalise\CH592F_SSD1306\obj/../User/driver_ssd1306_basic.c:350
{
    1f22:	c606                	sw	ra,12(sp)
c:\Users\Paul Scalise\CH592F_SSD1306\obj/../User/driver_ssd1306_basic.c:352
    if (ssd1306_deinit(&gs_handle) != 0)
    1f24:	ed4ff0ef          	jal	ra,15f8 <ssd1306_deinit>
c:\Users\Paul Scalise\CH592F_SSD1306\obj/../User/driver_ssd1306_basic.c:360
    }
    else
    {
        return 0;
    }
}
    1f28:	40b2                	lw	ra,12(sp)
    1f2a:	00a03533          	snez	a0,a0
    1f2e:	0141                	addi	sp,sp,16
    1f30:	8082                	ret

00001f32 <ssd1306_display_test>:
ssd1306_display_test():
c:\Users\Paul Scalise\CH592F_SSD1306\obj/../User/driver_ssd1306_display_test.c:568
 *            - 0 success
 *            - 1 test failed
 * @note      none
 */
uint8_t ssd1306_display_test(ssd1306_interface_t interface, ssd1306_address_t addr)
{
    1f32:	7171                	addi	sp,sp,-176
    1f34:	d522                	sw	s0,168(sp)
    1f36:	d326                	sw	s1,164(sp)
c:\Users\Paul Scalise\CH592F_SSD1306\obj/../User/driver_ssd1306_display_test.c:572
    uint8_t res;
    uint8_t i, j;
    ssd1306_info_t info;
    char test_str1[] ="libdriver";
    1f38:	4629                	li	a2,10
c:\Users\Paul Scalise\CH592F_SSD1306\obj/../User/driver_ssd1306_display_test.c:568
{
    1f3a:	84aa                	mv	s1,a0
    1f3c:	842e                	mv	s0,a1
c:\Users\Paul Scalise\CH592F_SSD1306\obj/../User/driver_ssd1306_display_test.c:572
    char test_str1[] ="libdriver";
    1f3e:	1048                	addi	a0,sp,36
    1f40:	00005597          	auipc	a1,0x5
    1f44:	b2458593          	addi	a1,a1,-1244 # 6a64 <gsc_ssd1306_ascii_2412+0x1c94>
c:\Users\Paul Scalise\CH592F_SSD1306\obj/../User/driver_ssd1306_display_test.c:568
{
    1f48:	d706                	sw	ra,172(sp)
    1f4a:	d14a                	sw	s2,160(sp)
    1f4c:	cf4e                	sw	s3,156(sp)
    1f4e:	cd52                	sw	s4,152(sp)
c:\Users\Paul Scalise\CH592F_SSD1306\obj/../User/driver_ssd1306_display_test.c:572
    char test_str1[] ="libdriver";
    1f50:	13e010ef          	jal	ra,308e <memcpy>
c:\Users\Paul Scalise\CH592F_SSD1306\obj/../User/driver_ssd1306_display_test.c:573
    char test_str2[] ="ssd1306";
    1f54:	316477b7          	lui	a5,0x31647
    1f58:	37378793          	addi	a5,a5,883 # 31647373 <_eusrstack+0x11640b73>
    1f5c:	c83e                	sw	a5,16(sp)
    1f5e:	003637b7          	lui	a5,0x363
    1f62:	03378793          	addi	a5,a5,51 # 363033 <_data_lma+0x35c3e3>
c:\Users\Paul Scalise\CH592F_SSD1306\obj/../User/driver_ssd1306_display_test.c:574
    char test_str3[] ="ABCabc";
    1f66:	461d                	li	a2,7
    1f68:	00005597          	auipc	a1,0x5
    1f6c:	b0858593          	addi	a1,a1,-1272 # 6a70 <gsc_ssd1306_ascii_2412+0x1ca0>
    1f70:	0028                	addi	a0,sp,8
c:\Users\Paul Scalise\CH592F_SSD1306\obj/../User/driver_ssd1306_display_test.c:573
    char test_str2[] ="ssd1306";
    1f72:	ca3e                	sw	a5,20(sp)
c:\Users\Paul Scalise\CH592F_SSD1306\obj/../User/driver_ssd1306_display_test.c:574
    char test_str3[] ="ABCabc";
    1f74:	11a010ef          	jal	ra,308e <memcpy>
c:\Users\Paul Scalise\CH592F_SSD1306\obj/../User/driver_ssd1306_display_test.c:575
    char test_str4[] ="123?!#$%";
    1f78:	4625                	li	a2,9
    1f7a:	00005597          	auipc	a1,0x5
    1f7e:	afe58593          	addi	a1,a1,-1282 # 6a78 <gsc_ssd1306_ascii_2412+0x1ca8>
    1f82:	0828                	addi	a0,sp,24
    1f84:	10a010ef          	jal	ra,308e <memcpy>
c:\Users\Paul Scalise\CH592F_SSD1306\obj/../User/driver_ssd1306_display_test.c:578

    /* link functions */
    DRIVER_SSD1306_LINK_INIT(&gs_handle, ssd1306_handle_t);
    1f88:	43c00613          	li	a2,1084
    1f8c:	4581                	li	a1,0
    1f8e:	ddc18513          	addi	a0,gp,-548 # 200031dc <gs_handle>
    1f92:	cb9fe0ef          	jal	ra,c4a <memset>
c:\Users\Paul Scalise\CH592F_SSD1306\obj/../User/driver_ssd1306_display_test.c:579
    DRIVER_SSD1306_LINK_IIC_INIT(&gs_handle, ssd1306_interface_iic_init);
    1f96:	00001797          	auipc	a5,0x1
    1f9a:	a5078793          	addi	a5,a5,-1456 # 29e6 <ssd1306_interface_iic_init>
    1f9e:	dcf1ae23          	sw	a5,-548(gp) # 200031dc <gs_handle>
c:\Users\Paul Scalise\CH592F_SSD1306\obj/../User/driver_ssd1306_display_test.c:580
    DRIVER_SSD1306_LINK_IIC_DEINIT(&gs_handle, ssd1306_interface_iic_deinit);
    1fa2:	00001797          	auipc	a5,0x1
    1fa6:	a5e78793          	addi	a5,a5,-1442 # 2a00 <ssd1306_interface_iic_deinit>
    1faa:	def1a023          	sw	a5,-544(gp) # 200031e0 <gs_handle+0x4>
c:\Users\Paul Scalise\CH592F_SSD1306\obj/../User/driver_ssd1306_display_test.c:581
    DRIVER_SSD1306_LINK_IIC_WRITE(&gs_handle, ssd1306_interface_iic_write);
    1fae:	00001797          	auipc	a5,0x1
    1fb2:	a5678793          	addi	a5,a5,-1450 # 2a04 <ssd1306_interface_iic_write>
    1fb6:	def1a223          	sw	a5,-540(gp) # 200031e4 <gs_handle+0x8>
c:\Users\Paul Scalise\CH592F_SSD1306\obj/../User/driver_ssd1306_display_test.c:582
    DRIVER_SSD1306_LINK_SPI_INIT(&gs_handle, ssd1306_interface_spi_init);
    1fba:	00001797          	auipc	a5,0x1
    1fbe:	ae478793          	addi	a5,a5,-1308 # 2a9e <ssd1306_interface_spi_init>
    1fc2:	def1a423          	sw	a5,-536(gp) # 200031e8 <gs_handle+0xc>
c:\Users\Paul Scalise\CH592F_SSD1306\obj/../User/driver_ssd1306_display_test.c:583
    DRIVER_SSD1306_LINK_SPI_DEINIT(&gs_handle, ssd1306_interface_spi_deinit);
    1fc6:	00001797          	auipc	a5,0x1
    1fca:	adc78793          	addi	a5,a5,-1316 # 2aa2 <ssd1306_interface_spi_deinit>
    1fce:	def1a623          	sw	a5,-532(gp) # 200031ec <gs_handle+0x10>
c:\Users\Paul Scalise\CH592F_SSD1306\obj/../User/driver_ssd1306_display_test.c:584
    DRIVER_SSD1306_LINK_SPI_WRITE_COMMAND(&gs_handle, ssd1306_interface_spi_write_cmd);
    1fd2:	00001797          	auipc	a5,0x1
    1fd6:	ad478793          	addi	a5,a5,-1324 # 2aa6 <ssd1306_interface_spi_write_cmd>
    1fda:	def1a823          	sw	a5,-528(gp) # 200031f0 <gs_handle+0x14>
c:\Users\Paul Scalise\CH592F_SSD1306\obj/../User/driver_ssd1306_display_test.c:585
    DRIVER_SSD1306_LINK_SPI_COMMAND_DATA_GPIO_INIT(&gs_handle, ssd1306_interface_spi_cmd_data_gpio_init);
    1fde:	00001797          	auipc	a5,0x1
    1fe2:	afc78793          	addi	a5,a5,-1284 # 2ada <ssd1306_interface_spi_cmd_data_gpio_init>
    1fe6:	def1aa23          	sw	a5,-524(gp) # 200031f4 <gs_handle+0x18>
c:\Users\Paul Scalise\CH592F_SSD1306\obj/../User/driver_ssd1306_display_test.c:586
    DRIVER_SSD1306_LINK_SPI_COMMAND_DATA_GPIO_DEINIT(&gs_handle, ssd1306_interface_spi_cmd_data_gpio_deinit);
    1fea:	00001797          	auipc	a5,0x1
    1fee:	af478793          	addi	a5,a5,-1292 # 2ade <ssd1306_interface_spi_cmd_data_gpio_deinit>
    1ff2:	def1ac23          	sw	a5,-520(gp) # 200031f8 <gs_handle+0x1c>
c:\Users\Paul Scalise\CH592F_SSD1306\obj/../User/driver_ssd1306_display_test.c:587
    DRIVER_SSD1306_LINK_SPI_COMMAND_DATA_GPIO_WRITE(&gs_handle, ssd1306_interface_spi_cmd_data_gpio_write);
    1ff6:	00001797          	auipc	a5,0x1
    1ffa:	aec78793          	addi	a5,a5,-1300 # 2ae2 <ssd1306_interface_spi_cmd_data_gpio_write>
    1ffe:	def1ae23          	sw	a5,-516(gp) # 200031fc <gs_handle+0x20>
c:\Users\Paul Scalise\CH592F_SSD1306\obj/../User/driver_ssd1306_display_test.c:588
    DRIVER_SSD1306_LINK_RESET_GPIO_INIT(&gs_handle, ssd1306_interface_reset_gpio_init);
    2002:	00001797          	auipc	a5,0x1
    2006:	ae478793          	addi	a5,a5,-1308 # 2ae6 <ssd1306_interface_reset_gpio_init>
    200a:	e0f1a023          	sw	a5,-512(gp) # 20003200 <gs_handle+0x24>
c:\Users\Paul Scalise\CH592F_SSD1306\obj/../User/driver_ssd1306_display_test.c:589
    DRIVER_SSD1306_LINK_RESET_GPIO_DEINIT(&gs_handle, ssd1306_interface_reset_gpio_deinit);
    200e:	00001797          	auipc	a5,0x1
    2012:	adc78793          	addi	a5,a5,-1316 # 2aea <ssd1306_interface_reset_gpio_deinit>
    2016:	e0f1a223          	sw	a5,-508(gp) # 20003204 <gs_handle+0x28>
c:\Users\Paul Scalise\CH592F_SSD1306\obj/../User/driver_ssd1306_display_test.c:590
    DRIVER_SSD1306_LINK_RESET_GPIO_WRITE(&gs_handle, ssd1306_interface_reset_gpio_write);
    201a:	00001797          	auipc	a5,0x1
    201e:	ad478793          	addi	a5,a5,-1324 # 2aee <ssd1306_interface_reset_gpio_write>
    2022:	e0f1a423          	sw	a5,-504(gp) # 20003208 <gs_handle+0x2c>
c:\Users\Paul Scalise\CH592F_SSD1306\obj/../User/driver_ssd1306_display_test.c:591
    DRIVER_SSD1306_LINK_DELAY_MS(&gs_handle, ssd1306_interface_delay_ms);
    2026:	00001797          	auipc	a5,0x1
    202a:	a8478793          	addi	a5,a5,-1404 # 2aaa <ssd1306_interface_delay_ms>
    202e:	e0f1a823          	sw	a5,-496(gp) # 20003210 <gs_handle+0x34>
c:\Users\Paul Scalise\CH592F_SSD1306\obj/../User/driver_ssd1306_display_test.c:595
    DRIVER_SSD1306_LINK_DEBUG_PRINT(&gs_handle, ssd1306_interface_debug_print);

    /* ssd1306 info */
    res = ssd1306_info(&info);
    2032:	1808                	addi	a0,sp,48
c:\Users\Paul Scalise\CH592F_SSD1306\obj/../User/driver_ssd1306_display_test.c:592
    DRIVER_SSD1306_LINK_DEBUG_PRINT(&gs_handle, ssd1306_interface_debug_print);
    2034:	00001797          	auipc	a5,0x1
    2038:	a8278793          	addi	a5,a5,-1406 # 2ab6 <ssd1306_interface_debug_print>
    203c:	e0f1a623          	sw	a5,-500(gp) # 2000320c <gs_handle+0x30>
c:\Users\Paul Scalise\CH592F_SSD1306\obj/../User/driver_ssd1306_display_test.c:595
    res = ssd1306_info(&info);
    2040:	3581                	jal	1e80 <ssd1306_info>
c:\Users\Paul Scalise\CH592F_SSD1306\obj/../User/driver_ssd1306_display_test.c:596
    if (res != 0)
    2042:	c10d                	beqz	a0,2064 <ssd1306_display_test+0x132>
c:\Users\Paul Scalise\CH592F_SSD1306\obj/../User/driver_ssd1306_display_test.c:598
    {
        ssd1306_interface_debug_print("ssd1306: get info failed.\n");
    2044:	00004517          	auipc	a0,0x4
    2048:	17850513          	addi	a0,a0,376 # 61bc <gsc_ssd1306_ascii_2412+0x13ec>
c:\Users\Paul Scalise\CH592F_SSD1306\obj/../User/driver_ssd1306_display_test.c:620

    /* set interface */
    res = ssd1306_set_interface(&gs_handle, interface);
    if (res != 0)
    {
        ssd1306_interface_debug_print("ssd1306: set interface failed.\n");
    204c:	26b000ef          	jal	ra,2ab6 <ssd1306_interface_debug_print>
c:\Users\Paul Scalise\CH592F_SSD1306\obj/../User/driver_ssd1306_display_test.c:622

        return 1;
    2050:	4405                	li	s0,1
c:\Users\Paul Scalise\CH592F_SSD1306\obj/../User/driver_ssd1306_display_test.c:1585
    /* finish display test */
    ssd1306_interface_debug_print("ssd1306: finish display test.\n");
    (void)ssd1306_deinit(&gs_handle);

    return 0;
}
    2052:	8522                	mv	a0,s0
    2054:	50ba                	lw	ra,172(sp)
    2056:	542a                	lw	s0,168(sp)
    2058:	549a                	lw	s1,164(sp)
    205a:	590a                	lw	s2,160(sp)
    205c:	49fa                	lw	s3,156(sp)
    205e:	4a6a                	lw	s4,152(sp)
    2060:	614d                	addi	sp,sp,176
    2062:	8082                	ret
c:\Users\Paul Scalise\CH592F_SSD1306\obj/../User/driver_ssd1306_display_test.c:605
        ssd1306_interface_debug_print("ssd1306: chip is %s.\n", info.chip_name);
    2064:	180c                	addi	a1,sp,48
    2066:	00004517          	auipc	a0,0x4
    206a:	17250513          	addi	a0,a0,370 # 61d8 <gsc_ssd1306_ascii_2412+0x1408>
    206e:	249000ef          	jal	ra,2ab6 <ssd1306_interface_debug_print>
c:\Users\Paul Scalise\CH592F_SSD1306\obj/../User/driver_ssd1306_display_test.c:606
        ssd1306_interface_debug_print("ssd1306: manufacturer is %s.\n", info.manufacturer_name);
    2072:	088c                	addi	a1,sp,80
    2074:	00004517          	auipc	a0,0x4
    2078:	17c50513          	addi	a0,a0,380 # 61f0 <gsc_ssd1306_ascii_2412+0x1420>
    207c:	23b000ef          	jal	ra,2ab6 <ssd1306_interface_debug_print>
c:\Users\Paul Scalise\CH592F_SSD1306\obj/../User/driver_ssd1306_display_test.c:607
        ssd1306_interface_debug_print("ssd1306: interface is %s.\n", info.interface);
    2080:	188c                	addi	a1,sp,112
    2082:	00004517          	auipc	a0,0x4
    2086:	18e50513          	addi	a0,a0,398 # 6210 <gsc_ssd1306_ascii_2412+0x1440>
    208a:	22d000ef          	jal	ra,2ab6 <ssd1306_interface_debug_print>
c:\Users\Paul Scalise\CH592F_SSD1306\obj/../User/driver_ssd1306_display_test.c:608
        ssd1306_interface_debug_print("ssd1306: driver version is %d.%d.\n", info.driver_version / 1000, (info.driver_version % 1000) / 100);
    208e:	45ba                	lw	a1,140(sp)
    2090:	3e800793          	li	a5,1000
    2094:	06400713          	li	a4,100
    2098:	02f5f633          	remu	a2,a1,a5
    209c:	00004517          	auipc	a0,0x4
    20a0:	19050513          	addi	a0,a0,400 # 622c <gsc_ssd1306_ascii_2412+0x145c>
    20a4:	02e65633          	divu	a2,a2,a4
    20a8:	02f5d5b3          	divu	a1,a1,a5
    20ac:	20b000ef          	jal	ra,2ab6 <ssd1306_interface_debug_print>
c:\Users\Paul Scalise\CH592F_SSD1306\obj/../User/driver_ssd1306_display_test.c:609
        ssd1306_interface_debug_print("ssd1306: min supply voltage is %0.1fV.\n", info.supply_voltage_min_v);
    20b0:	5566                	lw	a0,120(sp)
    20b2:	6bb000ef          	jal	ra,2f6c <__extendsfdf2>
    20b6:	862a                	mv	a2,a0
    20b8:	86ae                	mv	a3,a1
    20ba:	00004517          	auipc	a0,0x4
    20be:	19650513          	addi	a0,a0,406 # 6250 <gsc_ssd1306_ascii_2412+0x1480>
    20c2:	1f5000ef          	jal	ra,2ab6 <ssd1306_interface_debug_print>
c:\Users\Paul Scalise\CH592F_SSD1306\obj/../User/driver_ssd1306_display_test.c:610
        ssd1306_interface_debug_print("ssd1306: max supply voltage is %0.1fV.\n", info.supply_voltage_max_v);
    20c6:	5576                	lw	a0,124(sp)
    20c8:	6a5000ef          	jal	ra,2f6c <__extendsfdf2>
    20cc:	862a                	mv	a2,a0
    20ce:	86ae                	mv	a3,a1
    20d0:	00004517          	auipc	a0,0x4
    20d4:	1a850513          	addi	a0,a0,424 # 6278 <gsc_ssd1306_ascii_2412+0x14a8>
    20d8:	1df000ef          	jal	ra,2ab6 <ssd1306_interface_debug_print>
c:\Users\Paul Scalise\CH592F_SSD1306\obj/../User/driver_ssd1306_display_test.c:611
        ssd1306_interface_debug_print("ssd1306: max current is %0.2fmA.\n", info.max_current_ma);
    20dc:	450a                	lw	a0,128(sp)
    20de:	68f000ef          	jal	ra,2f6c <__extendsfdf2>
    20e2:	862a                	mv	a2,a0
    20e4:	86ae                	mv	a3,a1
    20e6:	00004517          	auipc	a0,0x4
    20ea:	1ba50513          	addi	a0,a0,442 # 62a0 <gsc_ssd1306_ascii_2412+0x14d0>
    20ee:	1c9000ef          	jal	ra,2ab6 <ssd1306_interface_debug_print>
c:\Users\Paul Scalise\CH592F_SSD1306\obj/../User/driver_ssd1306_display_test.c:612
        ssd1306_interface_debug_print("ssd1306: max temperature is %0.1fC.\n", info.temperature_max);
    20f2:	452a                	lw	a0,136(sp)
    20f4:	679000ef          	jal	ra,2f6c <__extendsfdf2>
    20f8:	862a                	mv	a2,a0
    20fa:	86ae                	mv	a3,a1
    20fc:	00004517          	auipc	a0,0x4
    2100:	1c850513          	addi	a0,a0,456 # 62c4 <gsc_ssd1306_ascii_2412+0x14f4>
    2104:	1b3000ef          	jal	ra,2ab6 <ssd1306_interface_debug_print>
c:\Users\Paul Scalise\CH592F_SSD1306\obj/../User/driver_ssd1306_display_test.c:613
        ssd1306_interface_debug_print("ssd1306: min temperature is %0.1fC.\n", info.temperature_min);
    2108:	451a                	lw	a0,132(sp)
    210a:	663000ef          	jal	ra,2f6c <__extendsfdf2>
    210e:	862a                	mv	a2,a0
    2110:	86ae                	mv	a3,a1
    2112:	00004517          	auipc	a0,0x4
    2116:	1da50513          	addi	a0,a0,474 # 62ec <gsc_ssd1306_ascii_2412+0x151c>
    211a:	19d000ef          	jal	ra,2ab6 <ssd1306_interface_debug_print>
c:\Users\Paul Scalise\CH592F_SSD1306\obj/../User/driver_ssd1306_display_test.c:617
    res = ssd1306_set_interface(&gs_handle, interface);
    211e:	85a6                	mv	a1,s1
    2120:	ddc18513          	addi	a0,gp,-548 # 200031dc <gs_handle>
    2124:	da4ff0ef          	jal	ra,16c8 <ssd1306_set_interface>
c:\Users\Paul Scalise\CH592F_SSD1306\obj/../User/driver_ssd1306_display_test.c:618
    if (res != 0)
    2128:	c511                	beqz	a0,2134 <ssd1306_display_test+0x202>
c:\Users\Paul Scalise\CH592F_SSD1306\obj/../User/driver_ssd1306_display_test.c:620
        ssd1306_interface_debug_print("ssd1306: set interface failed.\n");
    212a:	00004517          	auipc	a0,0x4
    212e:	1ea50513          	addi	a0,a0,490 # 6314 <gsc_ssd1306_ascii_2412+0x1544>
    2132:	bf29                	j	204c <ssd1306_display_test+0x11a>
c:\Users\Paul Scalise\CH592F_SSD1306\obj/../User/driver_ssd1306_display_test.c:626
    res = ssd1306_set_addr_pin(&gs_handle, addr);
    2134:	85a2                	mv	a1,s0
    2136:	ddc18513          	addi	a0,gp,-548 # 200031dc <gs_handle>
    213a:	d9cff0ef          	jal	ra,16d6 <ssd1306_set_addr_pin>
c:\Users\Paul Scalise\CH592F_SSD1306\obj/../User/driver_ssd1306_display_test.c:627
    if (res != 0)
    213e:	c511                	beqz	a0,214a <ssd1306_display_test+0x218>
c:\Users\Paul Scalise\CH592F_SSD1306\obj/../User/driver_ssd1306_display_test.c:629
        ssd1306_interface_debug_print("ssd1306: set addr failed.\n");
    2140:	00004517          	auipc	a0,0x4
    2144:	1f450513          	addi	a0,a0,500 # 6334 <gsc_ssd1306_ascii_2412+0x1564>
    2148:	b711                	j	204c <ssd1306_display_test+0x11a>
c:\Users\Paul Scalise\CH592F_SSD1306\obj/../User/driver_ssd1306_display_test.c:635
    res = ssd1306_init(&gs_handle);
    214a:	ddc18513          	addi	a0,gp,-548 # 200031dc <gs_handle>
    214e:	b30ff0ef          	jal	ra,147e <ssd1306_init>
c:\Users\Paul Scalise\CH592F_SSD1306\obj/../User/driver_ssd1306_display_test.c:636
    if (res != 0)
    2152:	c511                	beqz	a0,215e <ssd1306_display_test+0x22c>
c:\Users\Paul Scalise\CH592F_SSD1306\obj/../User/driver_ssd1306_display_test.c:638
        ssd1306_interface_debug_print("ssd1306: init failed.\n");
    2154:	00004517          	auipc	a0,0x4
    2158:	1fc50513          	addi	a0,a0,508 # 6350 <gsc_ssd1306_ascii_2412+0x1580>
    215c:	bdc5                	j	204c <ssd1306_display_test+0x11a>
c:\Users\Paul Scalise\CH592F_SSD1306\obj/../User/driver_ssd1306_display_test.c:644
    res = ssd1306_set_display(&gs_handle, SSD1306_DISPLAY_OFF);
    215e:	4581                	li	a1,0
    2160:	ddc18513          	addi	a0,gp,-548 # 200031dc <gs_handle>
    2164:	3631                	jal	1c70 <ssd1306_set_display>
c:\Users\Paul Scalise\CH592F_SSD1306\obj/../User/driver_ssd1306_display_test.c:645
    if (res != 0)
    2166:	cd01                	beqz	a0,217e <ssd1306_display_test+0x24c>
c:\Users\Paul Scalise\CH592F_SSD1306\obj/../User/driver_ssd1306_display_test.c:647
        ssd1306_interface_debug_print("ssd1306: set display failed.\n");
    2168:	00004517          	auipc	a0,0x4
    216c:	20050513          	addi	a0,a0,512 # 6368 <gsc_ssd1306_ascii_2412+0x1598>
c:\Users\Paul Scalise\CH592F_SSD1306\obj/../User/driver_ssd1306_display_test.c:1302
        ssd1306_interface_debug_print("ssd1306: set left horizontal scroll failed.\n");
    2170:	147000ef          	jal	ra,2ab6 <ssd1306_interface_debug_print>
c:\Users\Paul Scalise\CH592F_SSD1306\obj/../User/driver_ssd1306_display_test.c:1303
        (void)ssd1306_deinit(&gs_handle);
    2174:	ddc18513          	addi	a0,gp,-548 # 200031dc <gs_handle>
    2178:	c80ff0ef          	jal	ra,15f8 <ssd1306_deinit>
c:\Users\Paul Scalise\CH592F_SSD1306\obj/../User/driver_ssd1306_display_test.c:1305
        return 1;
    217c:	bdd1                	j	2050 <ssd1306_display_test+0x11e>
c:\Users\Paul Scalise\CH592F_SSD1306\obj/../User/driver_ssd1306_display_test.c:654
    res = ssd1306_set_column_address_range(&gs_handle, 0x00, 0x7F);
    217e:	07f00613          	li	a2,127
    2182:	4581                	li	a1,0
    2184:	ddc18513          	addi	a0,gp,-548 # 200031dc <gs_handle>
    2188:	e04ff0ef          	jal	ra,178c <ssd1306_set_column_address_range>
c:\Users\Paul Scalise\CH592F_SSD1306\obj/../User/driver_ssd1306_display_test.c:655
    if (res != 0)
    218c:	c511                	beqz	a0,2198 <ssd1306_display_test+0x266>
c:\Users\Paul Scalise\CH592F_SSD1306\obj/../User/driver_ssd1306_display_test.c:657
        ssd1306_interface_debug_print("ssd1306: set column address range failed.\n");
    218e:	00004517          	auipc	a0,0x4
    2192:	1fa50513          	addi	a0,a0,506 # 6388 <gsc_ssd1306_ascii_2412+0x15b8>
    2196:	bfe9                	j	2170 <ssd1306_display_test+0x23e>
c:\Users\Paul Scalise\CH592F_SSD1306\obj/../User/driver_ssd1306_display_test.c:664
    res = ssd1306_set_page_address_range(&gs_handle, 0x00, 0x07);
    2198:	461d                	li	a2,7
    219a:	4581                	li	a1,0
    219c:	ddc18513          	addi	a0,gp,-548 # 200031dc <gs_handle>
    21a0:	e5cff0ef          	jal	ra,17fc <ssd1306_set_page_address_range>
c:\Users\Paul Scalise\CH592F_SSD1306\obj/../User/driver_ssd1306_display_test.c:665
    if (res != 0)
    21a4:	c511                	beqz	a0,21b0 <ssd1306_display_test+0x27e>
c:\Users\Paul Scalise\CH592F_SSD1306\obj/../User/driver_ssd1306_display_test.c:667
        ssd1306_interface_debug_print("ssd1306: set page address range failed.\n");
    21a6:	00004517          	auipc	a0,0x4
    21aa:	20e50513          	addi	a0,a0,526 # 63b4 <gsc_ssd1306_ascii_2412+0x15e4>
    21ae:	b7c9                	j	2170 <ssd1306_display_test+0x23e>
c:\Users\Paul Scalise\CH592F_SSD1306\obj/../User/driver_ssd1306_display_test.c:674
    res = ssd1306_set_low_column_start_address(&gs_handle, 0x00);
    21b0:	4581                	li	a1,0
    21b2:	ddc18513          	addi	a0,gp,-548 # 200031dc <gs_handle>
    21b6:	d2eff0ef          	jal	ra,16e4 <ssd1306_set_low_column_start_address>
c:\Users\Paul Scalise\CH592F_SSD1306\obj/../User/driver_ssd1306_display_test.c:675
    if (res != 0)
    21ba:	c511                	beqz	a0,21c6 <ssd1306_display_test+0x294>
c:\Users\Paul Scalise\CH592F_SSD1306\obj/../User/driver_ssd1306_display_test.c:677
        ssd1306_interface_debug_print("ssd1306: set low column start address failed.\n");
    21bc:	00004517          	auipc	a0,0x4
    21c0:	22450513          	addi	a0,a0,548 # 63e0 <gsc_ssd1306_ascii_2412+0x1610>
    21c4:	b775                	j	2170 <ssd1306_display_test+0x23e>
c:\Users\Paul Scalise\CH592F_SSD1306\obj/../User/driver_ssd1306_display_test.c:684
    res = ssd1306_set_high_column_start_address(&gs_handle, 0x00);
    21c6:	4581                	li	a1,0
    21c8:	ddc18513          	addi	a0,gp,-548 # 200031dc <gs_handle>
    21cc:	d50ff0ef          	jal	ra,171c <ssd1306_set_high_column_start_address>
c:\Users\Paul Scalise\CH592F_SSD1306\obj/../User/driver_ssd1306_display_test.c:685
    if (res != 0)
    21d0:	c511                	beqz	a0,21dc <ssd1306_display_test+0x2aa>
c:\Users\Paul Scalise\CH592F_SSD1306\obj/../User/driver_ssd1306_display_test.c:687
        ssd1306_interface_debug_print("ssd1306: set high column start address failed.\n");
    21d2:	00004517          	auipc	a0,0x4
    21d6:	23e50513          	addi	a0,a0,574 # 6410 <gsc_ssd1306_ascii_2412+0x1640>
    21da:	bf59                	j	2170 <ssd1306_display_test+0x23e>
c:\Users\Paul Scalise\CH592F_SSD1306\obj/../User/driver_ssd1306_display_test.c:694
    res = ssd1306_set_display_start_line(&gs_handle, 0x00);
    21dc:	4581                	li	a1,0
    21de:	ddc18513          	addi	a0,gp,-548 # 200031dc <gs_handle>
    21e2:	90bff0ef          	jal	ra,1aec <ssd1306_set_display_start_line>
c:\Users\Paul Scalise\CH592F_SSD1306\obj/../User/driver_ssd1306_display_test.c:695
    if (res != 0)
    21e6:	c511                	beqz	a0,21f2 <ssd1306_display_test+0x2c0>
c:\Users\Paul Scalise\CH592F_SSD1306\obj/../User/driver_ssd1306_display_test.c:697
        ssd1306_interface_debug_print("ssd1306: set display start line failed.\n");
    21e8:	00004517          	auipc	a0,0x4
    21ec:	25850513          	addi	a0,a0,600 # 6440 <gsc_ssd1306_ascii_2412+0x1670>
    21f0:	b741                	j	2170 <ssd1306_display_test+0x23e>
c:\Users\Paul Scalise\CH592F_SSD1306\obj/../User/driver_ssd1306_display_test.c:704
    res = ssd1306_set_fade_blinking_mode(&gs_handle, SSD1306_FADE_BLINKING_MODE_DISABLE, 0x00);
    21f2:	4601                	li	a2,0
    21f4:	4581                	li	a1,0
    21f6:	ddc18513          	addi	a0,gp,-548 # 200031dc <gs_handle>
    21fa:	e68ff0ef          	jal	ra,1862 <ssd1306_set_fade_blinking_mode>
c:\Users\Paul Scalise\CH592F_SSD1306\obj/../User/driver_ssd1306_display_test.c:705
    if (res != 0)
    21fe:	c511                	beqz	a0,220a <ssd1306_display_test+0x2d8>
c:\Users\Paul Scalise\CH592F_SSD1306\obj/../User/driver_ssd1306_display_test.c:707
        ssd1306_interface_debug_print("ssd1306: set fade blinking failed.\n");
    2200:	00004517          	auipc	a0,0x4
    2204:	26c50513          	addi	a0,a0,620 # 646c <gsc_ssd1306_ascii_2412+0x169c>
    2208:	b7a5                	j	2170 <ssd1306_display_test+0x23e>
c:\Users\Paul Scalise\CH592F_SSD1306\obj/../User/driver_ssd1306_display_test.c:714
    res = ssd1306_deactivate_scroll(&gs_handle);
    220a:	ddc18513          	addi	a0,gp,-548 # 200031dc <gs_handle>
    220e:	8a3ff0ef          	jal	ra,1ab0 <ssd1306_deactivate_scroll>
c:\Users\Paul Scalise\CH592F_SSD1306\obj/../User/driver_ssd1306_display_test.c:715
    if (res != 0)
    2212:	c511                	beqz	a0,221e <ssd1306_display_test+0x2ec>
c:\Users\Paul Scalise\CH592F_SSD1306\obj/../User/driver_ssd1306_display_test.c:717
        ssd1306_interface_debug_print("ssd1306: set deactivate scroll failed.\n");
    2214:	00004517          	auipc	a0,0x4
    2218:	27c50513          	addi	a0,a0,636 # 6490 <gsc_ssd1306_ascii_2412+0x16c0>
    221c:	bf91                	j	2170 <ssd1306_display_test+0x23e>
c:\Users\Paul Scalise\CH592F_SSD1306\obj/../User/driver_ssd1306_display_test.c:724
    res = ssd1306_set_zoom_in(&gs_handle, SSD1306_ZOOM_IN_DISABLE);
    221e:	4581                	li	a1,0
    2220:	ddc18513          	addi	a0,gp,-548 # 200031dc <gs_handle>
    2224:	36b9                	jal	1d72 <ssd1306_set_zoom_in>
c:\Users\Paul Scalise\CH592F_SSD1306\obj/../User/driver_ssd1306_display_test.c:725
    if (res != 0)
    2226:	c511                	beqz	a0,2232 <ssd1306_display_test+0x300>
c:\Users\Paul Scalise\CH592F_SSD1306\obj/../User/driver_ssd1306_display_test.c:727
        ssd1306_interface_debug_print("ssd1306: set set zoom in failed.\n");
    2228:	00004517          	auipc	a0,0x4
    222c:	29050513          	addi	a0,a0,656 # 64b8 <gsc_ssd1306_ascii_2412+0x16e8>
    2230:	b781                	j	2170 <ssd1306_display_test+0x23e>
c:\Users\Paul Scalise\CH592F_SSD1306\obj/../User/driver_ssd1306_display_test.c:734
    res = ssd1306_set_contrast(&gs_handle, 0xCF);
    2232:	0cf00593          	li	a1,207
    2236:	ddc18513          	addi	a0,gp,-548 # 200031dc <gs_handle>
    223a:	8f1ff0ef          	jal	ra,1b2a <ssd1306_set_contrast>
c:\Users\Paul Scalise\CH592F_SSD1306\obj/../User/driver_ssd1306_display_test.c:735
    if (res != 0)
    223e:	c511                	beqz	a0,224a <ssd1306_display_test+0x318>
c:\Users\Paul Scalise\CH592F_SSD1306\obj/../User/driver_ssd1306_display_test.c:737
        ssd1306_interface_debug_print("ssd1306: set contrast failed.\n");
    2240:	00004517          	auipc	a0,0x4
    2244:	29c50513          	addi	a0,a0,668 # 64dc <gsc_ssd1306_ascii_2412+0x170c>
    2248:	b725                	j	2170 <ssd1306_display_test+0x23e>
c:\Users\Paul Scalise\CH592F_SSD1306\obj/../User/driver_ssd1306_display_test.c:744
    res = ssd1306_set_segment_remap(&gs_handle, SSD1306_SEGMENT_COLUMN_ADDRESS_127);
    224a:	4585                	li	a1,1
    224c:	ddc18513          	addi	a0,gp,-548 # 200031dc <gs_handle>
    2250:	949ff0ef          	jal	ra,1b98 <ssd1306_set_segment_remap>
c:\Users\Paul Scalise\CH592F_SSD1306\obj/../User/driver_ssd1306_display_test.c:745
    if (res != 0)
    2254:	c511                	beqz	a0,2260 <ssd1306_display_test+0x32e>
c:\Users\Paul Scalise\CH592F_SSD1306\obj/../User/driver_ssd1306_display_test.c:747
        ssd1306_interface_debug_print("ssd1306: set segment remap failed.\n");
    2256:	00004517          	auipc	a0,0x4
    225a:	2a650513          	addi	a0,a0,678 # 64fc <gsc_ssd1306_ascii_2412+0x172c>
    225e:	bf09                	j	2170 <ssd1306_display_test+0x23e>
c:\Users\Paul Scalise\CH592F_SSD1306\obj/../User/driver_ssd1306_display_test.c:754
    res = ssd1306_set_scan_direction(&gs_handle, SSD1306_SCAN_DIRECTION_COMN_1_START);
    2260:	4585                	li	a1,1
    2262:	ddc18513          	addi	a0,gp,-548 # 200031dc <gs_handle>
    2266:	3c05                	jal	1c96 <ssd1306_set_scan_direction>
c:\Users\Paul Scalise\CH592F_SSD1306\obj/../User/driver_ssd1306_display_test.c:755
    if (res != 0)
    2268:	c511                	beqz	a0,2274 <ssd1306_display_test+0x342>
c:\Users\Paul Scalise\CH592F_SSD1306\obj/../User/driver_ssd1306_display_test.c:757
        ssd1306_interface_debug_print("ssd1306: set scan direction failed.\n");
    226a:	00004517          	auipc	a0,0x4
    226e:	2b650513          	addi	a0,a0,694 # 6520 <gsc_ssd1306_ascii_2412+0x1750>
    2272:	bdfd                	j	2170 <ssd1306_display_test+0x23e>
c:\Users\Paul Scalise\CH592F_SSD1306\obj/../User/driver_ssd1306_display_test.c:764
    res = ssd1306_set_display_mode(&gs_handle, SSD1306_DISPLAY_MODE_NORMAL);
    2274:	4581                	li	a1,0
    2276:	ddc18513          	addi	a0,gp,-548 # 200031dc <gs_handle>
    227a:	96bff0ef          	jal	ra,1be4 <ssd1306_set_display_mode>
c:\Users\Paul Scalise\CH592F_SSD1306\obj/../User/driver_ssd1306_display_test.c:765
    if (res != 0)
    227e:	c511                	beqz	a0,228a <ssd1306_display_test+0x358>
c:\Users\Paul Scalise\CH592F_SSD1306\obj/../User/driver_ssd1306_display_test.c:767
        ssd1306_interface_debug_print("ssd1306: set display mode failed.\n");
    2280:	00004517          	auipc	a0,0x4
    2284:	2c850513          	addi	a0,a0,712 # 6548 <gsc_ssd1306_ascii_2412+0x1778>
    2288:	b5e5                	j	2170 <ssd1306_display_test+0x23e>
c:\Users\Paul Scalise\CH592F_SSD1306\obj/../User/driver_ssd1306_display_test.c:774
    res = ssd1306_set_multiplex_ratio(&gs_handle, 0x3F);
    228a:	03f00593          	li	a1,63
    228e:	ddc18513          	addi	a0,gp,-548 # 200031dc <gs_handle>
    2292:	979ff0ef          	jal	ra,1c0a <ssd1306_set_multiplex_ratio>
c:\Users\Paul Scalise\CH592F_SSD1306\obj/../User/driver_ssd1306_display_test.c:775
    if (res != 0)
    2296:	c511                	beqz	a0,22a2 <ssd1306_display_test+0x370>
c:\Users\Paul Scalise\CH592F_SSD1306\obj/../User/driver_ssd1306_display_test.c:777
        ssd1306_interface_debug_print("ssd1306: set multiplex ratio failed.\n");
    2298:	00004517          	auipc	a0,0x4
    229c:	2d450513          	addi	a0,a0,724 # 656c <gsc_ssd1306_ascii_2412+0x179c>
    22a0:	bdc1                	j	2170 <ssd1306_display_test+0x23e>
c:\Users\Paul Scalise\CH592F_SSD1306\obj/../User/driver_ssd1306_display_test.c:784
    res = ssd1306_set_display_offset(&gs_handle, 0x00);
    22a2:	4581                	li	a1,0
    22a4:	ddc18513          	addi	a0,gp,-548 # 200031dc <gs_handle>
    22a8:	3c11                	jal	1cbc <ssd1306_set_display_offset>
c:\Users\Paul Scalise\CH592F_SSD1306\obj/../User/driver_ssd1306_display_test.c:785
    if (res != 0)
    22aa:	c511                	beqz	a0,22b6 <ssd1306_display_test+0x384>
c:\Users\Paul Scalise\CH592F_SSD1306\obj/../User/driver_ssd1306_display_test.c:787
        ssd1306_interface_debug_print("ssd1306: set display offset failed.\n");
    22ac:	00004517          	auipc	a0,0x4
    22b0:	2e850513          	addi	a0,a0,744 # 6594 <gsc_ssd1306_ascii_2412+0x17c4>
    22b4:	bd75                	j	2170 <ssd1306_display_test+0x23e>
c:\Users\Paul Scalise\CH592F_SSD1306\obj/../User/driver_ssd1306_display_test.c:794
    res = ssd1306_set_display_clock(&gs_handle, 0x08, 0x00);
    22b6:	4601                	li	a2,0
    22b8:	45a1                	li	a1,8
    22ba:	ddc18513          	addi	a0,gp,-548 # 200031dc <gs_handle>
    22be:	34b9                	jal	1d0c <ssd1306_set_display_clock>
c:\Users\Paul Scalise\CH592F_SSD1306\obj/../User/driver_ssd1306_display_test.c:795
    if (res != 0)
    22c0:	c511                	beqz	a0,22cc <ssd1306_display_test+0x39a>
c:\Users\Paul Scalise\CH592F_SSD1306\obj/../User/driver_ssd1306_display_test.c:797
        ssd1306_interface_debug_print("ssd1306: set display clock failed.\n");
    22c2:	00004517          	auipc	a0,0x4
    22c6:	2fa50513          	addi	a0,a0,762 # 65bc <gsc_ssd1306_ascii_2412+0x17ec>
    22ca:	b55d                	j	2170 <ssd1306_display_test+0x23e>
c:\Users\Paul Scalise\CH592F_SSD1306\obj/../User/driver_ssd1306_display_test.c:804
    res = ssd1306_set_precharge_period(&gs_handle, 0x01, 0x0F);
    22cc:	463d                	li	a2,15
    22ce:	4585                	li	a1,1
    22d0:	ddc18513          	addi	a0,gp,-548 # 200031dc <gs_handle>
    22d4:	3cc9                	jal	1da6 <ssd1306_set_precharge_period>
c:\Users\Paul Scalise\CH592F_SSD1306\obj/../User/driver_ssd1306_display_test.c:805
    if (res != 0)
    22d6:	c511                	beqz	a0,22e2 <ssd1306_display_test+0x3b0>
c:\Users\Paul Scalise\CH592F_SSD1306\obj/../User/driver_ssd1306_display_test.c:807
        ssd1306_interface_debug_print("ssd1306: set pre charge period failed.\n");
    22d8:	00004517          	auipc	a0,0x4
    22dc:	30850513          	addi	a0,a0,776 # 65e0 <gsc_ssd1306_ascii_2412+0x1810>
    22e0:	bd41                	j	2170 <ssd1306_display_test+0x23e>
c:\Users\Paul Scalise\CH592F_SSD1306\obj/../User/driver_ssd1306_display_test.c:814
    res = ssd1306_set_com_pins_hardware_conf(&gs_handle, SSD1306_PIN_CONF_ALTERNATIVE, SSD1306_LEFT_RIGHT_REMAP_DISABLE);
    22e2:	4601                	li	a2,0
    22e4:	4585                	li	a1,1
    22e6:	ddc18513          	addi	a0,gp,-548 # 200031dc <gs_handle>
    22ea:	360d                	jal	1e0c <ssd1306_set_com_pins_hardware_conf>
c:\Users\Paul Scalise\CH592F_SSD1306\obj/../User/driver_ssd1306_display_test.c:815
    if (res != 0)
    22ec:	c511                	beqz	a0,22f8 <ssd1306_display_test+0x3c6>
c:\Users\Paul Scalise\CH592F_SSD1306\obj/../User/driver_ssd1306_display_test.c:817
        ssd1306_interface_debug_print("ssd1306: set com pins hardware conf failed.\n");
    22ee:	00004517          	auipc	a0,0x4
    22f2:	31a50513          	addi	a0,a0,794 # 6608 <gsc_ssd1306_ascii_2412+0x1838>
    22f6:	bdad                	j	2170 <ssd1306_display_test+0x23e>
c:\Users\Paul Scalise\CH592F_SSD1306\obj/../User/driver_ssd1306_display_test.c:824
    res = ssd1306_set_deselect_level(&gs_handle, SSD1306_DESELECT_LEVEL_0P77);
    22f8:	4589                	li	a1,2
    22fa:	ddc18513          	addi	a0,gp,-548 # 200031dc <gs_handle>
    22fe:	36b1                	jal	1e4a <ssd1306_set_deselect_level>
c:\Users\Paul Scalise\CH592F_SSD1306\obj/../User/driver_ssd1306_display_test.c:825
    if (res != 0)
    2300:	c511                	beqz	a0,230c <ssd1306_display_test+0x3da>
c:\Users\Paul Scalise\CH592F_SSD1306\obj/../User/driver_ssd1306_display_test.c:827
        ssd1306_interface_debug_print("ssd1306: set deselect level failed.\n");
    2302:	00004517          	auipc	a0,0x4
    2306:	33650513          	addi	a0,a0,822 # 6638 <gsc_ssd1306_ascii_2412+0x1868>
    230a:	b59d                	j	2170 <ssd1306_display_test+0x23e>
c:\Users\Paul Scalise\CH592F_SSD1306\obj/../User/driver_ssd1306_display_test.c:834
    res = ssd1306_set_memory_addressing_mode(&gs_handle, SSD1306_MEMORY_ADDRESSING_MODE_PAGE);
    230c:	4589                	li	a1,2
    230e:	ddc18513          	addi	a0,gp,-548 # 200031dc <gs_handle>
    2312:	c46ff0ef          	jal	ra,1758 <ssd1306_set_memory_addressing_mode>
c:\Users\Paul Scalise\CH592F_SSD1306\obj/../User/driver_ssd1306_display_test.c:835
    if (res != 0)
    2316:	c511                	beqz	a0,2322 <ssd1306_display_test+0x3f0>
c:\Users\Paul Scalise\CH592F_SSD1306\obj/../User/driver_ssd1306_display_test.c:837
        ssd1306_interface_debug_print("ssd1306: set memory addressing level failed.\n");
    2318:	00004517          	auipc	a0,0x4
    231c:	34850513          	addi	a0,a0,840 # 6660 <gsc_ssd1306_ascii_2412+0x1890>
    2320:	bd81                	j	2170 <ssd1306_display_test+0x23e>
c:\Users\Paul Scalise\CH592F_SSD1306\obj/../User/driver_ssd1306_display_test.c:844
    res = ssd1306_set_charge_pump(&gs_handle, SSD1306_CHARGE_PUMP_ENABLE);
    2322:	4585                	li	a1,1
    2324:	ddc18513          	addi	a0,gp,-548 # 200031dc <gs_handle>
    2328:	837ff0ef          	jal	ra,1b5e <ssd1306_set_charge_pump>
c:\Users\Paul Scalise\CH592F_SSD1306\obj/../User/driver_ssd1306_display_test.c:845
    if (res != 0)
    232c:	c511                	beqz	a0,2338 <ssd1306_display_test+0x406>
c:\Users\Paul Scalise\CH592F_SSD1306\obj/../User/driver_ssd1306_display_test.c:847
        ssd1306_interface_debug_print("ssd1306: set charge pump failed.\n");
    232e:	00004517          	auipc	a0,0x4
    2332:	36250513          	addi	a0,a0,866 # 6690 <gsc_ssd1306_ascii_2412+0x18c0>
    2336:	bd2d                	j	2170 <ssd1306_display_test+0x23e>
c:\Users\Paul Scalise\CH592F_SSD1306\obj/../User/driver_ssd1306_display_test.c:854
    res = ssd1306_set_entire_display(&gs_handle, SSD1306_ENTIRE_DISPLAY_OFF);
    2338:	4581                	li	a1,0
    233a:	ddc18513          	addi	a0,gp,-548 # 200031dc <gs_handle>
    233e:	881ff0ef          	jal	ra,1bbe <ssd1306_set_entire_display>
c:\Users\Paul Scalise\CH592F_SSD1306\obj/../User/driver_ssd1306_display_test.c:855
    if (res != 0)
    2342:	c511                	beqz	a0,234e <ssd1306_display_test+0x41c>
c:\Users\Paul Scalise\CH592F_SSD1306\obj/../User/driver_ssd1306_display_test.c:857
        ssd1306_interface_debug_print("ssd1306: set entire display failed.\n");
    2344:	00004517          	auipc	a0,0x4
    2348:	37050513          	addi	a0,a0,880 # 66b4 <gsc_ssd1306_ascii_2412+0x18e4>
    234c:	b515                	j	2170 <ssd1306_display_test+0x23e>
c:\Users\Paul Scalise\CH592F_SSD1306\obj/../User/driver_ssd1306_display_test.c:864
    res = ssd1306_set_display(&gs_handle, SSD1306_DISPLAY_ON);
    234e:	4585                	li	a1,1
    2350:	ddc18513          	addi	a0,gp,-548 # 200031dc <gs_handle>
    2354:	91dff0ef          	jal	ra,1c70 <ssd1306_set_display>
c:\Users\Paul Scalise\CH592F_SSD1306\obj/../User/driver_ssd1306_display_test.c:865
    if (res != 0)
    2358:	e00518e3          	bnez	a0,2168 <ssd1306_display_test+0x236>
c:\Users\Paul Scalise\CH592F_SSD1306\obj/../User/driver_ssd1306_display_test.c:874
    res = ssd1306_clear(&gs_handle);
    235c:	ddc18513          	addi	a0,gp,-548 # 200031dc <gs_handle>
    2360:	c05fe0ef          	jal	ra,f64 <ssd1306_clear>
c:\Users\Paul Scalise\CH592F_SSD1306\obj/../User/driver_ssd1306_display_test.c:875
    if (res != 0)
    2364:	c511                	beqz	a0,2370 <ssd1306_display_test+0x43e>
c:\Users\Paul Scalise\CH592F_SSD1306\obj/../User/driver_ssd1306_display_test.c:877
        ssd1306_interface_debug_print("ssd1306: clear failed.\n");
    2366:	00004517          	auipc	a0,0x4
    236a:	37650513          	addi	a0,a0,886 # 66dc <gsc_ssd1306_ascii_2412+0x190c>
    236e:	b509                	j	2170 <ssd1306_display_test+0x23e>
c:\Users\Paul Scalise\CH592F_SSD1306\obj/../User/driver_ssd1306_display_test.c:884
    ssd1306_interface_debug_print("ssd1306: start display test.\n");
    2370:	00004517          	auipc	a0,0x4
    2374:	38450513          	addi	a0,a0,900 # 66f4 <gsc_ssd1306_ascii_2412+0x1924>
    2378:	73e000ef          	jal	ra,2ab6 <ssd1306_interface_debug_print>
c:\Users\Paul Scalise\CH592F_SSD1306\obj/../User/driver_ssd1306_display_test.c:887
    ssd1306_interface_debug_print("ssd1306: font 12 test.\n");
    237c:	00004517          	auipc	a0,0x4
    2380:	39850513          	addi	a0,a0,920 # 6714 <gsc_ssd1306_ascii_2412+0x1944>
    2384:	732000ef          	jal	ra,2ab6 <ssd1306_interface_debug_print>
c:\Users\Paul Scalise\CH592F_SSD1306\obj/../User/driver_ssd1306_display_test.c:890
    res =  ssd1306_gram_write_string(&gs_handle, 0, 0, (char *)test_str1, (uint16_t)strlen(test_str1), 1, SSD1306_FONT_12);
    2388:	1048                	addi	a0,sp,36
    238a:	687000ef          	jal	ra,3210 <strlen>
    238e:	01051713          	slli	a4,a0,0x10
    2392:	4831                	li	a6,12
    2394:	4785                	li	a5,1
    2396:	8341                	srli	a4,a4,0x10
    2398:	1054                	addi	a3,sp,36
    239a:	4601                	li	a2,0
    239c:	4581                	li	a1,0
    239e:	ddc18513          	addi	a0,gp,-548 # 200031dc <gs_handle>
    23a2:	d59fe0ef          	jal	ra,10fa <ssd1306_gram_write_string>
c:\Users\Paul Scalise\CH592F_SSD1306\obj/../User/driver_ssd1306_display_test.c:891
    if (res != 0)
    23a6:	c511                	beqz	a0,23b2 <ssd1306_display_test+0x480>
c:\Users\Paul Scalise\CH592F_SSD1306\obj/../User/driver_ssd1306_display_test.c:893
        ssd1306_interface_debug_print("ssd1306: gram write string failed.\n");
    23a8:	00004517          	auipc	a0,0x4
    23ac:	38450513          	addi	a0,a0,900 # 672c <gsc_ssd1306_ascii_2412+0x195c>
    23b0:	b3c1                	j	2170 <ssd1306_display_test+0x23e>
c:\Users\Paul Scalise\CH592F_SSD1306\obj/../User/driver_ssd1306_display_test.c:900
    res =  ssd1306_gram_write_string(&gs_handle, 0, 15, (char *)test_str2, (uint16_t)strlen(test_str2), 1, SSD1306_FONT_12);
    23b2:	0808                	addi	a0,sp,16
    23b4:	65d000ef          	jal	ra,3210 <strlen>
    23b8:	01051713          	slli	a4,a0,0x10
    23bc:	4831                	li	a6,12
    23be:	4785                	li	a5,1
    23c0:	8341                	srli	a4,a4,0x10
    23c2:	0814                	addi	a3,sp,16
    23c4:	463d                	li	a2,15
    23c6:	4581                	li	a1,0
    23c8:	ddc18513          	addi	a0,gp,-548 # 200031dc <gs_handle>
    23cc:	d2ffe0ef          	jal	ra,10fa <ssd1306_gram_write_string>
c:\Users\Paul Scalise\CH592F_SSD1306\obj/../User/driver_ssd1306_display_test.c:901
    if (res != 0)
    23d0:	fd61                	bnez	a0,23a8 <ssd1306_display_test+0x476>
c:\Users\Paul Scalise\CH592F_SSD1306\obj/../User/driver_ssd1306_display_test.c:910
    res =  ssd1306_gram_write_string(&gs_handle, 0, 31, (char *)test_str3, (uint16_t)strlen(test_str3), 1, SSD1306_FONT_12);
    23d2:	0028                	addi	a0,sp,8
    23d4:	63d000ef          	jal	ra,3210 <strlen>
    23d8:	01051713          	slli	a4,a0,0x10
    23dc:	4831                	li	a6,12
    23de:	4785                	li	a5,1
    23e0:	8341                	srli	a4,a4,0x10
    23e2:	0034                	addi	a3,sp,8
    23e4:	467d                	li	a2,31
    23e6:	4581                	li	a1,0
    23e8:	ddc18513          	addi	a0,gp,-548 # 200031dc <gs_handle>
    23ec:	d0ffe0ef          	jal	ra,10fa <ssd1306_gram_write_string>
c:\Users\Paul Scalise\CH592F_SSD1306\obj/../User/driver_ssd1306_display_test.c:911
    if (res != 0)
    23f0:	fd45                	bnez	a0,23a8 <ssd1306_display_test+0x476>
c:\Users\Paul Scalise\CH592F_SSD1306\obj/../User/driver_ssd1306_display_test.c:920
    res =  ssd1306_gram_write_string(&gs_handle, 0, 47, (char *)test_str4, (uint16_t)strlen(test_str4), 1, SSD1306_FONT_12);
    23f2:	0828                	addi	a0,sp,24
    23f4:	61d000ef          	jal	ra,3210 <strlen>
    23f8:	01051713          	slli	a4,a0,0x10
    23fc:	4831                	li	a6,12
    23fe:	4785                	li	a5,1
    2400:	8341                	srli	a4,a4,0x10
    2402:	0834                	addi	a3,sp,24
    2404:	02f00613          	li	a2,47
    2408:	4581                	li	a1,0
    240a:	ddc18513          	addi	a0,gp,-548 # 200031dc <gs_handle>
    240e:	cedfe0ef          	jal	ra,10fa <ssd1306_gram_write_string>
c:\Users\Paul Scalise\CH592F_SSD1306\obj/../User/driver_ssd1306_display_test.c:921
    if (res != 0)
    2412:	f959                	bnez	a0,23a8 <ssd1306_display_test+0x476>
c:\Users\Paul Scalise\CH592F_SSD1306\obj/../User/driver_ssd1306_display_test.c:930
    res = ssd1306_gram_update(&gs_handle);
    2414:	ddc18513          	addi	a0,gp,-548 # 200031dc <gs_handle>
    2418:	be1fe0ef          	jal	ra,ff8 <ssd1306_gram_update>
c:\Users\Paul Scalise\CH592F_SSD1306\obj/../User/driver_ssd1306_display_test.c:931
    if (res != 0)
    241c:	f529                	bnez	a0,2366 <ssd1306_display_test+0x434>
c:\Users\Paul Scalise\CH592F_SSD1306\obj/../User/driver_ssd1306_display_test.c:940
    ssd1306_interface_delay_ms(3000);
    241e:	6405                	lui	s0,0x1
    2420:	bb840513          	addi	a0,s0,-1096 # bb8 <handle_reset+0x18>
    2424:	686000ef          	jal	ra,2aaa <ssd1306_interface_delay_ms>
c:\Users\Paul Scalise\CH592F_SSD1306\obj/../User/driver_ssd1306_display_test.c:943
    ssd1306_interface_debug_print("ssd1306: font 16 test.\n");
    2428:	00004517          	auipc	a0,0x4
    242c:	32850513          	addi	a0,a0,808 # 6750 <gsc_ssd1306_ascii_2412+0x1980>
    2430:	686000ef          	jal	ra,2ab6 <ssd1306_interface_debug_print>
c:\Users\Paul Scalise\CH592F_SSD1306\obj/../User/driver_ssd1306_display_test.c:946
    res = ssd1306_clear(&gs_handle);
    2434:	ddc18513          	addi	a0,gp,-548 # 200031dc <gs_handle>
    2438:	b2dfe0ef          	jal	ra,f64 <ssd1306_clear>
c:\Users\Paul Scalise\CH592F_SSD1306\obj/../User/driver_ssd1306_display_test.c:947
    if (res != 0)
    243c:	f20515e3          	bnez	a0,2366 <ssd1306_display_test+0x434>
c:\Users\Paul Scalise\CH592F_SSD1306\obj/../User/driver_ssd1306_display_test.c:956
    res =  ssd1306_gram_write_string(&gs_handle, 0, 0, (char *)test_str1, (uint16_t)strlen(test_str1), 1, SSD1306_FONT_16);
    2440:	1048                	addi	a0,sp,36
    2442:	5cf000ef          	jal	ra,3210 <strlen>
    2446:	01051713          	slli	a4,a0,0x10
    244a:	4841                	li	a6,16
    244c:	4785                	li	a5,1
    244e:	8341                	srli	a4,a4,0x10
    2450:	1054                	addi	a3,sp,36
    2452:	4601                	li	a2,0
    2454:	4581                	li	a1,0
    2456:	ddc18513          	addi	a0,gp,-548 # 200031dc <gs_handle>
    245a:	ca1fe0ef          	jal	ra,10fa <ssd1306_gram_write_string>
c:\Users\Paul Scalise\CH592F_SSD1306\obj/../User/driver_ssd1306_display_test.c:957
    if (res != 0)
    245e:	f529                	bnez	a0,23a8 <ssd1306_display_test+0x476>
c:\Users\Paul Scalise\CH592F_SSD1306\obj/../User/driver_ssd1306_display_test.c:966
    res =  ssd1306_gram_write_string(&gs_handle, 0, 15, (char *)test_str2, (uint16_t)strlen(test_str2), 1, SSD1306_FONT_16);
    2460:	0808                	addi	a0,sp,16
    2462:	5af000ef          	jal	ra,3210 <strlen>
    2466:	01051713          	slli	a4,a0,0x10
    246a:	4841                	li	a6,16
    246c:	4785                	li	a5,1
    246e:	8341                	srli	a4,a4,0x10
    2470:	0814                	addi	a3,sp,16
    2472:	463d                	li	a2,15
    2474:	4581                	li	a1,0
    2476:	ddc18513          	addi	a0,gp,-548 # 200031dc <gs_handle>
    247a:	c81fe0ef          	jal	ra,10fa <ssd1306_gram_write_string>
c:\Users\Paul Scalise\CH592F_SSD1306\obj/../User/driver_ssd1306_display_test.c:967
    if (res != 0)
    247e:	f20515e3          	bnez	a0,23a8 <ssd1306_display_test+0x476>
c:\Users\Paul Scalise\CH592F_SSD1306\obj/../User/driver_ssd1306_display_test.c:976
    res =  ssd1306_gram_write_string(&gs_handle, 0, 31, (char *)test_str3, (uint16_t)strlen(test_str3), 1, SSD1306_FONT_16);
    2482:	0028                	addi	a0,sp,8
    2484:	58d000ef          	jal	ra,3210 <strlen>
    2488:	01051713          	slli	a4,a0,0x10
    248c:	4841                	li	a6,16
    248e:	4785                	li	a5,1
    2490:	8341                	srli	a4,a4,0x10
    2492:	0034                	addi	a3,sp,8
    2494:	467d                	li	a2,31
    2496:	4581                	li	a1,0
    2498:	ddc18513          	addi	a0,gp,-548 # 200031dc <gs_handle>
    249c:	c5ffe0ef          	jal	ra,10fa <ssd1306_gram_write_string>
c:\Users\Paul Scalise\CH592F_SSD1306\obj/../User/driver_ssd1306_display_test.c:977
    if (res != 0)
    24a0:	f00514e3          	bnez	a0,23a8 <ssd1306_display_test+0x476>
c:\Users\Paul Scalise\CH592F_SSD1306\obj/../User/driver_ssd1306_display_test.c:986
    res =  ssd1306_gram_write_string(&gs_handle, 0, 47, (char *)test_str4, (uint16_t)strlen(test_str4), 1, SSD1306_FONT_16);
    24a4:	0828                	addi	a0,sp,24
    24a6:	56b000ef          	jal	ra,3210 <strlen>
    24aa:	01051713          	slli	a4,a0,0x10
    24ae:	4841                	li	a6,16
    24b0:	4785                	li	a5,1
    24b2:	8341                	srli	a4,a4,0x10
    24b4:	0834                	addi	a3,sp,24
    24b6:	02f00613          	li	a2,47
    24ba:	4581                	li	a1,0
    24bc:	ddc18513          	addi	a0,gp,-548 # 200031dc <gs_handle>
    24c0:	c3bfe0ef          	jal	ra,10fa <ssd1306_gram_write_string>
c:\Users\Paul Scalise\CH592F_SSD1306\obj/../User/driver_ssd1306_display_test.c:987
    if (res != 0)
    24c4:	ee0512e3          	bnez	a0,23a8 <ssd1306_display_test+0x476>
c:\Users\Paul Scalise\CH592F_SSD1306\obj/../User/driver_ssd1306_display_test.c:996
    res = ssd1306_gram_update(&gs_handle);
    24c8:	ddc18513          	addi	a0,gp,-548 # 200031dc <gs_handle>
    24cc:	b2dfe0ef          	jal	ra,ff8 <ssd1306_gram_update>
c:\Users\Paul Scalise\CH592F_SSD1306\obj/../User/driver_ssd1306_display_test.c:997
    if (res != 0)
    24d0:	e8051be3          	bnez	a0,2366 <ssd1306_display_test+0x434>
c:\Users\Paul Scalise\CH592F_SSD1306\obj/../User/driver_ssd1306_display_test.c:1006
    ssd1306_interface_delay_ms(3000);
    24d4:	bb840513          	addi	a0,s0,-1096
    24d8:	5d2000ef          	jal	ra,2aaa <ssd1306_interface_delay_ms>
c:\Users\Paul Scalise\CH592F_SSD1306\obj/../User/driver_ssd1306_display_test.c:1009
    ssd1306_interface_debug_print("ssd1306: font 24 test.\n");
    24dc:	00004517          	auipc	a0,0x4
    24e0:	28c50513          	addi	a0,a0,652 # 6768 <gsc_ssd1306_ascii_2412+0x1998>
    24e4:	5d2000ef          	jal	ra,2ab6 <ssd1306_interface_debug_print>
c:\Users\Paul Scalise\CH592F_SSD1306\obj/../User/driver_ssd1306_display_test.c:1012
    res = ssd1306_clear(&gs_handle);
    24e8:	ddc18513          	addi	a0,gp,-548 # 200031dc <gs_handle>
    24ec:	a79fe0ef          	jal	ra,f64 <ssd1306_clear>
c:\Users\Paul Scalise\CH592F_SSD1306\obj/../User/driver_ssd1306_display_test.c:1013
    if (res != 0)
    24f0:	e6051be3          	bnez	a0,2366 <ssd1306_display_test+0x434>
c:\Users\Paul Scalise\CH592F_SSD1306\obj/../User/driver_ssd1306_display_test.c:1022
    res =  ssd1306_gram_write_string(&gs_handle, 0, 0, (char *)test_str3, (uint16_t)strlen(test_str3), 1, SSD1306_FONT_24);
    24f4:	0028                	addi	a0,sp,8
    24f6:	51b000ef          	jal	ra,3210 <strlen>
    24fa:	01051713          	slli	a4,a0,0x10
    24fe:	4861                	li	a6,24
    2500:	4785                	li	a5,1
    2502:	8341                	srli	a4,a4,0x10
    2504:	0034                	addi	a3,sp,8
    2506:	4601                	li	a2,0
    2508:	4581                	li	a1,0
    250a:	ddc18513          	addi	a0,gp,-548 # 200031dc <gs_handle>
    250e:	bedfe0ef          	jal	ra,10fa <ssd1306_gram_write_string>
c:\Users\Paul Scalise\CH592F_SSD1306\obj/../User/driver_ssd1306_display_test.c:1023
    if (res != 0)
    2512:	e8051be3          	bnez	a0,23a8 <ssd1306_display_test+0x476>
c:\Users\Paul Scalise\CH592F_SSD1306\obj/../User/driver_ssd1306_display_test.c:1032
    res =  ssd1306_gram_write_string(&gs_handle, 0, 31, (char *)test_str4, (uint16_t)strlen(test_str4), 1, SSD1306_FONT_24);
    2516:	0828                	addi	a0,sp,24
    2518:	4f9000ef          	jal	ra,3210 <strlen>
    251c:	01051713          	slli	a4,a0,0x10
    2520:	4861                	li	a6,24
    2522:	4785                	li	a5,1
    2524:	8341                	srli	a4,a4,0x10
    2526:	0834                	addi	a3,sp,24
    2528:	467d                	li	a2,31
    252a:	4581                	li	a1,0
    252c:	ddc18513          	addi	a0,gp,-548 # 200031dc <gs_handle>
    2530:	bcbfe0ef          	jal	ra,10fa <ssd1306_gram_write_string>
c:\Users\Paul Scalise\CH592F_SSD1306\obj/../User/driver_ssd1306_display_test.c:1033
    if (res != 0)
    2534:	e6051ae3          	bnez	a0,23a8 <ssd1306_display_test+0x476>
c:\Users\Paul Scalise\CH592F_SSD1306\obj/../User/driver_ssd1306_display_test.c:1042
    res = ssd1306_gram_update(&gs_handle);
    2538:	ddc18513          	addi	a0,gp,-548 # 200031dc <gs_handle>
    253c:	abdfe0ef          	jal	ra,ff8 <ssd1306_gram_update>
c:\Users\Paul Scalise\CH592F_SSD1306\obj/../User/driver_ssd1306_display_test.c:1043
    if (res != 0)
    2540:	e20513e3          	bnez	a0,2366 <ssd1306_display_test+0x434>
c:\Users\Paul Scalise\CH592F_SSD1306\obj/../User/driver_ssd1306_display_test.c:1052
    ssd1306_interface_delay_ms(3000);
    2544:	bb840513          	addi	a0,s0,-1096
    2548:	562000ef          	jal	ra,2aaa <ssd1306_interface_delay_ms>
c:\Users\Paul Scalise\CH592F_SSD1306\obj/../User/driver_ssd1306_display_test.c:1055
    ssd1306_interface_debug_print("ssd1306: rectangle test.\n");
    254c:	00004517          	auipc	a0,0x4
    2550:	23450513          	addi	a0,a0,564 # 6780 <gsc_ssd1306_ascii_2412+0x19b0>
    2554:	562000ef          	jal	ra,2ab6 <ssd1306_interface_debug_print>
c:\Users\Paul Scalise\CH592F_SSD1306\obj/../User/driver_ssd1306_display_test.c:1058
    res = ssd1306_clear(&gs_handle);
    2558:	ddc18513          	addi	a0,gp,-548 # 200031dc <gs_handle>
    255c:	a09fe0ef          	jal	ra,f64 <ssd1306_clear>
c:\Users\Paul Scalise\CH592F_SSD1306\obj/../User/driver_ssd1306_display_test.c:1059
    if (res != 0)
    2560:	e00513e3          	bnez	a0,2366 <ssd1306_display_test+0x434>
c:\Users\Paul Scalise\CH592F_SSD1306\obj/../User/driver_ssd1306_display_test.c:1068
    res = ssd1306_gram_fill_rect(&gs_handle, 0, 0, 15, 15, 1);
    2564:	4785                	li	a5,1
    2566:	473d                	li	a4,15
    2568:	46bd                	li	a3,15
    256a:	4601                	li	a2,0
    256c:	4581                	li	a1,0
    256e:	ddc18513          	addi	a0,gp,-548 # 200031dc <gs_handle>
    2572:	d6dfe0ef          	jal	ra,12de <ssd1306_gram_fill_rect>
c:\Users\Paul Scalise\CH592F_SSD1306\obj/../User/driver_ssd1306_display_test.c:1069
    if (res != 0)
    2576:	c511                	beqz	a0,2582 <ssd1306_display_test+0x650>
c:\Users\Paul Scalise\CH592F_SSD1306\obj/../User/driver_ssd1306_display_test.c:1071
        ssd1306_interface_debug_print("ssd1306: gram fill rect failed.\n");
    2578:	00004517          	auipc	a0,0x4
    257c:	22450513          	addi	a0,a0,548 # 679c <gsc_ssd1306_ascii_2412+0x19cc>
    2580:	bec5                	j	2170 <ssd1306_display_test+0x23e>
c:\Users\Paul Scalise\CH592F_SSD1306\obj/../User/driver_ssd1306_display_test.c:1078
    res = ssd1306_gram_fill_rect(&gs_handle, 0, 15, 31, 31, 1);
    2582:	4785                	li	a5,1
    2584:	477d                	li	a4,31
    2586:	46fd                	li	a3,31
    2588:	463d                	li	a2,15
    258a:	4581                	li	a1,0
    258c:	ddc18513          	addi	a0,gp,-548 # 200031dc <gs_handle>
    2590:	d4ffe0ef          	jal	ra,12de <ssd1306_gram_fill_rect>
c:\Users\Paul Scalise\CH592F_SSD1306\obj/../User/driver_ssd1306_display_test.c:1079
    if (res != 0)
    2594:	f175                	bnez	a0,2578 <ssd1306_display_test+0x646>
c:\Users\Paul Scalise\CH592F_SSD1306\obj/../User/driver_ssd1306_display_test.c:1088
    res = ssd1306_gram_fill_rect(&gs_handle, 0, 31, 47, 47, 1);
    2596:	4785                	li	a5,1
    2598:	02f00713          	li	a4,47
    259c:	02f00693          	li	a3,47
    25a0:	467d                	li	a2,31
    25a2:	4581                	li	a1,0
    25a4:	ddc18513          	addi	a0,gp,-548 # 200031dc <gs_handle>
    25a8:	d37fe0ef          	jal	ra,12de <ssd1306_gram_fill_rect>
c:\Users\Paul Scalise\CH592F_SSD1306\obj/../User/driver_ssd1306_display_test.c:1089
    if (res != 0)
    25ac:	f571                	bnez	a0,2578 <ssd1306_display_test+0x646>
c:\Users\Paul Scalise\CH592F_SSD1306\obj/../User/driver_ssd1306_display_test.c:1098
    res = ssd1306_gram_fill_rect(&gs_handle, 0, 47, 63, 63, 1);
    25ae:	4785                	li	a5,1
    25b0:	03f00713          	li	a4,63
    25b4:	03f00693          	li	a3,63
    25b8:	02f00613          	li	a2,47
    25bc:	4581                	li	a1,0
    25be:	ddc18513          	addi	a0,gp,-548 # 200031dc <gs_handle>
    25c2:	d1dfe0ef          	jal	ra,12de <ssd1306_gram_fill_rect>
c:\Users\Paul Scalise\CH592F_SSD1306\obj/../User/driver_ssd1306_display_test.c:1099
    if (res != 0)
    25c6:	f94d                	bnez	a0,2578 <ssd1306_display_test+0x646>
c:\Users\Paul Scalise\CH592F_SSD1306\obj/../User/driver_ssd1306_display_test.c:1108
    res = ssd1306_gram_update(&gs_handle);
    25c8:	ddc18513          	addi	a0,gp,-548 # 200031dc <gs_handle>
    25cc:	a2dfe0ef          	jal	ra,ff8 <ssd1306_gram_update>
c:\Users\Paul Scalise\CH592F_SSD1306\obj/../User/driver_ssd1306_display_test.c:1109
    if (res != 0)
    25d0:	d8051be3          	bnez	a0,2366 <ssd1306_display_test+0x434>
c:\Users\Paul Scalise\CH592F_SSD1306\obj/../User/driver_ssd1306_display_test.c:1118
    ssd1306_interface_delay_ms(3000);
    25d4:	bb840513          	addi	a0,s0,-1096
    25d8:	4d2000ef          	jal	ra,2aaa <ssd1306_interface_delay_ms>
c:\Users\Paul Scalise\CH592F_SSD1306\obj/../User/driver_ssd1306_display_test.c:1121
    ssd1306_interface_debug_print("ssd1306: rand point test.\n");
    25dc:	00004517          	auipc	a0,0x4
    25e0:	1e450513          	addi	a0,a0,484 # 67c0 <gsc_ssd1306_ascii_2412+0x19f0>
    25e4:	4d2000ef          	jal	ra,2ab6 <ssd1306_interface_debug_print>
c:\Users\Paul Scalise\CH592F_SSD1306\obj/../User/driver_ssd1306_display_test.c:1124
    res = ssd1306_clear(&gs_handle);
    25e8:	ddc18513          	addi	a0,gp,-548 # 200031dc <gs_handle>
    25ec:	979fe0ef          	jal	ra,f64 <ssd1306_clear>
    25f0:	842a                	mv	s0,a0
c:\Users\Paul Scalise\CH592F_SSD1306\obj/../User/driver_ssd1306_display_test.c:1125
    if (res != 0)
    25f2:	d6051ae3          	bnez	a0,2366 <ssd1306_display_test+0x434>
c:\Users\Paul Scalise\CH592F_SSD1306\obj/../User/driver_ssd1306_display_test.c:1132
    for (i = 0; i < 128; i++)
    25f6:	4481                	li	s1,0
c:\Users\Paul Scalise\CH592F_SSD1306\obj/../User/driver_ssd1306_display_test.c:1136
            res = ssd1306_gram_write_point(&gs_handle, i, j, rand()%2);
    25f8:	4909                	li	s2,2
    25fa:	ddc18993          	addi	s3,gp,-548 # 200031dc <gs_handle>
c:\Users\Paul Scalise\CH592F_SSD1306\obj/../User/driver_ssd1306_display_test.c:1134
        for (j = 0; j < 64; j++)
    25fe:	04000a13          	li	s4,64
c:\Users\Paul Scalise\CH592F_SSD1306\obj/../User/driver_ssd1306_display_test.c:1136
            res = ssd1306_gram_write_point(&gs_handle, i, j, rand()%2);
    2602:	385000ef          	jal	ra,3186 <rand>
    2606:	032566b3          	rem	a3,a0,s2
    260a:	8622                	mv	a2,s0
    260c:	85a6                	mv	a1,s1
    260e:	854e                	mv	a0,s3
    2610:	0ff6f693          	andi	a3,a3,255
    2614:	a77fe0ef          	jal	ra,108a <ssd1306_gram_write_point>
c:\Users\Paul Scalise\CH592F_SSD1306\obj/../User/driver_ssd1306_display_test.c:1137
            if (res != 0)
    2618:	c901                	beqz	a0,2628 <ssd1306_display_test+0x6f6>
c:\Users\Paul Scalise\CH592F_SSD1306\obj/../User/driver_ssd1306_display_test.c:1139
                ssd1306_interface_debug_print("ssd1306: gram write point failed.\n");
    261a:	00004517          	auipc	a0,0x4
    261e:	1c250513          	addi	a0,a0,450 # 67dc <gsc_ssd1306_ascii_2412+0x1a0c>
    2622:	b6b9                	j	2170 <ssd1306_display_test+0x23e>
c:\Users\Paul Scalise\CH592F_SSD1306\obj/../User/driver_ssd1306_display_test.c:1134
        for (j = 0; j < 64; j++)
    2624:	4401                	li	s0,0
    2626:	bff1                	j	2602 <ssd1306_display_test+0x6d0>
c:\Users\Paul Scalise\CH592F_SSD1306\obj/../User/driver_ssd1306_display_test.c:1134 (discriminator 2)
    2628:	0405                	addi	s0,s0,1
    262a:	0ff47413          	andi	s0,s0,255
    262e:	fd441ae3          	bne	s0,s4,2602 <ssd1306_display_test+0x6d0>
c:\Users\Paul Scalise\CH592F_SSD1306\obj/../User/driver_ssd1306_display_test.c:1132 (discriminator 2)
    for (i = 0; i < 128; i++)
    2632:	0485                	addi	s1,s1,1
    2634:	0ff4f493          	andi	s1,s1,255
    2638:	01849793          	slli	a5,s1,0x18
    263c:	87e1                	srai	a5,a5,0x18
    263e:	fe07d3e3          	bgez	a5,2624 <ssd1306_display_test+0x6f2>
c:\Users\Paul Scalise\CH592F_SSD1306\obj/../User/driver_ssd1306_display_test.c:1148
    res = ssd1306_gram_update(&gs_handle);
    2642:	ddc18513          	addi	a0,gp,-548 # 200031dc <gs_handle>
    2646:	9b3fe0ef          	jal	ra,ff8 <ssd1306_gram_update>
c:\Users\Paul Scalise\CH592F_SSD1306\obj/../User/driver_ssd1306_display_test.c:1149
    if (res != 0)
    264a:	d0051ee3          	bnez	a0,2366 <ssd1306_display_test+0x434>
c:\Users\Paul Scalise\CH592F_SSD1306\obj/../User/driver_ssd1306_display_test.c:1158
    ssd1306_interface_delay_ms(3000);
    264e:	6405                	lui	s0,0x1
    2650:	bb840513          	addi	a0,s0,-1096 # bb8 <handle_reset+0x18>
    2654:	2999                	jal	2aaa <ssd1306_interface_delay_ms>
c:\Users\Paul Scalise\CH592F_SSD1306\obj/../User/driver_ssd1306_display_test.c:1161
    ssd1306_interface_debug_print("ssd1306: picture test.\n");
    2656:	00004517          	auipc	a0,0x4
    265a:	1aa50513          	addi	a0,a0,426 # 6800 <gsc_ssd1306_ascii_2412+0x1a30>
    265e:	29a1                	jal	2ab6 <ssd1306_interface_debug_print>
c:\Users\Paul Scalise\CH592F_SSD1306\obj/../User/driver_ssd1306_display_test.c:1164
    res = ssd1306_clear(&gs_handle);
    2660:	ddc18513          	addi	a0,gp,-548 # 200031dc <gs_handle>
    2664:	901fe0ef          	jal	ra,f64 <ssd1306_clear>
c:\Users\Paul Scalise\CH592F_SSD1306\obj/../User/driver_ssd1306_display_test.c:1165
    if (res != 0)
    2668:	ce051fe3          	bnez	a0,2366 <ssd1306_display_test+0x434>
c:\Users\Paul Scalise\CH592F_SSD1306\obj/../User/driver_ssd1306_display_test.c:1172
    res = ssd1306_gram_draw_picture(&gs_handle, 0, 0, 127, 63, (uint8_t *)gs_image);
    266c:	1fffe797          	auipc	a5,0x1fffe
    2670:	53078793          	addi	a5,a5,1328 # 20000b9c <_highcode_vma_end>
    2674:	03f00713          	li	a4,63
    2678:	07f00693          	li	a3,127
    267c:	4601                	li	a2,0
    267e:	4581                	li	a1,0
    2680:	ddc18513          	addi	a0,gp,-548 # 200031dc <gs_handle>
    2684:	d29fe0ef          	jal	ra,13ac <ssd1306_gram_draw_picture>
c:\Users\Paul Scalise\CH592F_SSD1306\obj/../User/driver_ssd1306_display_test.c:1173
    if (res != 0)
    2688:	c511                	beqz	a0,2694 <ssd1306_display_test+0x762>
c:\Users\Paul Scalise\CH592F_SSD1306\obj/../User/driver_ssd1306_display_test.c:1175
        ssd1306_interface_debug_print("ssd1306: gram draw picture failed.\n");
    268a:	00004517          	auipc	a0,0x4
    268e:	18e50513          	addi	a0,a0,398 # 6818 <gsc_ssd1306_ascii_2412+0x1a48>
    2692:	bcf9                	j	2170 <ssd1306_display_test+0x23e>
c:\Users\Paul Scalise\CH592F_SSD1306\obj/../User/driver_ssd1306_display_test.c:1182
    res = ssd1306_gram_update(&gs_handle);
    2694:	ddc18513          	addi	a0,gp,-548 # 200031dc <gs_handle>
    2698:	961fe0ef          	jal	ra,ff8 <ssd1306_gram_update>
c:\Users\Paul Scalise\CH592F_SSD1306\obj/../User/driver_ssd1306_display_test.c:1183
    if (res != 0)
    269c:	cc0515e3          	bnez	a0,2366 <ssd1306_display_test+0x434>
c:\Users\Paul Scalise\CH592F_SSD1306\obj/../User/driver_ssd1306_display_test.c:1192
    ssd1306_interface_delay_ms(3000);
    26a0:	bb840513          	addi	a0,s0,-1096
    26a4:	2119                	jal	2aaa <ssd1306_interface_delay_ms>
c:\Users\Paul Scalise\CH592F_SSD1306\obj/../User/driver_ssd1306_display_test.c:1195
    ssd1306_interface_debug_print("ssd1306: graphic acceleration test.\n");
    26a6:	00004517          	auipc	a0,0x4
    26aa:	19650513          	addi	a0,a0,406 # 683c <gsc_ssd1306_ascii_2412+0x1a6c>
    26ae:	2121                	jal	2ab6 <ssd1306_interface_debug_print>
c:\Users\Paul Scalise\CH592F_SSD1306\obj/../User/driver_ssd1306_display_test.c:1198
    ssd1306_interface_debug_print("ssd1306: right horizontal scroll.\n");
    26b0:	00004517          	auipc	a0,0x4
    26b4:	1b450513          	addi	a0,a0,436 # 6864 <gsc_ssd1306_ascii_2412+0x1a94>
    26b8:	2efd                	jal	2ab6 <ssd1306_interface_debug_print>
c:\Users\Paul Scalise\CH592F_SSD1306\obj/../User/driver_ssd1306_display_test.c:1201
    res = ssd1306_clear(&gs_handle);
    26ba:	ddc18513          	addi	a0,gp,-548 # 200031dc <gs_handle>
    26be:	8a7fe0ef          	jal	ra,f64 <ssd1306_clear>
c:\Users\Paul Scalise\CH592F_SSD1306\obj/../User/driver_ssd1306_display_test.c:1202
    if (res != 0)
    26c2:	ca0512e3          	bnez	a0,2366 <ssd1306_display_test+0x434>
c:\Users\Paul Scalise\CH592F_SSD1306\obj/../User/driver_ssd1306_display_test.c:1209
    res = ssd1306_gram_draw_picture(&gs_handle, 0, 0, 127, 63, (uint8_t *)gs_image);
    26c6:	1fffe797          	auipc	a5,0x1fffe
    26ca:	4d678793          	addi	a5,a5,1238 # 20000b9c <_highcode_vma_end>
    26ce:	03f00713          	li	a4,63
    26d2:	07f00693          	li	a3,127
    26d6:	4601                	li	a2,0
    26d8:	4581                	li	a1,0
    26da:	ddc18513          	addi	a0,gp,-548 # 200031dc <gs_handle>
    26de:	ccffe0ef          	jal	ra,13ac <ssd1306_gram_draw_picture>
c:\Users\Paul Scalise\CH592F_SSD1306\obj/../User/driver_ssd1306_display_test.c:1210
    if (res != 0)
    26e2:	f545                	bnez	a0,268a <ssd1306_display_test+0x758>
c:\Users\Paul Scalise\CH592F_SSD1306\obj/../User/driver_ssd1306_display_test.c:1219
    res = ssd1306_gram_update(&gs_handle);
    26e4:	ddc18513          	addi	a0,gp,-548 # 200031dc <gs_handle>
    26e8:	911fe0ef          	jal	ra,ff8 <ssd1306_gram_update>
c:\Users\Paul Scalise\CH592F_SSD1306\obj/../User/driver_ssd1306_display_test.c:1220
    if (res != 0)
    26ec:	c6051de3          	bnez	a0,2366 <ssd1306_display_test+0x434>
c:\Users\Paul Scalise\CH592F_SSD1306\obj/../User/driver_ssd1306_display_test.c:1229
    res = ssd1306_deactivate_scroll(&gs_handle);
    26f0:	ddc18513          	addi	a0,gp,-548 # 200031dc <gs_handle>
    26f4:	bbcff0ef          	jal	ra,1ab0 <ssd1306_deactivate_scroll>
c:\Users\Paul Scalise\CH592F_SSD1306\obj/../User/driver_ssd1306_display_test.c:1230
    if (res != 0)
    26f8:	b0051ee3          	bnez	a0,2214 <ssd1306_display_test+0x2e2>
c:\Users\Paul Scalise\CH592F_SSD1306\obj/../User/driver_ssd1306_display_test.c:1237
    res = ssd1306_set_right_horizontal_scroll(&gs_handle, 0, 7, SSD1306_SCROLL_FRAME_2);
    26fc:	469d                	li	a3,7
    26fe:	461d                	li	a2,7
    2700:	4581                	li	a1,0
    2702:	ddc18513          	addi	a0,gp,-548 # 200031dc <gs_handle>
    2706:	9aeff0ef          	jal	ra,18b4 <ssd1306_set_right_horizontal_scroll>
c:\Users\Paul Scalise\CH592F_SSD1306\obj/../User/driver_ssd1306_display_test.c:1238
    if (res != 0)
    270a:	c511                	beqz	a0,2716 <ssd1306_display_test+0x7e4>
c:\Users\Paul Scalise\CH592F_SSD1306\obj/../User/driver_ssd1306_display_test.c:1240
        ssd1306_interface_debug_print("ssd1306: set right horizontal scroll failed.\n");
    270c:	00004517          	auipc	a0,0x4
    2710:	17c50513          	addi	a0,a0,380 # 6888 <gsc_ssd1306_ascii_2412+0x1ab8>
    2714:	bcb1                	j	2170 <ssd1306_display_test+0x23e>
c:\Users\Paul Scalise\CH592F_SSD1306\obj/../User/driver_ssd1306_display_test.c:1247
    res = ssd1306_activate_scroll(&gs_handle);
    2716:	ddc18513          	addi	a0,gp,-548 # 200031dc <gs_handle>
    271a:	bb4ff0ef          	jal	ra,1ace <ssd1306_activate_scroll>
c:\Users\Paul Scalise\CH592F_SSD1306\obj/../User/driver_ssd1306_display_test.c:1248
    if (res != 0)
    271e:	c519                	beqz	a0,272c <ssd1306_display_test+0x7fa>
c:\Users\Paul Scalise\CH592F_SSD1306\obj/../User/driver_ssd1306_display_test.c:1250
        ssd1306_interface_debug_print("ssd1306: activate scroll failed.\n");
    2720:	00004517          	auipc	a0,0x4
    2724:	19850513          	addi	a0,a0,408 # 68b8 <gsc_ssd1306_ascii_2412+0x1ae8>
    2728:	a49ff06f          	j	2170 <ssd1306_display_test+0x23e>
c:\Users\Paul Scalise\CH592F_SSD1306\obj/../User/driver_ssd1306_display_test.c:1257
    ssd1306_interface_delay_ms(5000);
    272c:	6405                	lui	s0,0x1
    272e:	38840513          	addi	a0,s0,904 # 1388 <ssd1306_gram_fill_rect+0xaa>
    2732:	2ea5                	jal	2aaa <ssd1306_interface_delay_ms>
c:\Users\Paul Scalise\CH592F_SSD1306\obj/../User/driver_ssd1306_display_test.c:1260
    res = ssd1306_deactivate_scroll(&gs_handle);
    2734:	ddc18513          	addi	a0,gp,-548 # 200031dc <gs_handle>
    2738:	b78ff0ef          	jal	ra,1ab0 <ssd1306_deactivate_scroll>
c:\Users\Paul Scalise\CH592F_SSD1306\obj/../User/driver_ssd1306_display_test.c:1261
    if (res != 0)
    273c:	ac051ce3          	bnez	a0,2214 <ssd1306_display_test+0x2e2>
c:\Users\Paul Scalise\CH592F_SSD1306\obj/../User/driver_ssd1306_display_test.c:1270
    ssd1306_interface_debug_print("ssd1306: left horizontal scroll.\n");
    2740:	00004517          	auipc	a0,0x4
    2744:	19c50513          	addi	a0,a0,412 # 68dc <gsc_ssd1306_ascii_2412+0x1b0c>
    2748:	26bd                	jal	2ab6 <ssd1306_interface_debug_print>
c:\Users\Paul Scalise\CH592F_SSD1306\obj/../User/driver_ssd1306_display_test.c:1273
    res = ssd1306_clear(&gs_handle);
    274a:	ddc18513          	addi	a0,gp,-548 # 200031dc <gs_handle>
    274e:	817fe0ef          	jal	ra,f64 <ssd1306_clear>
c:\Users\Paul Scalise\CH592F_SSD1306\obj/../User/driver_ssd1306_display_test.c:1274
    if (res != 0)
    2752:	c0051ae3          	bnez	a0,2366 <ssd1306_display_test+0x434>
c:\Users\Paul Scalise\CH592F_SSD1306\obj/../User/driver_ssd1306_display_test.c:1281
    res = ssd1306_gram_draw_picture(&gs_handle, 0, 0, 127, 63, (uint8_t *)gs_image);
    2756:	1fffe797          	auipc	a5,0x1fffe
    275a:	44678793          	addi	a5,a5,1094 # 20000b9c <_highcode_vma_end>
    275e:	03f00713          	li	a4,63
    2762:	07f00693          	li	a3,127
    2766:	4601                	li	a2,0
    2768:	4581                	li	a1,0
    276a:	ddc18513          	addi	a0,gp,-548 # 200031dc <gs_handle>
    276e:	c3ffe0ef          	jal	ra,13ac <ssd1306_gram_draw_picture>
c:\Users\Paul Scalise\CH592F_SSD1306\obj/../User/driver_ssd1306_display_test.c:1282
    if (res != 0)
    2772:	f0051ce3          	bnez	a0,268a <ssd1306_display_test+0x758>
c:\Users\Paul Scalise\CH592F_SSD1306\obj/../User/driver_ssd1306_display_test.c:1291
    res = ssd1306_gram_update(&gs_handle);
    2776:	ddc18513          	addi	a0,gp,-548 # 200031dc <gs_handle>
    277a:	87ffe0ef          	jal	ra,ff8 <ssd1306_gram_update>
c:\Users\Paul Scalise\CH592F_SSD1306\obj/../User/driver_ssd1306_display_test.c:1292
    if (res != 0)
    277e:	be0514e3          	bnez	a0,2366 <ssd1306_display_test+0x434>
c:\Users\Paul Scalise\CH592F_SSD1306\obj/../User/driver_ssd1306_display_test.c:1299
    res = ssd1306_set_left_horizontal_scroll(&gs_handle, 0, 7, SSD1306_SCROLL_FRAME_2);
    2782:	469d                	li	a3,7
    2784:	461d                	li	a2,7
    2786:	4581                	li	a1,0
    2788:	ddc18513          	addi	a0,gp,-548 # 200031dc <gs_handle>
    278c:	99eff0ef          	jal	ra,192a <ssd1306_set_left_horizontal_scroll>
c:\Users\Paul Scalise\CH592F_SSD1306\obj/../User/driver_ssd1306_display_test.c:1300
    if (res != 0)
    2790:	c519                	beqz	a0,279e <ssd1306_display_test+0x86c>
c:\Users\Paul Scalise\CH592F_SSD1306\obj/../User/driver_ssd1306_display_test.c:1302
        ssd1306_interface_debug_print("ssd1306: set left horizontal scroll failed.\n");
    2792:	00004517          	auipc	a0,0x4
    2796:	16e50513          	addi	a0,a0,366 # 6900 <gsc_ssd1306_ascii_2412+0x1b30>
    279a:	9d7ff06f          	j	2170 <ssd1306_display_test+0x23e>
c:\Users\Paul Scalise\CH592F_SSD1306\obj/../User/driver_ssd1306_display_test.c:1309
    res = ssd1306_activate_scroll(&gs_handle);
    279e:	ddc18513          	addi	a0,gp,-548 # 200031dc <gs_handle>
    27a2:	b2cff0ef          	jal	ra,1ace <ssd1306_activate_scroll>
c:\Users\Paul Scalise\CH592F_SSD1306\obj/../User/driver_ssd1306_display_test.c:1310
    if (res != 0)
    27a6:	fd2d                	bnez	a0,2720 <ssd1306_display_test+0x7ee>
c:\Users\Paul Scalise\CH592F_SSD1306\obj/../User/driver_ssd1306_display_test.c:1319
    ssd1306_interface_delay_ms(5000);
    27a8:	38840513          	addi	a0,s0,904
    27ac:	2cfd                	jal	2aaa <ssd1306_interface_delay_ms>
c:\Users\Paul Scalise\CH592F_SSD1306\obj/../User/driver_ssd1306_display_test.c:1322
    res = ssd1306_deactivate_scroll(&gs_handle);
    27ae:	ddc18513          	addi	a0,gp,-548 # 200031dc <gs_handle>
    27b2:	afeff0ef          	jal	ra,1ab0 <ssd1306_deactivate_scroll>
c:\Users\Paul Scalise\CH592F_SSD1306\obj/../User/driver_ssd1306_display_test.c:1323
    if (res != 0)
    27b6:	a4051fe3          	bnez	a0,2214 <ssd1306_display_test+0x2e2>
c:\Users\Paul Scalise\CH592F_SSD1306\obj/../User/driver_ssd1306_display_test.c:1332
    ssd1306_interface_debug_print("ssd1306: vertical right horizontal scroll.\n");
    27ba:	00004517          	auipc	a0,0x4
    27be:	17650513          	addi	a0,a0,374 # 6930 <gsc_ssd1306_ascii_2412+0x1b60>
    27c2:	2cd5                	jal	2ab6 <ssd1306_interface_debug_print>
c:\Users\Paul Scalise\CH592F_SSD1306\obj/../User/driver_ssd1306_display_test.c:1335
    res = ssd1306_clear(&gs_handle);
    27c4:	ddc18513          	addi	a0,gp,-548 # 200031dc <gs_handle>
    27c8:	f9cfe0ef          	jal	ra,f64 <ssd1306_clear>
c:\Users\Paul Scalise\CH592F_SSD1306\obj/../User/driver_ssd1306_display_test.c:1336
    if (res != 0)
    27cc:	b8051de3          	bnez	a0,2366 <ssd1306_display_test+0x434>
c:\Users\Paul Scalise\CH592F_SSD1306\obj/../User/driver_ssd1306_display_test.c:1343
    res = ssd1306_gram_draw_picture(&gs_handle, 0, 0, 127, 63, (uint8_t *)gs_image);
    27d0:	1fffe797          	auipc	a5,0x1fffe
    27d4:	3cc78793          	addi	a5,a5,972 # 20000b9c <_highcode_vma_end>
    27d8:	03f00713          	li	a4,63
    27dc:	07f00693          	li	a3,127
    27e0:	4601                	li	a2,0
    27e2:	4581                	li	a1,0
    27e4:	ddc18513          	addi	a0,gp,-548 # 200031dc <gs_handle>
    27e8:	bc5fe0ef          	jal	ra,13ac <ssd1306_gram_draw_picture>
c:\Users\Paul Scalise\CH592F_SSD1306\obj/../User/driver_ssd1306_display_test.c:1344
    if (res != 0)
    27ec:	e8051fe3          	bnez	a0,268a <ssd1306_display_test+0x758>
c:\Users\Paul Scalise\CH592F_SSD1306\obj/../User/driver_ssd1306_display_test.c:1353
    res = ssd1306_gram_update(&gs_handle);
    27f0:	ddc18513          	addi	a0,gp,-548 # 200031dc <gs_handle>
    27f4:	805fe0ef          	jal	ra,ff8 <ssd1306_gram_update>
c:\Users\Paul Scalise\CH592F_SSD1306\obj/../User/driver_ssd1306_display_test.c:1354
    if (res != 0)
    27f8:	b60517e3          	bnez	a0,2366 <ssd1306_display_test+0x434>
c:\Users\Paul Scalise\CH592F_SSD1306\obj/../User/driver_ssd1306_display_test.c:1361
    res = ssd1306_set_vertical_right_horizontal_scroll(&gs_handle, 0, 7, 63, SSD1306_SCROLL_FRAME_2);
    27fc:	471d                	li	a4,7
    27fe:	03f00693          	li	a3,63
    2802:	461d                	li	a2,7
    2804:	4581                	li	a1,0
    2806:	ddc18513          	addi	a0,gp,-548 # 200031dc <gs_handle>
    280a:	996ff0ef          	jal	ra,19a0 <ssd1306_set_vertical_right_horizontal_scroll>
c:\Users\Paul Scalise\CH592F_SSD1306\obj/../User/driver_ssd1306_display_test.c:1362
    if (res != 0)
    280e:	c519                	beqz	a0,281c <ssd1306_display_test+0x8ea>
c:\Users\Paul Scalise\CH592F_SSD1306\obj/../User/driver_ssd1306_display_test.c:1364
        ssd1306_interface_debug_print("ssd1306: set vertical right horizontal scroll failed.\n");
    2810:	00004517          	auipc	a0,0x4
    2814:	14c50513          	addi	a0,a0,332 # 695c <gsc_ssd1306_ascii_2412+0x1b8c>
    2818:	959ff06f          	j	2170 <ssd1306_display_test+0x23e>
c:\Users\Paul Scalise\CH592F_SSD1306\obj/../User/driver_ssd1306_display_test.c:1371
    res = ssd1306_activate_scroll(&gs_handle);
    281c:	ddc18513          	addi	a0,gp,-548 # 200031dc <gs_handle>
    2820:	aaeff0ef          	jal	ra,1ace <ssd1306_activate_scroll>
c:\Users\Paul Scalise\CH592F_SSD1306\obj/../User/driver_ssd1306_display_test.c:1372
    if (res != 0)
    2824:	ee051ee3          	bnez	a0,2720 <ssd1306_display_test+0x7ee>
c:\Users\Paul Scalise\CH592F_SSD1306\obj/../User/driver_ssd1306_display_test.c:1381
    ssd1306_interface_delay_ms(5000);
    2828:	6505                	lui	a0,0x1
    282a:	38850513          	addi	a0,a0,904 # 1388 <ssd1306_gram_fill_rect+0xaa>
    282e:	2cb5                	jal	2aaa <ssd1306_interface_delay_ms>
c:\Users\Paul Scalise\CH592F_SSD1306\obj/../User/driver_ssd1306_display_test.c:1384
    res = ssd1306_deactivate_scroll(&gs_handle);
    2830:	ddc18513          	addi	a0,gp,-548 # 200031dc <gs_handle>
    2834:	a7cff0ef          	jal	ra,1ab0 <ssd1306_deactivate_scroll>
c:\Users\Paul Scalise\CH592F_SSD1306\obj/../User/driver_ssd1306_display_test.c:1385
    if (res != 0)
    2838:	9c051ee3          	bnez	a0,2214 <ssd1306_display_test+0x2e2>
c:\Users\Paul Scalise\CH592F_SSD1306\obj/../User/driver_ssd1306_display_test.c:1394
    ssd1306_interface_debug_print("ssd1306: vertical left horizontal scroll.\n");
    283c:	00004517          	auipc	a0,0x4
    2840:	15850513          	addi	a0,a0,344 # 6994 <gsc_ssd1306_ascii_2412+0x1bc4>
    2844:	2c8d                	jal	2ab6 <ssd1306_interface_debug_print>
c:\Users\Paul Scalise\CH592F_SSD1306\obj/../User/driver_ssd1306_display_test.c:1397
    res = ssd1306_clear(&gs_handle);
    2846:	ddc18513          	addi	a0,gp,-548 # 200031dc <gs_handle>
    284a:	f1afe0ef          	jal	ra,f64 <ssd1306_clear>
c:\Users\Paul Scalise\CH592F_SSD1306\obj/../User/driver_ssd1306_display_test.c:1398
    if (res != 0)
    284e:	b0051ce3          	bnez	a0,2366 <ssd1306_display_test+0x434>
c:\Users\Paul Scalise\CH592F_SSD1306\obj/../User/driver_ssd1306_display_test.c:1405
    res = ssd1306_gram_draw_picture(&gs_handle, 0, 0, 127, 63, (uint8_t *)gs_image);
    2852:	1fffe797          	auipc	a5,0x1fffe
    2856:	34a78793          	addi	a5,a5,842 # 20000b9c <_highcode_vma_end>
    285a:	03f00713          	li	a4,63
    285e:	07f00693          	li	a3,127
    2862:	4601                	li	a2,0
    2864:	4581                	li	a1,0
    2866:	ddc18513          	addi	a0,gp,-548 # 200031dc <gs_handle>
    286a:	b43fe0ef          	jal	ra,13ac <ssd1306_gram_draw_picture>
c:\Users\Paul Scalise\CH592F_SSD1306\obj/../User/driver_ssd1306_display_test.c:1406
    if (res != 0)
    286e:	e0051ee3          	bnez	a0,268a <ssd1306_display_test+0x758>
c:\Users\Paul Scalise\CH592F_SSD1306\obj/../User/driver_ssd1306_display_test.c:1415
    res = ssd1306_gram_update(&gs_handle);
    2872:	ddc18513          	addi	a0,gp,-548 # 200031dc <gs_handle>
    2876:	f82fe0ef          	jal	ra,ff8 <ssd1306_gram_update>
c:\Users\Paul Scalise\CH592F_SSD1306\obj/../User/driver_ssd1306_display_test.c:1416
    if (res != 0)
    287a:	ae0516e3          	bnez	a0,2366 <ssd1306_display_test+0x434>
c:\Users\Paul Scalise\CH592F_SSD1306\obj/../User/driver_ssd1306_display_test.c:1423
    res = ssd1306_set_vertical_left_horizontal_scroll(&gs_handle, 0, 7, 63, SSD1306_SCROLL_FRAME_2);
    287e:	471d                	li	a4,7
    2880:	03f00693          	li	a3,63
    2884:	461d                	li	a2,7
    2886:	4581                	li	a1,0
    2888:	ddc18513          	addi	a0,gp,-548 # 200031dc <gs_handle>
    288c:	99cff0ef          	jal	ra,1a28 <ssd1306_set_vertical_left_horizontal_scroll>
c:\Users\Paul Scalise\CH592F_SSD1306\obj/../User/driver_ssd1306_display_test.c:1424
    if (res != 0)
    2890:	c519                	beqz	a0,289e <ssd1306_display_test+0x96c>
c:\Users\Paul Scalise\CH592F_SSD1306\obj/../User/driver_ssd1306_display_test.c:1426
        ssd1306_interface_debug_print("ssd1306: set vertical left horizontal scroll failed.\n");
    2892:	00004517          	auipc	a0,0x4
    2896:	12e50513          	addi	a0,a0,302 # 69c0 <gsc_ssd1306_ascii_2412+0x1bf0>
    289a:	8d7ff06f          	j	2170 <ssd1306_display_test+0x23e>
c:\Users\Paul Scalise\CH592F_SSD1306\obj/../User/driver_ssd1306_display_test.c:1433
    res = ssd1306_activate_scroll(&gs_handle);
    289e:	ddc18513          	addi	a0,gp,-548 # 200031dc <gs_handle>
    28a2:	a2cff0ef          	jal	ra,1ace <ssd1306_activate_scroll>
c:\Users\Paul Scalise\CH592F_SSD1306\obj/../User/driver_ssd1306_display_test.c:1434
    if (res != 0)
    28a6:	e6051de3          	bnez	a0,2720 <ssd1306_display_test+0x7ee>
c:\Users\Paul Scalise\CH592F_SSD1306\obj/../User/driver_ssd1306_display_test.c:1443
    ssd1306_interface_delay_ms(5000);
    28aa:	6405                	lui	s0,0x1
    28ac:	38840513          	addi	a0,s0,904 # 1388 <ssd1306_gram_fill_rect+0xaa>
    28b0:	2aed                	jal	2aaa <ssd1306_interface_delay_ms>
c:\Users\Paul Scalise\CH592F_SSD1306\obj/../User/driver_ssd1306_display_test.c:1446
    res = ssd1306_deactivate_scroll(&gs_handle);
    28b2:	ddc18513          	addi	a0,gp,-548 # 200031dc <gs_handle>
    28b6:	9faff0ef          	jal	ra,1ab0 <ssd1306_deactivate_scroll>
c:\Users\Paul Scalise\CH592F_SSD1306\obj/../User/driver_ssd1306_display_test.c:1447
    if (res != 0)
    28ba:	94051de3          	bnez	a0,2214 <ssd1306_display_test+0x2e2>
c:\Users\Paul Scalise\CH592F_SSD1306\obj/../User/driver_ssd1306_display_test.c:1456
    ssd1306_interface_debug_print("ssd1306: advance graphic test.\n");
    28be:	00004517          	auipc	a0,0x4
    28c2:	13a50513          	addi	a0,a0,314 # 69f8 <gsc_ssd1306_ascii_2412+0x1c28>
    28c6:	2ac5                	jal	2ab6 <ssd1306_interface_debug_print>
c:\Users\Paul Scalise\CH592F_SSD1306\obj/../User/driver_ssd1306_display_test.c:1459
    ssd1306_interface_debug_print("ssd1306: zoom in.\n");
    28c8:	00004517          	auipc	a0,0x4
    28cc:	15050513          	addi	a0,a0,336 # 6a18 <gsc_ssd1306_ascii_2412+0x1c48>
    28d0:	22dd                	jal	2ab6 <ssd1306_interface_debug_print>
c:\Users\Paul Scalise\CH592F_SSD1306\obj/../User/driver_ssd1306_display_test.c:1462
    res = ssd1306_clear(&gs_handle);
    28d2:	ddc18513          	addi	a0,gp,-548 # 200031dc <gs_handle>
    28d6:	e8efe0ef          	jal	ra,f64 <ssd1306_clear>
c:\Users\Paul Scalise\CH592F_SSD1306\obj/../User/driver_ssd1306_display_test.c:1463
    if (res != 0)
    28da:	a80516e3          	bnez	a0,2366 <ssd1306_display_test+0x434>
c:\Users\Paul Scalise\CH592F_SSD1306\obj/../User/driver_ssd1306_display_test.c:1472
    res = ssd1306_set_zoom_in(&gs_handle, SSD1306_ZOOM_IN_ENABLE);
    28de:	4585                	li	a1,1
    28e0:	ddc18513          	addi	a0,gp,-548 # 200031dc <gs_handle>
    28e4:	c8eff0ef          	jal	ra,1d72 <ssd1306_set_zoom_in>
c:\Users\Paul Scalise\CH592F_SSD1306\obj/../User/driver_ssd1306_display_test.c:1473
    if (res != 0)
    28e8:	940510e3          	bnez	a0,2228 <ssd1306_display_test+0x2f6>
c:\Users\Paul Scalise\CH592F_SSD1306\obj/../User/driver_ssd1306_display_test.c:1482
    res =  ssd1306_gram_write_string(&gs_handle, 0, 0, (char *)test_str1, (uint16_t)strlen(test_str1), 1, SSD1306_FONT_16);
    28ec:	1048                	addi	a0,sp,36
    28ee:	123000ef          	jal	ra,3210 <strlen>
    28f2:	01051713          	slli	a4,a0,0x10
    28f6:	4841                	li	a6,16
    28f8:	4785                	li	a5,1
    28fa:	8341                	srli	a4,a4,0x10
    28fc:	1054                	addi	a3,sp,36
    28fe:	4601                	li	a2,0
    2900:	4581                	li	a1,0
    2902:	ddc18513          	addi	a0,gp,-548 # 200031dc <gs_handle>
    2906:	ff4fe0ef          	jal	ra,10fa <ssd1306_gram_write_string>
c:\Users\Paul Scalise\CH592F_SSD1306\obj/../User/driver_ssd1306_display_test.c:1483
    if (res != 0)
    290a:	a8051fe3          	bnez	a0,23a8 <ssd1306_display_test+0x476>
c:\Users\Paul Scalise\CH592F_SSD1306\obj/../User/driver_ssd1306_display_test.c:1492
    res =  ssd1306_gram_write_string(&gs_handle, 0, 15, (char *)test_str2, (uint16_t)strlen(test_str2), 1, SSD1306_FONT_16);
    290e:	0808                	addi	a0,sp,16
    2910:	101000ef          	jal	ra,3210 <strlen>
    2914:	01051713          	slli	a4,a0,0x10
    2918:	4841                	li	a6,16
    291a:	4785                	li	a5,1
    291c:	8341                	srli	a4,a4,0x10
    291e:	0814                	addi	a3,sp,16
    2920:	463d                	li	a2,15
    2922:	4581                	li	a1,0
    2924:	ddc18513          	addi	a0,gp,-548 # 200031dc <gs_handle>
    2928:	fd2fe0ef          	jal	ra,10fa <ssd1306_gram_write_string>
c:\Users\Paul Scalise\CH592F_SSD1306\obj/../User/driver_ssd1306_display_test.c:1493
    if (res != 0)
    292c:	a6051ee3          	bnez	a0,23a8 <ssd1306_display_test+0x476>
c:\Users\Paul Scalise\CH592F_SSD1306\obj/../User/driver_ssd1306_display_test.c:1502
    res = ssd1306_gram_update(&gs_handle);
    2930:	ddc18513          	addi	a0,gp,-548 # 200031dc <gs_handle>
    2934:	ec4fe0ef          	jal	ra,ff8 <ssd1306_gram_update>
c:\Users\Paul Scalise\CH592F_SSD1306\obj/../User/driver_ssd1306_display_test.c:1503
    if (res != 0)
    2938:	a20517e3          	bnez	a0,2366 <ssd1306_display_test+0x434>
c:\Users\Paul Scalise\CH592F_SSD1306\obj/../User/driver_ssd1306_display_test.c:1512
    ssd1306_interface_delay_ms(3000);
    293c:	bb840513          	addi	a0,s0,-1096
    2940:	22ad                	jal	2aaa <ssd1306_interface_delay_ms>
c:\Users\Paul Scalise\CH592F_SSD1306\obj/../User/driver_ssd1306_display_test.c:1515
    ssd1306_interface_debug_print("ssd1306: fade mode.\n");
    2942:	00004517          	auipc	a0,0x4
    2946:	0ea50513          	addi	a0,a0,234 # 6a2c <gsc_ssd1306_ascii_2412+0x1c5c>
    294a:	22b5                	jal	2ab6 <ssd1306_interface_debug_print>
c:\Users\Paul Scalise\CH592F_SSD1306\obj/../User/driver_ssd1306_display_test.c:1518
    res = ssd1306_set_zoom_in(&gs_handle, SSD1306_ZOOM_IN_DISABLE);
    294c:	4581                	li	a1,0
    294e:	ddc18513          	addi	a0,gp,-548 # 200031dc <gs_handle>
    2952:	c20ff0ef          	jal	ra,1d72 <ssd1306_set_zoom_in>
c:\Users\Paul Scalise\CH592F_SSD1306\obj/../User/driver_ssd1306_display_test.c:1519
    if (res != 0)
    2956:	8c0519e3          	bnez	a0,2228 <ssd1306_display_test+0x2f6>
c:\Users\Paul Scalise\CH592F_SSD1306\obj/../User/driver_ssd1306_display_test.c:1528
    res = ssd1306_clear(&gs_handle);
    295a:	ddc18513          	addi	a0,gp,-548 # 200031dc <gs_handle>
    295e:	e06fe0ef          	jal	ra,f64 <ssd1306_clear>
c:\Users\Paul Scalise\CH592F_SSD1306\obj/../User/driver_ssd1306_display_test.c:1529
    if (res != 0)
    2962:	a00512e3          	bnez	a0,2366 <ssd1306_display_test+0x434>
c:\Users\Paul Scalise\CH592F_SSD1306\obj/../User/driver_ssd1306_display_test.c:1538
    res = ssd1306_set_fade_blinking_mode(&gs_handle, SSD1306_FADE_BLINKING_MODE_BLINKING, 0x0);
    2966:	4601                	li	a2,0
    2968:	458d                	li	a1,3
    296a:	ddc18513          	addi	a0,gp,-548 # 200031dc <gs_handle>
    296e:	ef5fe0ef          	jal	ra,1862 <ssd1306_set_fade_blinking_mode>
c:\Users\Paul Scalise\CH592F_SSD1306\obj/../User/driver_ssd1306_display_test.c:1539
    if (res != 0)
    2972:	880517e3          	bnez	a0,2200 <ssd1306_display_test+0x2ce>
c:\Users\Paul Scalise\CH592F_SSD1306\obj/../User/driver_ssd1306_display_test.c:1548
    res =  ssd1306_gram_write_string(&gs_handle, 0, 0, (char *)test_str1, (uint16_t)strlen(test_str1), 1, SSD1306_FONT_16);
    2976:	1048                	addi	a0,sp,36
    2978:	099000ef          	jal	ra,3210 <strlen>
    297c:	01051713          	slli	a4,a0,0x10
    2980:	4841                	li	a6,16
    2982:	4785                	li	a5,1
    2984:	8341                	srli	a4,a4,0x10
    2986:	1054                	addi	a3,sp,36
    2988:	4601                	li	a2,0
    298a:	4581                	li	a1,0
    298c:	ddc18513          	addi	a0,gp,-548 # 200031dc <gs_handle>
    2990:	f6afe0ef          	jal	ra,10fa <ssd1306_gram_write_string>
c:\Users\Paul Scalise\CH592F_SSD1306\obj/../User/driver_ssd1306_display_test.c:1549
    if (res != 0)
    2994:	a0051ae3          	bnez	a0,23a8 <ssd1306_display_test+0x476>
c:\Users\Paul Scalise\CH592F_SSD1306\obj/../User/driver_ssd1306_display_test.c:1558
    res =  ssd1306_gram_write_string(&gs_handle, 0, 15, (char *)test_str2, (uint16_t)strlen(test_str2), 1, SSD1306_FONT_16);
    2998:	0808                	addi	a0,sp,16
    299a:	077000ef          	jal	ra,3210 <strlen>
    299e:	01051713          	slli	a4,a0,0x10
    29a2:	4841                	li	a6,16
    29a4:	4785                	li	a5,1
    29a6:	8341                	srli	a4,a4,0x10
    29a8:	0814                	addi	a3,sp,16
    29aa:	463d                	li	a2,15
    29ac:	4581                	li	a1,0
    29ae:	ddc18513          	addi	a0,gp,-548 # 200031dc <gs_handle>
    29b2:	f48fe0ef          	jal	ra,10fa <ssd1306_gram_write_string>
c:\Users\Paul Scalise\CH592F_SSD1306\obj/../User/driver_ssd1306_display_test.c:1559
    if (res != 0)
    29b6:	9e0519e3          	bnez	a0,23a8 <ssd1306_display_test+0x476>
c:\Users\Paul Scalise\CH592F_SSD1306\obj/../User/driver_ssd1306_display_test.c:1568
    res = ssd1306_gram_update(&gs_handle);
    29ba:	ddc18513          	addi	a0,gp,-548 # 200031dc <gs_handle>
    29be:	e3afe0ef          	jal	ra,ff8 <ssd1306_gram_update>
    29c2:	842a                	mv	s0,a0
c:\Users\Paul Scalise\CH592F_SSD1306\obj/../User/driver_ssd1306_display_test.c:1569
    if (res != 0)
    29c4:	9a0511e3          	bnez	a0,2366 <ssd1306_display_test+0x434>
c:\Users\Paul Scalise\CH592F_SSD1306\obj/../User/driver_ssd1306_display_test.c:1578
    ssd1306_interface_delay_ms(10000);
    29c8:	6509                	lui	a0,0x2
    29ca:	71050513          	addi	a0,a0,1808 # 2710 <ssd1306_display_test+0x7de>
    29ce:	28f1                	jal	2aaa <ssd1306_interface_delay_ms>
c:\Users\Paul Scalise\CH592F_SSD1306\obj/../User/driver_ssd1306_display_test.c:1581
    ssd1306_interface_debug_print("ssd1306: finish display test.\n");
    29d0:	00004517          	auipc	a0,0x4
    29d4:	07450513          	addi	a0,a0,116 # 6a44 <gsc_ssd1306_ascii_2412+0x1c74>
    29d8:	28f9                	jal	2ab6 <ssd1306_interface_debug_print>
c:\Users\Paul Scalise\CH592F_SSD1306\obj/../User/driver_ssd1306_display_test.c:1582
    (void)ssd1306_deinit(&gs_handle);
    29da:	ddc18513          	addi	a0,gp,-548 # 200031dc <gs_handle>
    29de:	c1bfe0ef          	jal	ra,15f8 <ssd1306_deinit>
c:\Users\Paul Scalise\CH592F_SSD1306\obj/../User/driver_ssd1306_display_test.c:1584
    return 0;
    29e2:	e70ff06f          	j	2052 <ssd1306_display_test+0x120>

000029e6 <ssd1306_interface_iic_init>:
ssd1306_interface_iic_init():
c:\Users\Paul Scalise\CH592F_SSD1306\obj/../User/driver_ssd1306_interface.c:50
 *         - 0 success
 *         - 1 iic init failed
 * @note   none
 */
uint8_t ssd1306_interface_iic_init(void)
{
    29e6:	1141                	addi	sp,sp,-16
c:\Users\Paul Scalise\CH592F_SSD1306\obj/../User/driver_ssd1306_interface.c:51
    GPIOB_ModeCfg(GPIO_Pin_14 | GPIO_Pin_15, GPIO_ModeIN_PU);
    29e8:	4585                	li	a1,1
    29ea:	6531                	lui	a0,0xc
c:\Users\Paul Scalise\CH592F_SSD1306\obj/../User/driver_ssd1306_interface.c:50
{
    29ec:	c606                	sw	ra,12(sp)
c:\Users\Paul Scalise\CH592F_SSD1306\obj/../User/driver_ssd1306_interface.c:51
    GPIOB_ModeCfg(GPIO_Pin_14 | GPIO_Pin_15, GPIO_ModeIN_PU);
    29ee:	226d                	jal	2b98 <GPIOB_ModeCfg>
c:\Users\Paul Scalise\CH592F_SSD1306\obj/../User/driver_ssd1306_interface.c:52
    i2c_app_init(MASTER_ADDR);
    29f0:	04200513          	li	a0,66
    29f4:	b4efe0ef          	jal	ra,d42 <i2c_app_init>
c:\Users\Paul Scalise\CH592F_SSD1306\obj/../User/driver_ssd1306_interface.c:54
    return 0;
}
    29f8:	40b2                	lw	ra,12(sp)
    29fa:	4501                	li	a0,0
    29fc:	0141                	addi	sp,sp,16
    29fe:	8082                	ret

00002a00 <ssd1306_interface_iic_deinit>:
ssd1306_interface_iic_deinit():
c:\Users\Paul Scalise\CH592F_SSD1306\obj/../User/driver_ssd1306_interface.c:66
 * @note   none
 */
uint8_t ssd1306_interface_iic_deinit(void)
{
    return 0;
}
    2a00:	4501                	li	a0,0
    2a02:	8082                	ret

00002a04 <ssd1306_interface_iic_write>:
ssd1306_interface_iic_write():
c:\Users\Paul Scalise\CH592F_SSD1306\obj/../User/driver_ssd1306_interface.c:80
 *            - 0 success
 *            - 1 write failed
 * @note      none
 */
uint8_t ssd1306_interface_iic_write(uint8_t addr, uint8_t reg, uint8_t *buf, uint16_t len)
{
    2a04:	7135                	addi	sp,sp,-160
    2a06:	cd22                	sw	s0,152(sp)
    2a08:	c74e                	sw	s3,140(sp)
    2a0a:	c552                	sw	s4,136(sp)
    2a0c:	cf06                	sw	ra,156(sp)
    2a0e:	cb26                	sw	s1,148(sp)
    2a10:	c94a                	sw	s2,144(sp)
    2a12:	c356                	sw	s5,132(sp)
    2a14:	c15a                	sw	s6,128(sp)
    2a16:	89aa                	mv	s3,a0
    2a18:	8a2e                	mv	s4,a1
    2a1a:	8436                	mv	s0,a3
c:\Users\Paul Scalise\CH592F_SSD1306\obj/../User/driver_ssd1306_interface.c:92
    }
    */

    uint8_t frame[I2C_BUFFER_LENGTH];

    if (buf == NULL && len) {
    2a1c:	ee09                	bnez	a2,2a36 <ssd1306_interface_iic_write+0x32>
c:\Users\Paul Scalise\CH592F_SSD1306\obj/../User/driver_ssd1306_interface.c:92 (discriminator 1)
    2a1e:	c6a5                	beqz	a3,2a86 <ssd1306_interface_iic_write+0x82>
c:\Users\Paul Scalise\CH592F_SSD1306\obj/../User/driver_ssd1306_interface.c:93
        return 1;  /* invalid args */
    2a20:	4505                	li	a0,1
c:\Users\Paul Scalise\CH592F_SSD1306\obj/../User/driver_ssd1306_interface.c:123
        off       += chunk;
        remaining -= chunk;
    }

    return 0;
}
    2a22:	40fa                	lw	ra,156(sp)
    2a24:	446a                	lw	s0,152(sp)
    2a26:	44da                	lw	s1,148(sp)
    2a28:	494a                	lw	s2,144(sp)
    2a2a:	49ba                	lw	s3,140(sp)
    2a2c:	4a2a                	lw	s4,136(sp)
    2a2e:	4a9a                	lw	s5,132(sp)
    2a30:	4b0a                	lw	s6,128(sp)
    2a32:	610d                	addi	sp,sp,160
    2a34:	8082                	ret
c:\Users\Paul Scalise\CH592F_SSD1306\obj/../User/driver_ssd1306_interface.c:97
    uint16_t off = 0;
    2a36:	4901                	li	s2,0
c:\Users\Paul Scalise\CH592F_SSD1306\obj/../User/driver_ssd1306_interface.c:100
    if (remaining == 0) {
    2a38:	c6b9                	beqz	a3,2a86 <ssd1306_interface_iic_write+0x82>
    2a3a:	8ab2                	mv	s5,a2
    2a3c:	08000b13          	li	s6,128
c:\Users\Paul Scalise\CH592F_SSD1306\obj/../User/driver_ssd1306_interface.c:106
        uint8_t chunk = (remaining > I2C_BUFFER_LENGTH) ? I2C_BUFFER_LENGTH
    2a40:	84a2                	mv	s1,s0
    2a42:	008b7463          	bgeu	s6,s0,2a4a <ssd1306_interface_iic_write+0x46>
    2a46:	08000493          	li	s1,128
    2a4a:	04c2                	slli	s1,s1,0x10
    2a4c:	80c1                	srli	s1,s1,0x10
c:\Users\Paul Scalise\CH592F_SSD1306\obj/../User/driver_ssd1306_interface.c:110
        memcpy(&frame[1], &buf[off], chunk);
    2a4e:	8626                	mv	a2,s1
    2a50:	012a85b3          	add	a1,s5,s2
    2a54:	00110513          	addi	a0,sp,1
c:\Users\Paul Scalise\CH592F_SSD1306\obj/../User/driver_ssd1306_interface.c:109
        frame[0] = reg;                              /* control byte: 0x00 cmd, 0x40 data */
    2a58:	01410023          	sb	s4,0(sp)
c:\Users\Paul Scalise\CH592F_SSD1306\obj/../User/driver_ssd1306_interface.c:110
        memcpy(&frame[1], &buf[off], chunk);
    2a5c:	2d0d                	jal	308e <memcpy>
c:\Users\Paul Scalise\CH592F_SSD1306\obj/../User/driver_ssd1306_interface.c:113
        int rc = i2c_write_to(addr, frame, (uint8_t)(chunk + 1), /*wait=*/1, /*send_stop=*/1);
    2a5e:	00148613          	addi	a2,s1,1
    2a62:	4705                	li	a4,1
    2a64:	4685                	li	a3,1
    2a66:	0ff67613          	andi	a2,a2,255
    2a6a:	858a                	mv	a1,sp
    2a6c:	854e                	mv	a0,s3
    2a6e:	b38fe0ef          	jal	ra,da6 <i2c_write_to>
c:\Users\Paul Scalise\CH592F_SSD1306\obj/../User/driver_ssd1306_interface.c:114
        if (rc != 0) {
    2a72:	f55d                	bnez	a0,2a20 <ssd1306_interface_iic_write+0x1c>
c:\Users\Paul Scalise\CH592F_SSD1306\obj/../User/driver_ssd1306_interface.c:119
        remaining -= chunk;
    2a74:	8c05                	sub	s0,s0,s1
c:\Users\Paul Scalise\CH592F_SSD1306\obj/../User/driver_ssd1306_interface.c:118
        off       += chunk;
    2a76:	9926                	add	s2,s2,s1
c:\Users\Paul Scalise\CH592F_SSD1306\obj/../User/driver_ssd1306_interface.c:119
        remaining -= chunk;
    2a78:	0442                	slli	s0,s0,0x10
c:\Users\Paul Scalise\CH592F_SSD1306\obj/../User/driver_ssd1306_interface.c:118
        off       += chunk;
    2a7a:	0942                	slli	s2,s2,0x10
c:\Users\Paul Scalise\CH592F_SSD1306\obj/../User/driver_ssd1306_interface.c:119
        remaining -= chunk;
    2a7c:	8041                	srli	s0,s0,0x10
c:\Users\Paul Scalise\CH592F_SSD1306\obj/../User/driver_ssd1306_interface.c:118
        off       += chunk;
    2a7e:	01095913          	srli	s2,s2,0x10
c:\Users\Paul Scalise\CH592F_SSD1306\obj/../User/driver_ssd1306_interface.c:105
    while (remaining) {
    2a82:	fc5d                	bnez	s0,2a40 <ssd1306_interface_iic_write+0x3c>
    2a84:	bf79                	j	2a22 <ssd1306_interface_iic_write+0x1e>
c:\Users\Paul Scalise\CH592F_SSD1306\obj/../User/driver_ssd1306_interface.c:102
        return (i2c_write_to(addr, frame, 1, /*wait=*/1, /*send_stop=*/1) == 0) ? 0 : 1;
    2a86:	4705                	li	a4,1
    2a88:	4685                	li	a3,1
    2a8a:	4605                	li	a2,1
    2a8c:	858a                	mv	a1,sp
    2a8e:	854e                	mv	a0,s3
c:\Users\Paul Scalise\CH592F_SSD1306\obj/../User/driver_ssd1306_interface.c:101
        frame[0] = reg;
    2a90:	01410023          	sb	s4,0(sp)
c:\Users\Paul Scalise\CH592F_SSD1306\obj/../User/driver_ssd1306_interface.c:102
        return (i2c_write_to(addr, frame, 1, /*wait=*/1, /*send_stop=*/1) == 0) ? 0 : 1;
    2a94:	b12fe0ef          	jal	ra,da6 <i2c_write_to>
    2a98:	00a03533          	snez	a0,a0
    2a9c:	b759                	j	2a22 <ssd1306_interface_iic_write+0x1e>

00002a9e <ssd1306_interface_spi_init>:
ssd1306_interface_spi_init():
    2a9e:	4501                	li	a0,0
    2aa0:	8082                	ret

00002aa2 <ssd1306_interface_spi_deinit>:
ssd1306_interface_spi_deinit():
    2aa2:	4501                	li	a0,0
    2aa4:	8082                	ret

00002aa6 <ssd1306_interface_spi_write_cmd>:
ssd1306_interface_spi_write_cmd():
c:\Users\Paul Scalise\CH592F_SSD1306\obj/../User/driver_ssd1306_interface.c:161
 * @note      none
 */
uint8_t ssd1306_interface_spi_write_cmd(uint8_t *buf, uint16_t len)
{
    return 0;
}
    2aa6:	4501                	li	a0,0
    2aa8:	8082                	ret

00002aaa <ssd1306_interface_delay_ms>:
ssd1306_interface_delay_ms():
c:\Users\Paul Scalise\CH592F_SSD1306\obj/../User/driver_ssd1306_interface.c:170
 * @param[in] ms time
 * @note      none
 */
void ssd1306_interface_delay_ms(uint32_t ms)
{
    DelayMs(ms);
    2aaa:	0542                	slli	a0,a0,0x10
    2aac:	8141                	srli	a0,a0,0x10
    2aae:	1fffe317          	auipc	t1,0x1fffe
    2ab2:	c9e30067          	jr	-866(t1) # 2000074c <mDelaymS>

00002ab6 <ssd1306_interface_debug_print>:
ssd1306_interface_debug_print():
c:\Users\Paul Scalise\CH592F_SSD1306\obj/../User/driver_ssd1306_interface.c:179
 * @brief     interface print format data
 * @param[in] fmt format data
 * @note      none
 */
void ssd1306_interface_debug_print(const char *const fmt, ...)
{
    2ab6:	7179                	addi	sp,sp,-48
    2ab8:	ca2e                	sw	a1,20(sp)
c:\Users\Paul Scalise\CH592F_SSD1306\obj/../User/driver_ssd1306_interface.c:180
    PRINT("%s", fmt);
    2aba:	85aa                	mv	a1,a0
    2abc:	00004517          	auipc	a0,0x4
    2ac0:	fc850513          	addi	a0,a0,-56 # 6a84 <gsc_ssd1306_ascii_2412+0x1cb4>
c:\Users\Paul Scalise\CH592F_SSD1306\obj/../User/driver_ssd1306_interface.c:179
{
    2ac4:	c606                	sw	ra,12(sp)
    2ac6:	cc32                	sw	a2,24(sp)
    2ac8:	ce36                	sw	a3,28(sp)
    2aca:	d03a                	sw	a4,32(sp)
    2acc:	d23e                	sw	a5,36(sp)
    2ace:	d442                	sw	a6,40(sp)
    2ad0:	d646                	sw	a7,44(sp)
c:\Users\Paul Scalise\CH592F_SSD1306\obj/../User/driver_ssd1306_interface.c:180
    PRINT("%s", fmt);
    2ad2:	2d8d                	jal	3144 <iprintf>
c:\Users\Paul Scalise\CH592F_SSD1306\obj/../User/driver_ssd1306_interface.c:181
}
    2ad4:	40b2                	lw	ra,12(sp)
    2ad6:	6145                	addi	sp,sp,48
    2ad8:	8082                	ret

00002ada <ssd1306_interface_spi_cmd_data_gpio_init>:
ssd1306_interface_spi_cmd_data_gpio_init():
    2ada:	4501                	li	a0,0
    2adc:	8082                	ret

00002ade <ssd1306_interface_spi_cmd_data_gpio_deinit>:
ssd1306_interface_spi_cmd_data_gpio_deinit():
    2ade:	4501                	li	a0,0
    2ae0:	8082                	ret

00002ae2 <ssd1306_interface_spi_cmd_data_gpio_write>:
ssd1306_interface_spi_cmd_data_gpio_write():
c:\Users\Paul Scalise\CH592F_SSD1306\obj/../User/driver_ssd1306_interface.c:218
 * @note      none
 */
uint8_t ssd1306_interface_spi_cmd_data_gpio_write(uint8_t value)
{
    return 0;
}
    2ae2:	4501                	li	a0,0
    2ae4:	8082                	ret

00002ae6 <ssd1306_interface_reset_gpio_init>:
ssd1306_interface_reset_gpio_init():
    2ae6:	4501                	li	a0,0
    2ae8:	8082                	ret

00002aea <ssd1306_interface_reset_gpio_deinit>:
ssd1306_interface_reset_gpio_deinit():
    2aea:	4501                	li	a0,0
    2aec:	8082                	ret

00002aee <ssd1306_interface_reset_gpio_write>:
ssd1306_interface_reset_gpio_write():
    2aee:	4501                	li	a0,0
    2af0:	8082                	ret

00002af2 <GPIOA_ModeCfg>:
GPIOA_ModeCfg():
c:\Users\Paul Scalise\CH592F_SSD1306\obj/../StdPeriphDriver/CH59x_gpio.c:27
 *
 * @return  none
 */
void GPIOA_ModeCfg(uint32_t pin, GPIOModeTypeDef mode)
{
    switch(mode)
    2af2:	4791                	li	a5,4
    2af4:	02b7ee63          	bltu	a5,a1,2b30 <GPIOA_ModeCfg+0x3e>
    2af8:	00004717          	auipc	a4,0x4
    2afc:	f9070713          	addi	a4,a4,-112 # 6a88 <gsc_ssd1306_ascii_2412+0x1cb8>
    2b00:	058a                	slli	a1,a1,0x2
    2b02:	95ba                	add	a1,a1,a4
    2b04:	419c                	lw	a5,0(a1)
    2b06:	97ba                	add	a5,a5,a4
    2b08:	8782                	jr	a5
c:\Users\Paul Scalise\CH592F_SSD1306\obj/../StdPeriphDriver/CH59x_gpio.c:30
    {
        case GPIO_ModeIN_Floating:
            R32_PA_PD_DRV &= ~pin;
    2b0a:	400017b7          	lui	a5,0x40001
    2b0e:	0b47a703          	lw	a4,180(a5) # 400010b4 <_eusrstack+0x1fffa8b4>
    2b12:	fff54513          	not	a0,a0
    2b16:	8f69                	and	a4,a4,a0
    2b18:	0ae7aa23          	sw	a4,180(a5)
c:\Users\Paul Scalise\CH592F_SSD1306\obj/../StdPeriphDriver/CH59x_gpio.c:31
            R32_PA_PU &= ~pin;
    2b1c:	0b07a703          	lw	a4,176(a5)
c:\Users\Paul Scalise\CH592F_SSD1306\obj/../StdPeriphDriver/CH59x_gpio.c:43
            R32_PA_DIR &= ~pin;
            break;

        case GPIO_ModeIN_PD:
            R32_PA_PD_DRV |= pin;
            R32_PA_PU &= ~pin;
    2b20:	8f69                	and	a4,a4,a0
    2b22:	0ae7a823          	sw	a4,176(a5)
c:\Users\Paul Scalise\CH592F_SSD1306\obj/../StdPeriphDriver/CH59x_gpio.c:44
            R32_PA_DIR &= ~pin;
    2b26:	0a07a703          	lw	a4,160(a5)
    2b2a:	8d79                	and	a0,a0,a4
c:\Users\Paul Scalise\CH592F_SSD1306\obj/../StdPeriphDriver/CH59x_gpio.c:54
            R32_PA_DIR |= pin;
            break;

        case GPIO_ModeOut_PP_20mA:
            R32_PA_PD_DRV |= pin;
            R32_PA_DIR |= pin;
    2b2c:	0aa7a023          	sw	a0,160(a5)
c:\Users\Paul Scalise\CH592F_SSD1306\obj/../StdPeriphDriver/CH59x_gpio.c:60
            break;

        default:
            break;
    }
}
    2b30:	8082                	ret
c:\Users\Paul Scalise\CH592F_SSD1306\obj/../StdPeriphDriver/CH59x_gpio.c:36
            R32_PA_PD_DRV &= ~pin;
    2b32:	400017b7          	lui	a5,0x40001
    2b36:	0b47a683          	lw	a3,180(a5) # 400010b4 <_eusrstack+0x1fffa8b4>
    2b3a:	fff54713          	not	a4,a0
    2b3e:	8ef9                	and	a3,a3,a4
    2b40:	0ad7aa23          	sw	a3,180(a5)
c:\Users\Paul Scalise\CH592F_SSD1306\obj/../StdPeriphDriver/CH59x_gpio.c:37
            R32_PA_PU |= pin;
    2b44:	0b07a683          	lw	a3,176(a5)
    2b48:	8d55                	or	a0,a0,a3
    2b4a:	0aa7a823          	sw	a0,176(a5)
c:\Users\Paul Scalise\CH592F_SSD1306\obj/../StdPeriphDriver/CH59x_gpio.c:38
            R32_PA_DIR &= ~pin;
    2b4e:	0a07a683          	lw	a3,160(a5)
    2b52:	8f75                	and	a4,a4,a3
    2b54:	0ae7a023          	sw	a4,160(a5)
c:\Users\Paul Scalise\CH592F_SSD1306\obj/../StdPeriphDriver/CH59x_gpio.c:39
            break;
    2b58:	8082                	ret
c:\Users\Paul Scalise\CH592F_SSD1306\obj/../StdPeriphDriver/CH59x_gpio.c:42
            R32_PA_PD_DRV |= pin;
    2b5a:	400017b7          	lui	a5,0x40001
    2b5e:	0b47a703          	lw	a4,180(a5) # 400010b4 <_eusrstack+0x1fffa8b4>
    2b62:	8f49                	or	a4,a4,a0
    2b64:	0ae7aa23          	sw	a4,180(a5)
c:\Users\Paul Scalise\CH592F_SSD1306\obj/../StdPeriphDriver/CH59x_gpio.c:43
            R32_PA_PU &= ~pin;
    2b68:	0b07a703          	lw	a4,176(a5)
    2b6c:	fff54513          	not	a0,a0
    2b70:	bf45                	j	2b20 <GPIOA_ModeCfg+0x2e>
c:\Users\Paul Scalise\CH592F_SSD1306\obj/../StdPeriphDriver/CH59x_gpio.c:48
            R32_PA_PD_DRV &= ~pin;
    2b72:	400017b7          	lui	a5,0x40001
    2b76:	0b47a683          	lw	a3,180(a5) # 400010b4 <_eusrstack+0x1fffa8b4>
    2b7a:	fff54713          	not	a4,a0
    2b7e:	8f75                	and	a4,a4,a3
c:\Users\Paul Scalise\CH592F_SSD1306\obj/../StdPeriphDriver/CH59x_gpio.c:53
            R32_PA_PD_DRV |= pin;
    2b80:	0ae7aa23          	sw	a4,180(a5)
c:\Users\Paul Scalise\CH592F_SSD1306\obj/../StdPeriphDriver/CH59x_gpio.c:54
            R32_PA_DIR |= pin;
    2b84:	0a07a703          	lw	a4,160(a5)
    2b88:	8d59                	or	a0,a0,a4
    2b8a:	b74d                	j	2b2c <GPIOA_ModeCfg+0x3a>
c:\Users\Paul Scalise\CH592F_SSD1306\obj/../StdPeriphDriver/CH59x_gpio.c:53
            R32_PA_PD_DRV |= pin;
    2b8c:	400017b7          	lui	a5,0x40001
    2b90:	0b47a703          	lw	a4,180(a5) # 400010b4 <_eusrstack+0x1fffa8b4>
    2b94:	8f49                	or	a4,a4,a0
    2b96:	b7ed                	j	2b80 <GPIOA_ModeCfg+0x8e>

00002b98 <GPIOB_ModeCfg>:
GPIOB_ModeCfg():
c:\Users\Paul Scalise\CH592F_SSD1306\obj/../StdPeriphDriver/CH59x_gpio.c:74
 *
 * @return  none
 */
void GPIOB_ModeCfg(uint32_t pin, GPIOModeTypeDef mode)
{
    switch(mode)
    2b98:	4791                	li	a5,4
    2b9a:	02b7ee63          	bltu	a5,a1,2bd6 <GPIOB_ModeCfg+0x3e>
    2b9e:	00004717          	auipc	a4,0x4
    2ba2:	efe70713          	addi	a4,a4,-258 # 6a9c <gsc_ssd1306_ascii_2412+0x1ccc>
    2ba6:	058a                	slli	a1,a1,0x2
    2ba8:	95ba                	add	a1,a1,a4
    2baa:	419c                	lw	a5,0(a1)
    2bac:	97ba                	add	a5,a5,a4
    2bae:	8782                	jr	a5
c:\Users\Paul Scalise\CH592F_SSD1306\obj/../StdPeriphDriver/CH59x_gpio.c:77
    {
        case GPIO_ModeIN_Floating:
            R32_PB_PD_DRV &= ~pin;
    2bb0:	400017b7          	lui	a5,0x40001
    2bb4:	0d47a703          	lw	a4,212(a5) # 400010d4 <_eusrstack+0x1fffa8d4>
    2bb8:	fff54513          	not	a0,a0
    2bbc:	8f69                	and	a4,a4,a0
    2bbe:	0ce7aa23          	sw	a4,212(a5)
c:\Users\Paul Scalise\CH592F_SSD1306\obj/../StdPeriphDriver/CH59x_gpio.c:78
            R32_PB_PU &= ~pin;
    2bc2:	0d07a703          	lw	a4,208(a5)
c:\Users\Paul Scalise\CH592F_SSD1306\obj/../StdPeriphDriver/CH59x_gpio.c:90
            R32_PB_DIR &= ~pin;
            break;

        case GPIO_ModeIN_PD:
            R32_PB_PD_DRV |= pin;
            R32_PB_PU &= ~pin;
    2bc6:	8f69                	and	a4,a4,a0
    2bc8:	0ce7a823          	sw	a4,208(a5)
c:\Users\Paul Scalise\CH592F_SSD1306\obj/../StdPeriphDriver/CH59x_gpio.c:91
            R32_PB_DIR &= ~pin;
    2bcc:	0c07a703          	lw	a4,192(a5)
    2bd0:	8d79                	and	a0,a0,a4
c:\Users\Paul Scalise\CH592F_SSD1306\obj/../StdPeriphDriver/CH59x_gpio.c:101
            R32_PB_DIR |= pin;
            break;

        case GPIO_ModeOut_PP_20mA:
            R32_PB_PD_DRV |= pin;
            R32_PB_DIR |= pin;
    2bd2:	0ca7a023          	sw	a0,192(a5)
c:\Users\Paul Scalise\CH592F_SSD1306\obj/../StdPeriphDriver/CH59x_gpio.c:107
            break;

        default:
            break;
    }
}
    2bd6:	8082                	ret
c:\Users\Paul Scalise\CH592F_SSD1306\obj/../StdPeriphDriver/CH59x_gpio.c:83
            R32_PB_PD_DRV &= ~pin;
    2bd8:	400017b7          	lui	a5,0x40001
    2bdc:	0d47a683          	lw	a3,212(a5) # 400010d4 <_eusrstack+0x1fffa8d4>
    2be0:	fff54713          	not	a4,a0
    2be4:	8ef9                	and	a3,a3,a4
    2be6:	0cd7aa23          	sw	a3,212(a5)
c:\Users\Paul Scalise\CH592F_SSD1306\obj/../StdPeriphDriver/CH59x_gpio.c:84
            R32_PB_PU |= pin;
    2bea:	0d07a683          	lw	a3,208(a5)
    2bee:	8d55                	or	a0,a0,a3
    2bf0:	0ca7a823          	sw	a0,208(a5)
c:\Users\Paul Scalise\CH592F_SSD1306\obj/../StdPeriphDriver/CH59x_gpio.c:85
            R32_PB_DIR &= ~pin;
    2bf4:	0c07a683          	lw	a3,192(a5)
    2bf8:	8f75                	and	a4,a4,a3
    2bfa:	0ce7a023          	sw	a4,192(a5)
c:\Users\Paul Scalise\CH592F_SSD1306\obj/../StdPeriphDriver/CH59x_gpio.c:86
            break;
    2bfe:	8082                	ret
c:\Users\Paul Scalise\CH592F_SSD1306\obj/../StdPeriphDriver/CH59x_gpio.c:89
            R32_PB_PD_DRV |= pin;
    2c00:	400017b7          	lui	a5,0x40001
    2c04:	0d47a703          	lw	a4,212(a5) # 400010d4 <_eusrstack+0x1fffa8d4>
    2c08:	8f49                	or	a4,a4,a0
    2c0a:	0ce7aa23          	sw	a4,212(a5)
c:\Users\Paul Scalise\CH592F_SSD1306\obj/../StdPeriphDriver/CH59x_gpio.c:90
            R32_PB_PU &= ~pin;
    2c0e:	0d07a703          	lw	a4,208(a5)
    2c12:	fff54513          	not	a0,a0
    2c16:	bf45                	j	2bc6 <GPIOB_ModeCfg+0x2e>
c:\Users\Paul Scalise\CH592F_SSD1306\obj/../StdPeriphDriver/CH59x_gpio.c:95
            R32_PB_PD_DRV &= ~pin;
    2c18:	400017b7          	lui	a5,0x40001
    2c1c:	0d47a683          	lw	a3,212(a5) # 400010d4 <_eusrstack+0x1fffa8d4>
    2c20:	fff54713          	not	a4,a0
    2c24:	8f75                	and	a4,a4,a3
c:\Users\Paul Scalise\CH592F_SSD1306\obj/../StdPeriphDriver/CH59x_gpio.c:100
            R32_PB_PD_DRV |= pin;
    2c26:	0ce7aa23          	sw	a4,212(a5)
c:\Users\Paul Scalise\CH592F_SSD1306\obj/../StdPeriphDriver/CH59x_gpio.c:101
            R32_PB_DIR |= pin;
    2c2a:	0c07a703          	lw	a4,192(a5)
    2c2e:	8d59                	or	a0,a0,a4
    2c30:	b74d                	j	2bd2 <GPIOB_ModeCfg+0x3a>
c:\Users\Paul Scalise\CH592F_SSD1306\obj/../StdPeriphDriver/CH59x_gpio.c:100
            R32_PB_PD_DRV |= pin;
    2c32:	400017b7          	lui	a5,0x40001
    2c36:	0d47a703          	lw	a4,212(a5) # 400010d4 <_eusrstack+0x1fffa8d4>
    2c3a:	8f49                	or	a4,a4,a0
    2c3c:	b7ed                	j	2c26 <GPIOB_ModeCfg+0x8e>

00002c3e <I2C_GenerateSTART>:
I2C_GenerateSTART():
c:\Users\Paul Scalise\CH592F_SSD1306\obj/../StdPeriphDriver/CH59x_i2c.c:117
 * @return  none
 */
void I2C_GenerateSTART(FunctionalState NewState)
{
    if(NewState != DISABLE)
        R16_I2C_CTRL1 |= RB_I2C_START;
    2c3e:	40005737          	lui	a4,0x40005
    2c42:	80075783          	lhu	a5,-2048(a4) # 40004800 <_eusrstack+0x1fffe000>
c:\Users\Paul Scalise\CH592F_SSD1306\obj/../StdPeriphDriver/CH59x_i2c.c:116
    if(NewState != DISABLE)
    2c46:	c511                	beqz	a0,2c52 <I2C_GenerateSTART+0x14>
c:\Users\Paul Scalise\CH592F_SSD1306\obj/../StdPeriphDriver/CH59x_i2c.c:117
        R16_I2C_CTRL1 |= RB_I2C_START;
    2c48:	1007e793          	ori	a5,a5,256
c:\Users\Paul Scalise\CH592F_SSD1306\obj/../StdPeriphDriver/CH59x_i2c.c:119
    else
        R16_I2C_CTRL1 &= ~RB_I2C_START;
    2c4c:	80f71023          	sh	a5,-2048(a4)
c:\Users\Paul Scalise\CH592F_SSD1306\obj/../StdPeriphDriver/CH59x_i2c.c:120
}
    2c50:	8082                	ret
c:\Users\Paul Scalise\CH592F_SSD1306\obj/../StdPeriphDriver/CH59x_i2c.c:119
        R16_I2C_CTRL1 &= ~RB_I2C_START;
    2c52:	07c2                	slli	a5,a5,0x10
    2c54:	83c1                	srli	a5,a5,0x10
    2c56:	eff7f793          	andi	a5,a5,-257
    2c5a:	07c2                	slli	a5,a5,0x10
    2c5c:	83c1                	srli	a5,a5,0x10
    2c5e:	b7fd                	j	2c4c <I2C_GenerateSTART+0xe>

00002c60 <I2C_GenerateSTOP>:
I2C_GenerateSTOP():
c:\Users\Paul Scalise\CH592F_SSD1306\obj/../StdPeriphDriver/CH59x_i2c.c:134
 * @return  none
 */
void I2C_GenerateSTOP(FunctionalState NewState)
{
    if(NewState != DISABLE)
        R16_I2C_CTRL1 |= RB_I2C_STOP;
    2c60:	40005737          	lui	a4,0x40005
    2c64:	80075783          	lhu	a5,-2048(a4) # 40004800 <_eusrstack+0x1fffe000>
c:\Users\Paul Scalise\CH592F_SSD1306\obj/../StdPeriphDriver/CH59x_i2c.c:133
    if(NewState != DISABLE)
    2c68:	c511                	beqz	a0,2c74 <I2C_GenerateSTOP+0x14>
c:\Users\Paul Scalise\CH592F_SSD1306\obj/../StdPeriphDriver/CH59x_i2c.c:134
        R16_I2C_CTRL1 |= RB_I2C_STOP;
    2c6a:	2007e793          	ori	a5,a5,512
c:\Users\Paul Scalise\CH592F_SSD1306\obj/../StdPeriphDriver/CH59x_i2c.c:136
    else
        R16_I2C_CTRL1 &= ~RB_I2C_STOP;
    2c6e:	80f71023          	sh	a5,-2048(a4)
c:\Users\Paul Scalise\CH592F_SSD1306\obj/../StdPeriphDriver/CH59x_i2c.c:137
}
    2c72:	8082                	ret
c:\Users\Paul Scalise\CH592F_SSD1306\obj/../StdPeriphDriver/CH59x_i2c.c:136
        R16_I2C_CTRL1 &= ~RB_I2C_STOP;
    2c74:	07c2                	slli	a5,a5,0x10
    2c76:	83c1                	srli	a5,a5,0x10
    2c78:	dff7f793          	andi	a5,a5,-513
    2c7c:	07c2                	slli	a5,a5,0x10
    2c7e:	83c1                	srli	a5,a5,0x10
    2c80:	b7fd                	j	2c6e <I2C_GenerateSTOP+0xe>

00002c82 <I2C_AcknowledgeConfig>:
I2C_AcknowledgeConfig():
c:\Users\Paul Scalise\CH592F_SSD1306\obj/../StdPeriphDriver/CH59x_i2c.c:151
 * @return  none
 */
void I2C_AcknowledgeConfig(FunctionalState NewState)
{
    if(NewState != DISABLE)
        R16_I2C_CTRL1 |= RB_I2C_ACK;
    2c82:	40005737          	lui	a4,0x40005
    2c86:	80075783          	lhu	a5,-2048(a4) # 40004800 <_eusrstack+0x1fffe000>
c:\Users\Paul Scalise\CH592F_SSD1306\obj/../StdPeriphDriver/CH59x_i2c.c:150
    if(NewState != DISABLE)
    2c8a:	c511                	beqz	a0,2c96 <I2C_AcknowledgeConfig+0x14>
c:\Users\Paul Scalise\CH592F_SSD1306\obj/../StdPeriphDriver/CH59x_i2c.c:151
        R16_I2C_CTRL1 |= RB_I2C_ACK;
    2c8c:	4007e793          	ori	a5,a5,1024
c:\Users\Paul Scalise\CH592F_SSD1306\obj/../StdPeriphDriver/CH59x_i2c.c:153
    else
        R16_I2C_CTRL1 &= ~RB_I2C_ACK;
    2c90:	80f71023          	sh	a5,-2048(a4)
c:\Users\Paul Scalise\CH592F_SSD1306\obj/../StdPeriphDriver/CH59x_i2c.c:154
}
    2c94:	8082                	ret
c:\Users\Paul Scalise\CH592F_SSD1306\obj/../StdPeriphDriver/CH59x_i2c.c:153
        R16_I2C_CTRL1 &= ~RB_I2C_ACK;
    2c96:	07c2                	slli	a5,a5,0x10
    2c98:	83c1                	srli	a5,a5,0x10
    2c9a:	bff7f793          	andi	a5,a5,-1025
    2c9e:	07c2                	slli	a5,a5,0x10
    2ca0:	83c1                	srli	a5,a5,0x10
    2ca2:	b7fd                	j	2c90 <I2C_AcknowledgeConfig+0xe>

00002ca4 <I2C_ITConfig>:
I2C_ITConfig():
c:\Users\Paul Scalise\CH592F_SSD1306\obj/../StdPeriphDriver/CH59x_i2c.c:221
 * @return  none
 */
void I2C_ITConfig(I2C_ITTypeDef I2C_IT, FunctionalState NewState)
{
    if(NewState != DISABLE)
        R16_I2C_CTRL2 |= I2C_IT;
    2ca4:	400057b7          	lui	a5,0x40005
    2ca8:	8047d703          	lhu	a4,-2044(a5) # 40004804 <_eusrstack+0x1fffe004>
    2cac:	0542                	slli	a0,a0,0x10
    2cae:	8141                	srli	a0,a0,0x10
c:\Users\Paul Scalise\CH592F_SSD1306\obj/../StdPeriphDriver/CH59x_i2c.c:220
    if(NewState != DISABLE)
    2cb0:	c589                	beqz	a1,2cba <I2C_ITConfig+0x16>
c:\Users\Paul Scalise\CH592F_SSD1306\obj/../StdPeriphDriver/CH59x_i2c.c:221
        R16_I2C_CTRL2 |= I2C_IT;
    2cb2:	8d59                	or	a0,a0,a4
c:\Users\Paul Scalise\CH592F_SSD1306\obj/../StdPeriphDriver/CH59x_i2c.c:223
    else
        R16_I2C_CTRL2 &= (uint16_t)~I2C_IT;
    2cb4:	80a79223          	sh	a0,-2044(a5)
c:\Users\Paul Scalise\CH592F_SSD1306\obj/../StdPeriphDriver/CH59x_i2c.c:224
}
    2cb8:	8082                	ret
c:\Users\Paul Scalise\CH592F_SSD1306\obj/../StdPeriphDriver/CH59x_i2c.c:223
        R16_I2C_CTRL2 &= (uint16_t)~I2C_IT;
    2cba:	fff54513          	not	a0,a0
    2cbe:	8d79                	and	a0,a0,a4
    2cc0:	bfd5                	j	2cb4 <I2C_ITConfig+0x10>

00002cc2 <I2C_SendData>:
I2C_SendData():
c:\Users\Paul Scalise\CH592F_SSD1306\obj/../StdPeriphDriver/CH59x_i2c.c:237
 *
 * @return  none
 */
void I2C_SendData(uint8_t Data)
{
    R16_I2C_DATAR = Data;
    2cc2:	400057b7          	lui	a5,0x40005
    2cc6:	80a79823          	sh	a0,-2032(a5) # 40004810 <_eusrstack+0x1fffe010>
c:\Users\Paul Scalise\CH592F_SSD1306\obj/../StdPeriphDriver/CH59x_i2c.c:238
}
    2cca:	8082                	ret

00002ccc <I2C_ReceiveData>:
I2C_ReceiveData():
c:\Users\Paul Scalise\CH592F_SSD1306\obj/../StdPeriphDriver/CH59x_i2c.c:249
 *
 * @return  The value of the received data.
 */
uint8_t I2C_ReceiveData(void)
{
    return (uint8_t)R16_I2C_DATAR;
    2ccc:	400057b7          	lui	a5,0x40005
    2cd0:	8107d503          	lhu	a0,-2032(a5) # 40004810 <_eusrstack+0x1fffe010>
c:\Users\Paul Scalise\CH592F_SSD1306\obj/../StdPeriphDriver/CH59x_i2c.c:250
}
    2cd4:	0ff57513          	andi	a0,a0,255
    2cd8:	8082                	ret

00002cda <I2C_SoftwareResetCmd>:
I2C_SoftwareResetCmd():
c:\Users\Paul Scalise\CH592F_SSD1306\obj/../StdPeriphDriver/CH59x_i2c.c:286
 * @return  none
 */
void I2C_SoftwareResetCmd(FunctionalState NewState)
{
    if(NewState != DISABLE)
        R16_I2C_CTRL1 |= RB_I2C_SWRST;
    2cda:	40005737          	lui	a4,0x40005
    2cde:	80075783          	lhu	a5,-2048(a4) # 40004800 <_eusrstack+0x1fffe000>
c:\Users\Paul Scalise\CH592F_SSD1306\obj/../StdPeriphDriver/CH59x_i2c.c:285
    if(NewState != DISABLE)
    2ce2:	c511                	beqz	a0,2cee <I2C_SoftwareResetCmd+0x14>
c:\Users\Paul Scalise\CH592F_SSD1306\obj/../StdPeriphDriver/CH59x_i2c.c:286
        R16_I2C_CTRL1 |= RB_I2C_SWRST;
    2ce4:	66a1                	lui	a3,0x8
    2ce6:	8fd5                	or	a5,a5,a3
c:\Users\Paul Scalise\CH592F_SSD1306\obj/../StdPeriphDriver/CH59x_i2c.c:288
    else
        R16_I2C_CTRL1 &= ~RB_I2C_SWRST;
    2ce8:	80f71023          	sh	a5,-2048(a4)
c:\Users\Paul Scalise\CH592F_SSD1306\obj/../StdPeriphDriver/CH59x_i2c.c:289
}
    2cec:	8082                	ret
c:\Users\Paul Scalise\CH592F_SSD1306\obj/../StdPeriphDriver/CH59x_i2c.c:288
        R16_I2C_CTRL1 &= ~RB_I2C_SWRST;
    2cee:	07c6                	slli	a5,a5,0x11
    2cf0:	83c5                	srli	a5,a5,0x11
    2cf2:	bfdd                	j	2ce8 <I2C_SoftwareResetCmd+0xe>

00002cf4 <I2C_Init>:
I2C_Init():
c:\Users\Paul Scalise\CH592F_SSD1306\obj/../StdPeriphDriver/CH59x_i2c.c:34
{
    2cf4:	1101                	addi	sp,sp,-32
    2cf6:	ca26                	sw	s1,20(sp)
I2C_SoftwareResetCmd():
c:\Users\Paul Scalise\CH592F_SSD1306\obj/../StdPeriphDriver/CH59x_i2c.c:286
        R16_I2C_CTRL1 |= RB_I2C_SWRST;
    2cf8:	400054b7          	lui	s1,0x40005
I2C_Init():
c:\Users\Paul Scalise\CH592F_SSD1306\obj/../StdPeriphDriver/CH59x_i2c.c:34
{
    2cfc:	cc22                	sw	s0,24(sp)
    2cfe:	842e                	mv	s0,a1
I2C_SoftwareResetCmd():
c:\Users\Paul Scalise\CH592F_SSD1306\obj/../StdPeriphDriver/CH59x_i2c.c:286
        R16_I2C_CTRL1 |= RB_I2C_SWRST;
    2d00:	8004d583          	lhu	a1,-2048(s1) # 40004800 <_eusrstack+0x1fffe000>
I2C_Init():
c:\Users\Paul Scalise\CH592F_SSD1306\obj/../StdPeriphDriver/CH59x_i2c.c:34
{
    2d04:	c84a                	sw	s2,16(sp)
    2d06:	892a                	mv	s2,a0
I2C_SoftwareResetCmd():
c:\Users\Paul Scalise\CH592F_SSD1306\obj/../StdPeriphDriver/CH59x_i2c.c:286
        R16_I2C_CTRL1 |= RB_I2C_SWRST;
    2d08:	6521                	lui	a0,0x8
    2d0a:	8dc9                	or	a1,a1,a0
I2C_Init():
c:\Users\Paul Scalise\CH592F_SSD1306\obj/../StdPeriphDriver/CH59x_i2c.c:34
{
    2d0c:	c632                	sw	a2,12(sp)
    2d0e:	c436                	sw	a3,8(sp)
    2d10:	c23a                	sw	a4,4(sp)
    2d12:	c03e                	sw	a5,0(sp)
    2d14:	ce06                	sw	ra,28(sp)
I2C_SoftwareResetCmd():
c:\Users\Paul Scalise\CH592F_SSD1306\obj/../StdPeriphDriver/CH59x_i2c.c:286
        R16_I2C_CTRL1 |= RB_I2C_SWRST;
    2d16:	80b49023          	sh	a1,-2048(s1)
I2C_Init():
c:\Users\Paul Scalise\CH592F_SSD1306\obj/../StdPeriphDriver/CH59x_i2c.c:39
    I2C_SoftwareResetCmd(DISABLE);
    2d1a:	4501                	li	a0,0
    2d1c:	3f7d                	jal	2cda <I2C_SoftwareResetCmd>
c:\Users\Paul Scalise\CH592F_SSD1306\obj/../StdPeriphDriver/CH59x_i2c.c:41
    sysClock = GetSysClock();
    2d1e:	2a91                	jal	2e72 <GetSysClock>
c:\Users\Paul Scalise\CH592F_SSD1306\obj/../StdPeriphDriver/CH59x_i2c.c:44
    R16_I2C_CTRL2 |= (sysClock / 1000000);
    2d20:	000f4837          	lui	a6,0xf4
    2d24:	24080813          	addi	a6,a6,576 # f4240 <_data_lma+0xed5f0>
    2d28:	03055833          	divu	a6,a0,a6
c:\Users\Paul Scalise\CH592F_SSD1306\obj/../StdPeriphDriver/CH59x_i2c.c:43
    R16_I2C_CTRL2 &= ~RB_I2C_FREQ;
    2d2c:	8044d583          	lhu	a1,-2044(s1)
c:\Users\Paul Scalise\CH592F_SSD1306\obj/../StdPeriphDriver/CH59x_i2c.c:48
    if(I2C_ClockSpeed <= 100000)
    2d30:	4782                	lw	a5,0(sp)
    2d32:	4712                	lw	a4,4(sp)
c:\Users\Paul Scalise\CH592F_SSD1306\obj/../StdPeriphDriver/CH59x_i2c.c:43
    R16_I2C_CTRL2 &= ~RB_I2C_FREQ;
    2d34:	05c2                	slli	a1,a1,0x10
    2d36:	81c1                	srli	a1,a1,0x10
    2d38:	fc05f593          	andi	a1,a1,-64
    2d3c:	05c2                	slli	a1,a1,0x10
    2d3e:	81c1                	srli	a1,a1,0x10
    2d40:	80b49223          	sh	a1,-2044(s1)
c:\Users\Paul Scalise\CH592F_SSD1306\obj/../StdPeriphDriver/CH59x_i2c.c:44
    R16_I2C_CTRL2 |= (sysClock / 1000000);
    2d44:	8044d583          	lhu	a1,-2044(s1)
c:\Users\Paul Scalise\CH592F_SSD1306\obj/../StdPeriphDriver/CH59x_i2c.c:48
    if(I2C_ClockSpeed <= 100000)
    2d48:	46a2                	lw	a3,8(sp)
    2d4a:	4632                	lw	a2,12(sp)
c:\Users\Paul Scalise\CH592F_SSD1306\obj/../StdPeriphDriver/CH59x_i2c.c:44
    R16_I2C_CTRL2 |= (sysClock / 1000000);
    2d4c:	00b865b3          	or	a1,a6,a1
    2d50:	05c2                	slli	a1,a1,0x10
    2d52:	81c1                	srli	a1,a1,0x10
    2d54:	80b49223          	sh	a1,-2044(s1)
c:\Users\Paul Scalise\CH592F_SSD1306\obj/../StdPeriphDriver/CH59x_i2c.c:46
    R16_I2C_CTRL1 &= ~RB_I2C_PE;
    2d58:	8004d583          	lhu	a1,-2048(s1)
    2d5c:	05c2                	slli	a1,a1,0x10
    2d5e:	81c1                	srli	a1,a1,0x10
    2d60:	99f9                	andi	a1,a1,-2
    2d62:	05c2                	slli	a1,a1,0x10
    2d64:	81c1                	srli	a1,a1,0x10
    2d66:	80b49023          	sh	a1,-2048(s1)
c:\Users\Paul Scalise\CH592F_SSD1306\obj/../StdPeriphDriver/CH59x_i2c.c:48
    if(I2C_ClockSpeed <= 100000)
    2d6a:	65e1                	lui	a1,0x18
    2d6c:	6a058593          	addi	a1,a1,1696 # 186a0 <_data_lma+0x11a50>
    2d70:	0885ed63          	bltu	a1,s0,2e0a <I2C_Init+0x116>
c:\Users\Paul Scalise\CH592F_SSD1306\obj/../StdPeriphDriver/CH59x_i2c.c:50
        tmpreg = (sysClock / (I2C_ClockSpeed << 1)) & RB_I2C_CCR;
    2d74:	0406                	slli	s0,s0,0x1
    2d76:	02855433          	divu	s0,a0,s0
c:\Users\Paul Scalise\CH592F_SSD1306\obj/../StdPeriphDriver/CH59x_i2c.c:52
        if(tmpreg < 0x04)
    2d7a:	6605                	lui	a2,0x1
    2d7c:	ffc60593          	addi	a1,a2,-4 # ffc <ssd1306_gram_update+0x4>
c:\Users\Paul Scalise\CH592F_SSD1306\obj/../StdPeriphDriver/CH59x_i2c.c:53
            tmpreg = 0x04;
    2d80:	4511                	li	a0,4
c:\Users\Paul Scalise\CH592F_SSD1306\obj/../StdPeriphDriver/CH59x_i2c.c:50
        tmpreg = (sysClock / (I2C_ClockSpeed << 1)) & RB_I2C_CCR;
    2d82:	0442                	slli	s0,s0,0x10
    2d84:	8041                	srli	s0,s0,0x10
c:\Users\Paul Scalise\CH592F_SSD1306\obj/../StdPeriphDriver/CH59x_i2c.c:52
        if(tmpreg < 0x04)
    2d86:	8de1                	and	a1,a1,s0
    2d88:	c581                	beqz	a1,2d90 <I2C_Init+0x9c>
c:\Users\Paul Scalise\CH592F_SSD1306\obj/../StdPeriphDriver/CH59x_i2c.c:50
        tmpreg = (sysClock / (I2C_ClockSpeed << 1)) & RB_I2C_CCR;
    2d8a:	fff60513          	addi	a0,a2,-1
    2d8e:	8d61                	and	a0,a0,s0
c:\Users\Paul Scalise\CH592F_SSD1306\obj/../StdPeriphDriver/CH59x_i2c.c:55
        R16_I2C_RTR = (((sysClock / 1000000) + 1) > 0x3F) ? 0x3F : ((sysClock / 1000000) + 1);
    2d90:	0805                	addi	a6,a6,1
    2d92:	03f00613          	li	a2,63
    2d96:	01067463          	bgeu	a2,a6,2d9e <I2C_Init+0xaa>
    2d9a:	03f00813          	li	a6,63
c:\Users\Paul Scalise\CH592F_SSD1306\obj/../StdPeriphDriver/CH59x_i2c.c:75
        R16_I2C_RTR = (uint16_t)((((sysClock / 1000000) * (uint16_t)300) / (uint16_t)1000) + (uint16_t)1);
    2d9e:	0842                	slli	a6,a6,0x10
    2da0:	40005637          	lui	a2,0x40005
    2da4:	01085813          	srli	a6,a6,0x10
    2da8:	83061023          	sh	a6,-2016(a2) # 40004820 <_eusrstack+0x1fffe020>
c:\Users\Paul Scalise\CH592F_SSD1306\obj/../StdPeriphDriver/CH59x_i2c.c:77
    R16_I2C_CKCFGR = tmpreg;
    2dac:	40005637          	lui	a2,0x40005
    2db0:	80a61e23          	sh	a0,-2020(a2) # 4000481c <_eusrstack+0x1fffe01c>
c:\Users\Paul Scalise\CH592F_SSD1306\obj/../StdPeriphDriver/CH59x_i2c.c:79
    R16_I2C_CTRL1 |= RB_I2C_PE;
    2db4:	80065583          	lhu	a1,-2048(a2)
c:\Users\Paul Scalise\CH592F_SSD1306\obj/../StdPeriphDriver/CH59x_i2c.c:86
}
    2db8:	40f2                	lw	ra,28(sp)
    2dba:	4462                	lw	s0,24(sp)
c:\Users\Paul Scalise\CH592F_SSD1306\obj/../StdPeriphDriver/CH59x_i2c.c:79
    R16_I2C_CTRL1 |= RB_I2C_PE;
    2dbc:	0015e593          	ori	a1,a1,1
    2dc0:	80b61023          	sh	a1,-2048(a2)
c:\Users\Paul Scalise\CH592F_SSD1306\obj/../StdPeriphDriver/CH59x_i2c.c:81
    R16_I2C_CTRL1 &= ~(RB_I2C_SMBUS | RB_I2C_SMBTYPE | RB_I2C_ACK);
    2dc4:	80065583          	lhu	a1,-2048(a2)
c:\Users\Paul Scalise\CH592F_SSD1306\obj/../StdPeriphDriver/CH59x_i2c.c:86
}
    2dc8:	44d2                	lw	s1,20(sp)
c:\Users\Paul Scalise\CH592F_SSD1306\obj/../StdPeriphDriver/CH59x_i2c.c:81
    R16_I2C_CTRL1 &= ~(RB_I2C_SMBUS | RB_I2C_SMBTYPE | RB_I2C_ACK);
    2dca:	05c2                	slli	a1,a1,0x10
    2dcc:	81c1                	srli	a1,a1,0x10
    2dce:	bf55f593          	andi	a1,a1,-1035
    2dd2:	05c2                	slli	a1,a1,0x10
    2dd4:	81c1                	srli	a1,a1,0x10
    2dd6:	80b61023          	sh	a1,-2048(a2)
c:\Users\Paul Scalise\CH592F_SSD1306\obj/../StdPeriphDriver/CH59x_i2c.c:82
    R16_I2C_CTRL1 |= I2C_Mode | I2C_Ack;
    2dda:	80065583          	lhu	a1,-2048(a2)
    2dde:	8ecd                	or	a3,a3,a1
    2de0:	0126e6b3          	or	a3,a3,s2
    2de4:	06c2                	slli	a3,a3,0x10
    2de6:	82c1                	srli	a3,a3,0x10
    2de8:	80d61023          	sh	a3,-2048(a2)
c:\Users\Paul Scalise\CH592F_SSD1306\obj/../StdPeriphDriver/CH59x_i2c.c:84
    R16_I2C_OADDR1 &= ~0xFFFF;
    2dec:	80865683          	lhu	a3,-2040(a2)
    2df0:	80061423          	sh	zero,-2040(a2)
c:\Users\Paul Scalise\CH592F_SSD1306\obj/../StdPeriphDriver/CH59x_i2c.c:85
    R16_I2C_OADDR1 |= I2C_AckAddr | I2C_OwnAddress1;
    2df4:	80865683          	lhu	a3,-2040(a2)
c:\Users\Paul Scalise\CH592F_SSD1306\obj/../StdPeriphDriver/CH59x_i2c.c:86
}
    2df8:	4942                	lw	s2,16(sp)
c:\Users\Paul Scalise\CH592F_SSD1306\obj/../StdPeriphDriver/CH59x_i2c.c:85
    R16_I2C_OADDR1 |= I2C_AckAddr | I2C_OwnAddress1;
    2dfa:	8fd5                	or	a5,a5,a3
    2dfc:	8fd9                	or	a5,a5,a4
    2dfe:	07c2                	slli	a5,a5,0x10
    2e00:	83c1                	srli	a5,a5,0x10
    2e02:	80f61423          	sh	a5,-2040(a2)
c:\Users\Paul Scalise\CH592F_SSD1306\obj/../StdPeriphDriver/CH59x_i2c.c:86
}
    2e06:	6105                	addi	sp,sp,32
    2e08:	8082                	ret
c:\Users\Paul Scalise\CH592F_SSD1306\obj/../StdPeriphDriver/CH59x_i2c.c:59
        if(I2C_DutyCycle == I2C_DutyCycle_2)
    2e0a:	e615                	bnez	a2,2e36 <I2C_Init+0x142>
c:\Users\Paul Scalise\CH592F_SSD1306\obj/../StdPeriphDriver/CH59x_i2c.c:61
            tmpreg = (sysClock / (I2C_ClockSpeed * 3)) & RB_I2C_CCR;
    2e0c:	458d                	li	a1,3
    2e0e:	02b405b3          	mul	a1,s0,a1
    2e12:	02b55533          	divu	a0,a0,a1
    2e16:	0552                	slli	a0,a0,0x14
    2e18:	8151                	srli	a0,a0,0x14
c:\Users\Paul Scalise\CH592F_SSD1306\obj/../StdPeriphDriver/CH59x_i2c.c:69
        if(tmpreg == 0)
    2e1a:	e111                	bnez	a0,2e1e <I2C_Init+0x12a>
c:\Users\Paul Scalise\CH592F_SSD1306\obj/../StdPeriphDriver/CH59x_i2c.c:71
            tmpreg |= (uint16_t)0x0001;
    2e1c:	4505                	li	a0,1
c:\Users\Paul Scalise\CH592F_SSD1306\obj/../StdPeriphDriver/CH59x_i2c.c:74
        tmpreg |= RB_I2C_F_S;
    2e1e:	6621                	lui	a2,0x8
    2e20:	8d51                	or	a0,a0,a2
c:\Users\Paul Scalise\CH592F_SSD1306\obj/../StdPeriphDriver/CH59x_i2c.c:75
        R16_I2C_RTR = (uint16_t)((((sysClock / 1000000) * (uint16_t)300) / (uint16_t)1000) + (uint16_t)1);
    2e22:	12c00613          	li	a2,300
    2e26:	02c80833          	mul	a6,a6,a2
    2e2a:	3e800613          	li	a2,1000
    2e2e:	02c85833          	divu	a6,a6,a2
    2e32:	0805                	addi	a6,a6,1
    2e34:	b7ad                	j	2d9e <I2C_Init+0xaa>
c:\Users\Paul Scalise\CH592F_SSD1306\obj/../StdPeriphDriver/CH59x_i2c.c:65
            tmpreg = (sysClock / (I2C_ClockSpeed * 25)) & RB_I2C_CCR;
    2e36:	45e5                	li	a1,25
    2e38:	02b40433          	mul	s0,s0,a1
c:\Users\Paul Scalise\CH592F_SSD1306\obj/../StdPeriphDriver/CH59x_i2c.c:66
            tmpreg |= I2C_DutyCycle_16_9;
    2e3c:	6611                	lui	a2,0x4
c:\Users\Paul Scalise\CH592F_SSD1306\obj/../StdPeriphDriver/CH59x_i2c.c:65
            tmpreg = (sysClock / (I2C_ClockSpeed * 25)) & RB_I2C_CCR;
    2e3e:	02855533          	divu	a0,a0,s0
    2e42:	0552                	slli	a0,a0,0x14
    2e44:	8151                	srli	a0,a0,0x14
c:\Users\Paul Scalise\CH592F_SSD1306\obj/../StdPeriphDriver/CH59x_i2c.c:66
            tmpreg |= I2C_DutyCycle_16_9;
    2e46:	8d51                	or	a0,a0,a2
c:\Users\Paul Scalise\CH592F_SSD1306\obj/../StdPeriphDriver/CH59x_i2c.c:69
        if(tmpreg == 0)
    2e48:	bfd9                	j	2e1e <I2C_Init+0x12a>

00002e4a <I2C_GetLastEvent>:
I2C_GetLastEvent():
c:\Users\Paul Scalise\CH592F_SSD1306\obj/../StdPeriphDriver/CH59x_i2c.c:512
uint32_t I2C_GetLastEvent(void)
{
    uint32_t lastevent = 0;
    uint32_t flag1 = 0, flag2 = 0;

    flag1 = R16_I2C_STAR1;
    2e4a:	400057b7          	lui	a5,0x40005
    2e4e:	8147d703          	lhu	a4,-2028(a5) # 40004814 <_eusrstack+0x1fffe014>
c:\Users\Paul Scalise\CH592F_SSD1306\obj/../StdPeriphDriver/CH59x_i2c.c:513
    flag2 = R16_I2C_STAR2;
    2e52:	8187d503          	lhu	a0,-2024(a5)
c:\Users\Paul Scalise\CH592F_SSD1306\obj/../StdPeriphDriver/CH59x_i2c.c:514
    flag2 = flag2 << 16;
    2e56:	0542                	slli	a0,a0,0x10
c:\Users\Paul Scalise\CH592F_SSD1306\obj/../StdPeriphDriver/CH59x_i2c.c:515
    lastevent = (flag1 | flag2) & FLAG_Mask;
    2e58:	8d59                	or	a0,a0,a4
    2e5a:	0522                	slli	a0,a0,0x8
c:\Users\Paul Scalise\CH592F_SSD1306\obj/../StdPeriphDriver/CH59x_i2c.c:518

    return lastevent;
}
    2e5c:	8121                	srli	a0,a0,0x8
    2e5e:	8082                	ret

00002e60 <I2C_ClearFlag>:
I2C_ClearFlag():
c:\Users\Paul Scalise\CH592F_SSD1306\obj/../StdPeriphDriver/CH59x_i2c.c:603
void I2C_ClearFlag(uint32_t I2C_FLAG)
{
    uint32_t flagpos = 0;

    flagpos = I2C_FLAG & FLAG_Mask;
    R16_I2C_STAR1 = (uint16_t)~flagpos;
    2e60:	fff54513          	not	a0,a0
    2e64:	0542                	slli	a0,a0,0x10
    2e66:	8141                	srli	a0,a0,0x10
    2e68:	400057b7          	lui	a5,0x40005
    2e6c:	80a79a23          	sh	a0,-2028(a5) # 40004814 <_eusrstack+0x1fffe014>
c:\Users\Paul Scalise\CH592F_SSD1306\obj/../StdPeriphDriver/CH59x_i2c.c:604
}
    2e70:	8082                	ret

00002e72 <GetSysClock>:
GetSysClock():
c:\Users\Paul Scalise\CH592F_SSD1306\obj/../StdPeriphDriver/CH59x_sys.c:83
    rev = R32_CLK_SYS_CFG & 0xff;
    2e72:	400017b7          	lui	a5,0x40001
    2e76:	4788                	lw	a0,8(a5)
    2e78:	0542                	slli	a0,a0,0x10
    2e7a:	8141                	srli	a0,a0,0x10
c:\Users\Paul Scalise\CH592F_SSD1306\obj/../StdPeriphDriver/CH59x_sys.c:84
    if((rev & 0x40) == (0 << 6))
    2e7c:	04057793          	andi	a5,a0,64
    2e80:	eb91                	bnez	a5,2e94 <GetSysClock+0x22>
c:\Users\Paul Scalise\CH592F_SSD1306\obj/../StdPeriphDriver/CH59x_sys.c:86
        return (32000000 / (rev & 0x1f));
    2e82:	01f57793          	andi	a5,a0,31
    2e86:	01e85537          	lui	a0,0x1e85
c:\Users\Paul Scalise\CH592F_SSD1306\obj/../StdPeriphDriver/CH59x_sys.c:90
        return (480000000 / (rev & 0x1f));
    2e8a:	80050513          	addi	a0,a0,-2048 # 1e84800 <_data_lma+0x1e7dbb0>
    2e8e:	02f54533          	div	a0,a0,a5
    2e92:	8082                	ret
c:\Users\Paul Scalise\CH592F_SSD1306\obj/../StdPeriphDriver/CH59x_sys.c:88
    else if((rev & RB_CLK_SYS_MOD) == (1 << 6))
    2e94:	0c057793          	andi	a5,a0,192
    2e98:	04000713          	li	a4,64
    2e9c:	00e79763          	bne	a5,a4,2eaa <GetSysClock+0x38>
c:\Users\Paul Scalise\CH592F_SSD1306\obj/../StdPeriphDriver/CH59x_sys.c:90
        return (480000000 / (rev & 0x1f));
    2ea0:	01f57793          	andi	a5,a0,31
    2ea4:	1c9c4537          	lui	a0,0x1c9c4
    2ea8:	b7cd                	j	2e8a <GetSysClock+0x18>
c:\Users\Paul Scalise\CH592F_SSD1306\obj/../StdPeriphDriver/CH59x_sys.c:94
        return (32000);
    2eaa:	6521                	lui	a0,0x8
    2eac:	d0050513          	addi	a0,a0,-768 # 7d00 <_data_lma+0x10b0>
c:\Users\Paul Scalise\CH592F_SSD1306\obj/../StdPeriphDriver/CH59x_sys.c:96
}
    2eb0:	8082                	ret

00002eb2 <_write>:
_write():
c:\Users\Paul Scalise\CH592F_SSD1306\obj/../StdPeriphDriver/CH59x_sys.c:347

#ifdef DEBUG
int _write(int fd, char *buf, int size)
{
    int i;
    for(i = 0; i < size; i++)
    2eb2:	4781                	li	a5,0
c:\Users\Paul Scalise\CH592F_SSD1306\obj/../StdPeriphDriver/CH59x_sys.c:353
    {
#if DEBUG == Debug_UART0
        while(R8_UART0_TFC == UART_FIFO_SIZE);                  /*  */
        R8_UART0_THR = *buf++; /*  */
#elif DEBUG == Debug_UART1
        while(R8_UART1_TFC == UART_FIFO_SIZE);                  /*  */
    2eb4:	40003737          	lui	a4,0x40003
    2eb8:	46a1                	li	a3,8
c:\Users\Paul Scalise\CH592F_SSD1306\obj/../StdPeriphDriver/CH59x_sys.c:347 (discriminator 1)
    for(i = 0; i < size; i++)
    2eba:	00c7c463          	blt	a5,a2,2ec2 <_write+0x10>
c:\Users\Paul Scalise\CH592F_SSD1306\obj/../StdPeriphDriver/CH59x_sys.c:364
        while(R8_UART3_TFC == UART_FIFO_SIZE);                  /*  */
        R8_UART3_THR = *buf++; /*  */
#endif
    }
    return size;
}
    2ebe:	8532                	mv	a0,a2
    2ec0:	8082                	ret
c:\Users\Paul Scalise\CH592F_SSD1306\obj/../StdPeriphDriver/CH59x_sys.c:353 (discriminator 1)
        while(R8_UART1_TFC == UART_FIFO_SIZE);                  /*  */
    2ec2:	40b74503          	lbu	a0,1035(a4) # 4000340b <_eusrstack+0x1fffcc0b>
    2ec6:	fea68ee3          	beq	a3,a0,2ec2 <_write+0x10>
c:\Users\Paul Scalise\CH592F_SSD1306\obj/../StdPeriphDriver/CH59x_sys.c:354 (discriminator 2)
        R8_UART1_THR = *buf++; /*  */
    2eca:	00f58533          	add	a0,a1,a5
    2ece:	00054503          	lbu	a0,0(a0)
c:\Users\Paul Scalise\CH592F_SSD1306\obj/../StdPeriphDriver/CH59x_sys.c:347 (discriminator 2)
    for(i = 0; i < size; i++)
    2ed2:	0785                	addi	a5,a5,1
c:\Users\Paul Scalise\CH592F_SSD1306\obj/../StdPeriphDriver/CH59x_sys.c:354 (discriminator 2)
        R8_UART1_THR = *buf++; /*  */
    2ed4:	40a70423          	sb	a0,1032(a4)
    2ed8:	b7cd                	j	2eba <_write+0x8>

00002eda <_sbrk>:
_sbrk():
c:\Users\Paul Scalise\CH592F_SSD1306\obj/../StdPeriphDriver/CH59x_sys.c:382
{
    extern char _end[];
    extern char _heap_end[];
    static char *curbrk = _end;

    if ((curbrk + incr < _end) || (curbrk + incr > _heap_end))
    2eda:	20000797          	auipc	a5,0x20000
    2ede:	d2678793          	addi	a5,a5,-730 # 20002c00 <curbrk.3969>
    2ee2:	439c                	lw	a5,0(a5)
    2ee4:	21c18713          	addi	a4,gp,540 # 2000361c <_ebss>
    2ee8:	953e                	add	a0,a0,a5
    2eea:	00e56e63          	bltu	a0,a4,2f06 <_sbrk+0x2c>
c:\Users\Paul Scalise\CH592F_SSD1306\obj/../StdPeriphDriver/CH59x_sys.c:382 (discriminator 1)
    2eee:	20003717          	auipc	a4,0x20003
    2ef2:	71270713          	addi	a4,a4,1810 # 20006600 <_heap_end>
    2ef6:	00a76863          	bltu	a4,a0,2f06 <_sbrk+0x2c>
c:\Users\Paul Scalise\CH592F_SSD1306\obj/../StdPeriphDriver/CH59x_sys.c:385
    return NULL - 1;

    curbrk += incr;
    2efa:	20000717          	auipc	a4,0x20000
    2efe:	d0a72323          	sw	a0,-762(a4) # 20002c00 <curbrk.3969>
c:\Users\Paul Scalise\CH592F_SSD1306\obj/../StdPeriphDriver/CH59x_sys.c:387
    return curbrk - incr;
}
    2f02:	853e                	mv	a0,a5
    2f04:	8082                	ret
c:\Users\Paul Scalise\CH592F_SSD1306\obj/../StdPeriphDriver/CH59x_sys.c:383
    return NULL - 1;
    2f06:	57fd                	li	a5,-1
    2f08:	bfed                	j	2f02 <_sbrk+0x28>

00002f0a <UART1_BaudRateCfg>:
UART1_BaudRateCfg():
c:\Users\Paul Scalise\CH592F_SSD1306\obj/../StdPeriphDriver/CH59x_uart1.c:43
 * @param   baudrate    - 
 *
 * @return  none
 */
void UART1_BaudRateCfg(uint32_t baudrate)
{
    2f0a:	1141                	addi	sp,sp,-16
    2f0c:	c422                	sw	s0,8(sp)
    2f0e:	c606                	sw	ra,12(sp)
    2f10:	842a                	mv	s0,a0
c:\Users\Paul Scalise\CH592F_SSD1306\obj/../StdPeriphDriver/CH59x_uart1.c:46
    uint32_t x;

    x = 10 * GetSysClock() / 8 / baudrate;
    2f12:	3785                	jal	2e72 <GetSysClock>
    2f14:	4729                	li	a4,10
    2f16:	02e507b3          	mul	a5,a0,a4
c:\Users\Paul Scalise\CH592F_SSD1306\obj/../StdPeriphDriver/CH59x_uart1.c:49
    x = (x + 5) / 10;
    R16_UART1_DL = (uint16_t)x;
}
    2f1a:	40b2                	lw	ra,12(sp)
c:\Users\Paul Scalise\CH592F_SSD1306\obj/../StdPeriphDriver/CH59x_uart1.c:46
    x = 10 * GetSysClock() / 8 / baudrate;
    2f1c:	838d                	srli	a5,a5,0x3
    2f1e:	0287d7b3          	divu	a5,a5,s0
c:\Users\Paul Scalise\CH592F_SSD1306\obj/../StdPeriphDriver/CH59x_uart1.c:49
}
    2f22:	4422                	lw	s0,8(sp)
c:\Users\Paul Scalise\CH592F_SSD1306\obj/../StdPeriphDriver/CH59x_uart1.c:47
    x = (x + 5) / 10;
    2f24:	0795                	addi	a5,a5,5
    2f26:	02e7d7b3          	divu	a5,a5,a4
c:\Users\Paul Scalise\CH592F_SSD1306\obj/../StdPeriphDriver/CH59x_uart1.c:48
    R16_UART1_DL = (uint16_t)x;
    2f2a:	40003737          	lui	a4,0x40003
    2f2e:	07c2                	slli	a5,a5,0x10
    2f30:	83c1                	srli	a5,a5,0x10
    2f32:	40f71623          	sh	a5,1036(a4) # 4000340c <_eusrstack+0x1fffcc0c>
c:\Users\Paul Scalise\CH592F_SSD1306\obj/../StdPeriphDriver/CH59x_uart1.c:49
}
    2f36:	0141                	addi	sp,sp,16
    2f38:	8082                	ret

00002f3a <UART1_DefInit>:
UART1_DefInit():
c:\Users\Paul Scalise\CH592F_SSD1306\obj/../StdPeriphDriver/CH59x_uart1.c:26
    UART1_BaudRateCfg(115200);
    2f3a:	6571                	lui	a0,0x1c
c:\Users\Paul Scalise\CH592F_SSD1306\obj/../StdPeriphDriver/CH59x_uart1.c:25
{
    2f3c:	1141                	addi	sp,sp,-16
c:\Users\Paul Scalise\CH592F_SSD1306\obj/../StdPeriphDriver/CH59x_uart1.c:26
    UART1_BaudRateCfg(115200);
    2f3e:	20050513          	addi	a0,a0,512 # 1c200 <_data_lma+0x155b0>
c:\Users\Paul Scalise\CH592F_SSD1306\obj/../StdPeriphDriver/CH59x_uart1.c:25
{
    2f42:	c606                	sw	ra,12(sp)
c:\Users\Paul Scalise\CH592F_SSD1306\obj/../StdPeriphDriver/CH59x_uart1.c:26
    UART1_BaudRateCfg(115200);
    2f44:	37d9                	jal	2f0a <UART1_BaudRateCfg>
c:\Users\Paul Scalise\CH592F_SSD1306\obj/../StdPeriphDriver/CH59x_uart1.c:27
    R8_UART1_FCR = (2 << 6) | RB_FCR_TX_FIFO_CLR | RB_FCR_RX_FIFO_CLR | RB_FCR_FIFO_EN; // FIFO4
    2f46:	400037b7          	lui	a5,0x40003
    2f4a:	f8700713          	li	a4,-121
    2f4e:	40e78123          	sb	a4,1026(a5) # 40003402 <_eusrstack+0x1fffcc02>
c:\Users\Paul Scalise\CH592F_SSD1306\obj/../StdPeriphDriver/CH59x_uart1.c:28
    R8_UART1_LCR = RB_LCR_WORD_SZ;
    2f52:	470d                	li	a4,3
    2f54:	40e781a3          	sb	a4,1027(a5)
c:\Users\Paul Scalise\CH592F_SSD1306\obj/../StdPeriphDriver/CH59x_uart1.c:29
    R8_UART1_IER = RB_IER_TXD_EN;
    2f58:	04000713          	li	a4,64
    2f5c:	40e780a3          	sb	a4,1025(a5)
c:\Users\Paul Scalise\CH592F_SSD1306\obj/../StdPeriphDriver/CH59x_uart1.c:30
    R8_UART1_DIV = 1;
    2f60:	4705                	li	a4,1
    2f62:	40e78723          	sb	a4,1038(a5)
c:\Users\Paul Scalise\CH592F_SSD1306\obj/../StdPeriphDriver/CH59x_uart1.c:31
}
    2f66:	40b2                	lw	ra,12(sp)
    2f68:	0141                	addi	sp,sp,16
    2f6a:	8082                	ret

00002f6c <__extendsfdf2>:
__extendsfdf2():
    2f6c:	01755713          	srli	a4,a0,0x17
    2f70:	0ff77713          	andi	a4,a4,255
    2f74:	1141                	addi	sp,sp,-16
    2f76:	00170793          	addi	a5,a4,1
    2f7a:	c422                	sw	s0,8(sp)
    2f7c:	c226                	sw	s1,4(sp)
    2f7e:	00951413          	slli	s0,a0,0x9
    2f82:	c606                	sw	ra,12(sp)
    2f84:	0fe7f793          	andi	a5,a5,254
    2f88:	8025                	srli	s0,s0,0x9
    2f8a:	01f55493          	srli	s1,a0,0x1f
    2f8e:	c785                	beqz	a5,2fb6 <__extendsfdf2+0x4a>
    2f90:	00345793          	srli	a5,s0,0x3
    2f94:	38070713          	addi	a4,a4,896
    2f98:	0476                	slli	s0,s0,0x1d
    2f9a:	07b2                	slli	a5,a5,0xc
    2f9c:	0752                	slli	a4,a4,0x14
    2f9e:	83b1                	srli	a5,a5,0xc
    2fa0:	01f49513          	slli	a0,s1,0x1f
    2fa4:	8fd9                	or	a5,a5,a4
    2fa6:	8fc9                	or	a5,a5,a0
    2fa8:	40b2                	lw	ra,12(sp)
    2faa:	8522                	mv	a0,s0
    2fac:	4422                	lw	s0,8(sp)
    2fae:	4492                	lw	s1,4(sp)
    2fb0:	85be                	mv	a1,a5
    2fb2:	0141                	addi	sp,sp,16
    2fb4:	8082                	ret
    2fb6:	eb05                	bnez	a4,2fe6 <__extendsfdf2+0x7a>
    2fb8:	c439                	beqz	s0,3006 <__extendsfdf2+0x9a>
    2fba:	8522                	mv	a0,s0
    2fbc:	28b1                	jal	3018 <__clzsi2>
    2fbe:	47a9                	li	a5,10
    2fc0:	04a7c663          	blt	a5,a0,300c <__extendsfdf2+0xa0>
    2fc4:	472d                	li	a4,11
    2fc6:	8f09                	sub	a4,a4,a0
    2fc8:	01550793          	addi	a5,a0,21
    2fcc:	00e45733          	srl	a4,s0,a4
    2fd0:	00f41433          	sll	s0,s0,a5
    2fd4:	00c71793          	slli	a5,a4,0xc
    2fd8:	38900713          	li	a4,905
    2fdc:	8f09                	sub	a4,a4,a0
    2fde:	83b1                	srli	a5,a5,0xc
    2fe0:	7ff77713          	andi	a4,a4,2047
    2fe4:	bf5d                	j	2f9a <__extendsfdf2+0x2e>
    2fe6:	cc01                	beqz	s0,2ffe <__extendsfdf2+0x92>
    2fe8:	00345713          	srli	a4,s0,0x3
    2fec:	000807b7          	lui	a5,0x80
    2ff0:	8fd9                	or	a5,a5,a4
    2ff2:	07b2                	slli	a5,a5,0xc
    2ff4:	0476                	slli	s0,s0,0x1d
    2ff6:	83b1                	srli	a5,a5,0xc
    2ff8:	7ff00713          	li	a4,2047
    2ffc:	bf79                	j	2f9a <__extendsfdf2+0x2e>
    2ffe:	7ff00713          	li	a4,2047
    3002:	4781                	li	a5,0
    3004:	bf59                	j	2f9a <__extendsfdf2+0x2e>
    3006:	4701                	li	a4,0
    3008:	4781                	li	a5,0
    300a:	bf41                	j	2f9a <__extendsfdf2+0x2e>
    300c:	ff550713          	addi	a4,a0,-11
    3010:	00e41733          	sll	a4,s0,a4
    3014:	4401                	li	s0,0
    3016:	bf7d                	j	2fd4 <__extendsfdf2+0x68>

00003018 <__clzsi2>:
__clzsi2():
    3018:	67c1                	lui	a5,0x10
    301a:	02f57e63          	bgeu	a0,a5,3056 <__clzsi2+0x3e>
    301e:	0ff00793          	li	a5,255
    3022:	02000713          	li	a4,32
    3026:	00a7ec63          	bltu	a5,a0,303e <__clzsi2+0x26>
    302a:	00004797          	auipc	a5,0x4
    302e:	a8678793          	addi	a5,a5,-1402 # 6ab0 <__clz_tab>
    3032:	97aa                	add	a5,a5,a0
    3034:	0007c503          	lbu	a0,0(a5)
    3038:	40a70533          	sub	a0,a4,a0
    303c:	8082                	ret
    303e:	8121                	srli	a0,a0,0x8
    3040:	00004797          	auipc	a5,0x4
    3044:	a7078793          	addi	a5,a5,-1424 # 6ab0 <__clz_tab>
    3048:	97aa                	add	a5,a5,a0
    304a:	0007c503          	lbu	a0,0(a5)
    304e:	4761                	li	a4,24
    3050:	40a70533          	sub	a0,a4,a0
    3054:	8082                	ret
    3056:	010007b7          	lui	a5,0x1000
    305a:	00f56e63          	bltu	a0,a5,3076 <__clzsi2+0x5e>
    305e:	8161                	srli	a0,a0,0x18
    3060:	00004797          	auipc	a5,0x4
    3064:	a5078793          	addi	a5,a5,-1456 # 6ab0 <__clz_tab>
    3068:	97aa                	add	a5,a5,a0
    306a:	0007c503          	lbu	a0,0(a5)
    306e:	4721                	li	a4,8
    3070:	40a70533          	sub	a0,a4,a0
    3074:	8082                	ret
    3076:	8141                	srli	a0,a0,0x10
    3078:	00004797          	auipc	a5,0x4
    307c:	a3878793          	addi	a5,a5,-1480 # 6ab0 <__clz_tab>
    3080:	97aa                	add	a5,a5,a0
    3082:	0007c503          	lbu	a0,0(a5)
    3086:	4741                	li	a4,16
    3088:	40a70533          	sub	a0,a4,a0
    308c:	8082                	ret

0000308e <memcpy>:
memcpy():
    308e:	00a5c7b3          	xor	a5,a1,a0
    3092:	8b8d                	andi	a5,a5,3
    3094:	00c50733          	add	a4,a0,a2
    3098:	e781                	bnez	a5,30a0 <memcpy+0x12>
    309a:	478d                	li	a5,3
    309c:	00c7ee63          	bltu	a5,a2,30b8 <memcpy+0x2a>
    30a0:	87aa                	mv	a5,a0
    30a2:	0ae57063          	bgeu	a0,a4,3142 <memcpy+0xb4>
    30a6:	0005c683          	lbu	a3,0(a1)
    30aa:	0785                	addi	a5,a5,1
    30ac:	0585                	addi	a1,a1,1
    30ae:	fed78fa3          	sb	a3,-1(a5)
    30b2:	fee7eae3          	bltu	a5,a4,30a6 <memcpy+0x18>
    30b6:	8082                	ret
    30b8:	00357693          	andi	a3,a0,3
    30bc:	87aa                	mv	a5,a0
    30be:	ca91                	beqz	a3,30d2 <memcpy+0x44>
    30c0:	0005c683          	lbu	a3,0(a1)
    30c4:	0785                	addi	a5,a5,1
    30c6:	0585                	addi	a1,a1,1
    30c8:	fed78fa3          	sb	a3,-1(a5)
    30cc:	0037f693          	andi	a3,a5,3
    30d0:	b7fd                	j	30be <memcpy+0x30>
    30d2:	ffc77693          	andi	a3,a4,-4
    30d6:	fe068613          	addi	a2,a3,-32 # 7fe0 <_data_lma+0x1390>
    30da:	06c7f063          	bgeu	a5,a2,313a <memcpy+0xac>
    30de:	0005a383          	lw	t2,0(a1)
    30e2:	0045a283          	lw	t0,4(a1)
    30e6:	0085af83          	lw	t6,8(a1)
    30ea:	00c5af03          	lw	t5,12(a1)
    30ee:	0105ae83          	lw	t4,16(a1)
    30f2:	0145ae03          	lw	t3,20(a1)
    30f6:	0185a303          	lw	t1,24(a1)
    30fa:	01c5a883          	lw	a7,28(a1)
    30fe:	02458593          	addi	a1,a1,36
    3102:	0077a023          	sw	t2,0(a5)
    3106:	ffc5a803          	lw	a6,-4(a1)
    310a:	0057a223          	sw	t0,4(a5)
    310e:	01f7a423          	sw	t6,8(a5)
    3112:	01e7a623          	sw	t5,12(a5)
    3116:	01d7a823          	sw	t4,16(a5)
    311a:	01c7aa23          	sw	t3,20(a5)
    311e:	0067ac23          	sw	t1,24(a5)
    3122:	0117ae23          	sw	a7,28(a5)
    3126:	02478793          	addi	a5,a5,36
    312a:	ff07ae23          	sw	a6,-4(a5)
    312e:	b775                	j	30da <memcpy+0x4c>
    3130:	4190                	lw	a2,0(a1)
    3132:	0791                	addi	a5,a5,4
    3134:	0591                	addi	a1,a1,4
    3136:	fec7ae23          	sw	a2,-4(a5)
    313a:	fed7ebe3          	bltu	a5,a3,3130 <memcpy+0xa2>
    313e:	f6e7e4e3          	bltu	a5,a4,30a6 <memcpy+0x18>
    3142:	8082                	ret

00003144 <iprintf>:
printf():
    3144:	7139                	addi	sp,sp,-64
    3146:	da3e                	sw	a5,52(sp)
    3148:	d22e                	sw	a1,36(sp)
    314a:	d432                	sw	a2,40(sp)
    314c:	d636                	sw	a3,44(sp)
    314e:	d83a                	sw	a4,48(sp)
    3150:	dc42                	sw	a6,56(sp)
    3152:	de46                	sw	a7,60(sp)
    3154:	20000797          	auipc	a5,0x20000
    3158:	ab078793          	addi	a5,a5,-1360 # 20002c04 <_impure_ptr>
    315c:	cc22                	sw	s0,24(sp)
    315e:	4380                	lw	s0,0(a5)
    3160:	ca26                	sw	s1,20(sp)
    3162:	ce06                	sw	ra,28(sp)
    3164:	84aa                	mv	s1,a0
    3166:	c409                	beqz	s0,3170 <iprintf+0x2c>
    3168:	4c1c                	lw	a5,24(s0)
    316a:	e399                	bnez	a5,3170 <iprintf+0x2c>
    316c:	8522                	mv	a0,s0
    316e:	2a49                	jal	3300 <__sinit>
    3170:	440c                	lw	a1,8(s0)
    3172:	1054                	addi	a3,sp,36
    3174:	8626                	mv	a2,s1
    3176:	8522                	mv	a0,s0
    3178:	c636                	sw	a3,12(sp)
    317a:	29c5                	jal	366a <_vfiprintf_r>
    317c:	40f2                	lw	ra,28(sp)
    317e:	4462                	lw	s0,24(sp)
    3180:	44d2                	lw	s1,20(sp)
    3182:	6121                	addi	sp,sp,64
    3184:	8082                	ret

00003186 <rand>:
rand():
    3186:	1141                	addi	sp,sp,-16
    3188:	20000797          	auipc	a5,0x20000
    318c:	a7c78793          	addi	a5,a5,-1412 # 20002c04 <_impure_ptr>
    3190:	c422                	sw	s0,8(sp)
    3192:	4380                	lw	s0,0(a5)
    3194:	c606                	sw	ra,12(sp)
    3196:	5c1c                	lw	a5,56(s0)
    3198:	eb95                	bnez	a5,31cc <rand+0x46>
    319a:	4561                	li	a0,24
    319c:	2ce9                	jal	3476 <malloc>
    319e:	abcd37b7          	lui	a5,0xabcd3
    31a2:	dc08                	sw	a0,56(s0)
    31a4:	30e78793          	addi	a5,a5,782 # abcd330e <_eusrstack+0x8bcccb0e>
    31a8:	c11c                	sw	a5,0(a0)
    31aa:	e66d17b7          	lui	a5,0xe66d1
    31ae:	23478793          	addi	a5,a5,564 # e66d1234 <_eusrstack+0xc66caa34>
    31b2:	c15c                	sw	a5,4(a0)
    31b4:	0005e7b7          	lui	a5,0x5e
    31b8:	eec78793          	addi	a5,a5,-276 # 5deec <_data_lma+0x5729c>
    31bc:	c51c                	sw	a5,8(a0)
    31be:	47ad                	li	a5,11
    31c0:	00f51623          	sh	a5,12(a0)
    31c4:	4705                	li	a4,1
    31c6:	4781                	li	a5,0
    31c8:	c918                	sw	a4,16(a0)
    31ca:	c95c                	sw	a5,20(a0)
    31cc:	5c10                	lw	a2,56(s0)
    31ce:	4c958737          	lui	a4,0x4c958
    31d2:	5851f7b7          	lui	a5,0x5851f
    31d6:	4a14                	lw	a3,16(a2)
    31d8:	4a48                	lw	a0,20(a2)
    31da:	f2d70713          	addi	a4,a4,-211 # 4c957f2d <_eusrstack+0x2c95172d>
    31de:	42d78793          	addi	a5,a5,1069 # 5851f42d <_eusrstack+0x38518c2d>
    31e2:	02f687b3          	mul	a5,a3,a5
    31e6:	40b2                	lw	ra,12(sp)
    31e8:	4422                	lw	s0,8(sp)
    31ea:	02e50533          	mul	a0,a0,a4
    31ee:	953e                	add	a0,a0,a5
    31f0:	02e687b3          	mul	a5,a3,a4
    31f4:	02e6b733          	mulhu	a4,a3,a4
    31f8:	00178693          	addi	a3,a5,1
    31fc:	ca14                	sw	a3,16(a2)
    31fe:	972a                	add	a4,a4,a0
    3200:	00f6b533          	sltu	a0,a3,a5
    3204:	953a                	add	a0,a0,a4
    3206:	ca48                	sw	a0,20(a2)
    3208:	0506                	slli	a0,a0,0x1
    320a:	8105                	srli	a0,a0,0x1
    320c:	0141                	addi	sp,sp,16
    320e:	8082                	ret

00003210 <strlen>:
strlen():
    3210:	87aa                	mv	a5,a0
    3212:	0785                	addi	a5,a5,1
    3214:	fff7c703          	lbu	a4,-1(a5)
    3218:	ff6d                	bnez	a4,3212 <strlen+0x2>
    321a:	40a78533          	sub	a0,a5,a0
    321e:	157d                	addi	a0,a0,-1
    3220:	8082                	ret

00003222 <strncpy>:
strncpy():
    3222:	87aa                	mv	a5,a0
    3224:	ca09                	beqz	a2,3236 <strncpy+0x14>
    3226:	0585                	addi	a1,a1,1
    3228:	fff5c703          	lbu	a4,-1(a1)
    322c:	0785                	addi	a5,a5,1
    322e:	167d                	addi	a2,a2,-1
    3230:	fee78fa3          	sb	a4,-1(a5)
    3234:	fb65                	bnez	a4,3224 <strncpy+0x2>
    3236:	963e                	add	a2,a2,a5
    3238:	00c79363          	bne	a5,a2,323e <strncpy+0x1c>
    323c:	8082                	ret
    323e:	0785                	addi	a5,a5,1
    3240:	fe078fa3          	sb	zero,-1(a5)
    3244:	bfd5                	j	3238 <strncpy+0x16>

00003246 <std>:
std():
    3246:	1141                	addi	sp,sp,-16
    3248:	c422                	sw	s0,8(sp)
    324a:	c606                	sw	ra,12(sp)
    324c:	842a                	mv	s0,a0
    324e:	00b51623          	sh	a1,12(a0)
    3252:	00c51723          	sh	a2,14(a0)
    3256:	00052023          	sw	zero,0(a0)
    325a:	00052223          	sw	zero,4(a0)
    325e:	00052423          	sw	zero,8(a0)
    3262:	06052223          	sw	zero,100(a0)
    3266:	00052823          	sw	zero,16(a0)
    326a:	00052a23          	sw	zero,20(a0)
    326e:	00052c23          	sw	zero,24(a0)
    3272:	4621                	li	a2,8
    3274:	4581                	li	a1,0
    3276:	05c50513          	addi	a0,a0,92
    327a:	9d1fd0ef          	jal	ra,c4a <memset>
    327e:	00001797          	auipc	a5,0x1
    3282:	a6a78793          	addi	a5,a5,-1430 # 3ce8 <__sread>
    3286:	d05c                	sw	a5,36(s0)
    3288:	00001797          	auipc	a5,0x1
    328c:	a9078793          	addi	a5,a5,-1392 # 3d18 <__swrite>
    3290:	d41c                	sw	a5,40(s0)
    3292:	00001797          	auipc	a5,0x1
    3296:	ad478793          	addi	a5,a5,-1324 # 3d66 <__sseek>
    329a:	d45c                	sw	a5,44(s0)
    329c:	00001797          	auipc	a5,0x1
    32a0:	b0078793          	addi	a5,a5,-1280 # 3d9c <__sclose>
    32a4:	d000                	sw	s0,32(s0)
    32a6:	d81c                	sw	a5,48(s0)
    32a8:	40b2                	lw	ra,12(sp)
    32aa:	4422                	lw	s0,8(sp)
    32ac:	0141                	addi	sp,sp,16
    32ae:	8082                	ret

000032b0 <_cleanup_r>:
_cleanup_r():
    32b0:	00001597          	auipc	a1,0x1
    32b4:	e5c58593          	addi	a1,a1,-420 # 410c <_fflush_r>
    32b8:	aa89                	j	340a <_fwalk_reent>

000032ba <__sfmoreglue>:
__sfmoreglue():
    32ba:	1141                	addi	sp,sp,-16
    32bc:	c226                	sw	s1,4(sp)
    32be:	06800613          	li	a2,104
    32c2:	fff58493          	addi	s1,a1,-1
    32c6:	02c484b3          	mul	s1,s1,a2
    32ca:	c04a                	sw	s2,0(sp)
    32cc:	892e                	mv	s2,a1
    32ce:	c422                	sw	s0,8(sp)
    32d0:	c606                	sw	ra,12(sp)
    32d2:	07448593          	addi	a1,s1,116
    32d6:	2c99                	jal	352c <_malloc_r>
    32d8:	842a                	mv	s0,a0
    32da:	cd01                	beqz	a0,32f2 <__sfmoreglue+0x38>
    32dc:	00052023          	sw	zero,0(a0)
    32e0:	01252223          	sw	s2,4(a0)
    32e4:	0531                	addi	a0,a0,12
    32e6:	c408                	sw	a0,8(s0)
    32e8:	06848613          	addi	a2,s1,104
    32ec:	4581                	li	a1,0
    32ee:	95dfd0ef          	jal	ra,c4a <memset>
    32f2:	8522                	mv	a0,s0
    32f4:	40b2                	lw	ra,12(sp)
    32f6:	4422                	lw	s0,8(sp)
    32f8:	4492                	lw	s1,4(sp)
    32fa:	4902                	lw	s2,0(sp)
    32fc:	0141                	addi	sp,sp,16
    32fe:	8082                	ret

00003300 <__sinit>:
__sinit():
    3300:	4d1c                	lw	a5,24(a0)
    3302:	e3bd                	bnez	a5,3368 <__sinit+0x68>
    3304:	1141                	addi	sp,sp,-16
    3306:	c606                	sw	ra,12(sp)
    3308:	c422                	sw	s0,8(sp)
    330a:	00000797          	auipc	a5,0x0
    330e:	fa678793          	addi	a5,a5,-90 # 32b0 <_cleanup_r>
    3312:	d51c                	sw	a5,40(a0)
    3314:	00004797          	auipc	a5,0x4
    3318:	93878793          	addi	a5,a5,-1736 # 6c4c <_global_impure_ptr>
    331c:	439c                	lw	a5,0(a5)
    331e:	04052423          	sw	zero,72(a0)
    3322:	04052623          	sw	zero,76(a0)
    3326:	04052823          	sw	zero,80(a0)
    332a:	00f51463          	bne	a0,a5,3332 <__sinit+0x32>
    332e:	4785                	li	a5,1
    3330:	cd1c                	sw	a5,24(a0)
    3332:	842a                	mv	s0,a0
    3334:	281d                	jal	336a <__sfp>
    3336:	c048                	sw	a0,4(s0)
    3338:	8522                	mv	a0,s0
    333a:	2805                	jal	336a <__sfp>
    333c:	c408                	sw	a0,8(s0)
    333e:	8522                	mv	a0,s0
    3340:	202d                	jal	336a <__sfp>
    3342:	c448                	sw	a0,12(s0)
    3344:	4048                	lw	a0,4(s0)
    3346:	4601                	li	a2,0
    3348:	4591                	li	a1,4
    334a:	3df5                	jal	3246 <std>
    334c:	4408                	lw	a0,8(s0)
    334e:	4605                	li	a2,1
    3350:	45a5                	li	a1,9
    3352:	3dd5                	jal	3246 <std>
    3354:	4448                	lw	a0,12(s0)
    3356:	4609                	li	a2,2
    3358:	45c9                	li	a1,18
    335a:	35f5                	jal	3246 <std>
    335c:	4785                	li	a5,1
    335e:	cc1c                	sw	a5,24(s0)
    3360:	40b2                	lw	ra,12(sp)
    3362:	4422                	lw	s0,8(sp)
    3364:	0141                	addi	sp,sp,16
    3366:	8082                	ret
    3368:	8082                	ret

0000336a <__sfp>:
__sfp():
    336a:	1141                	addi	sp,sp,-16
    336c:	00004797          	auipc	a5,0x4
    3370:	8e078793          	addi	a5,a5,-1824 # 6c4c <_global_impure_ptr>
    3374:	c226                	sw	s1,4(sp)
    3376:	4384                	lw	s1,0(a5)
    3378:	c04a                	sw	s2,0(sp)
    337a:	c606                	sw	ra,12(sp)
    337c:	4c9c                	lw	a5,24(s1)
    337e:	c422                	sw	s0,8(sp)
    3380:	892a                	mv	s2,a0
    3382:	e399                	bnez	a5,3388 <__sfp+0x1e>
    3384:	8526                	mv	a0,s1
    3386:	3fad                	jal	3300 <__sinit>
    3388:	04848493          	addi	s1,s1,72
    338c:	4480                	lw	s0,8(s1)
    338e:	40dc                	lw	a5,4(s1)
    3390:	17fd                	addi	a5,a5,-1
    3392:	0007d663          	bgez	a5,339e <__sfp+0x34>
    3396:	409c                	lw	a5,0(s1)
    3398:	cfb9                	beqz	a5,33f6 <__sfp+0x8c>
    339a:	4084                	lw	s1,0(s1)
    339c:	bfc5                	j	338c <__sfp+0x22>
    339e:	00c41703          	lh	a4,12(s0)
    33a2:	e739                	bnez	a4,33f0 <__sfp+0x86>
    33a4:	77c1                	lui	a5,0xffff0
    33a6:	0785                	addi	a5,a5,1
    33a8:	06042223          	sw	zero,100(s0)
    33ac:	00042023          	sw	zero,0(s0)
    33b0:	00042223          	sw	zero,4(s0)
    33b4:	00042423          	sw	zero,8(s0)
    33b8:	c45c                	sw	a5,12(s0)
    33ba:	00042823          	sw	zero,16(s0)
    33be:	00042a23          	sw	zero,20(s0)
    33c2:	00042c23          	sw	zero,24(s0)
    33c6:	4621                	li	a2,8
    33c8:	4581                	li	a1,0
    33ca:	05c40513          	addi	a0,s0,92
    33ce:	87dfd0ef          	jal	ra,c4a <memset>
    33d2:	02042a23          	sw	zero,52(s0)
    33d6:	02042c23          	sw	zero,56(s0)
    33da:	04042423          	sw	zero,72(s0)
    33de:	04042623          	sw	zero,76(s0)
    33e2:	8522                	mv	a0,s0
    33e4:	40b2                	lw	ra,12(sp)
    33e6:	4422                	lw	s0,8(sp)
    33e8:	4492                	lw	s1,4(sp)
    33ea:	4902                	lw	s2,0(sp)
    33ec:	0141                	addi	sp,sp,16
    33ee:	8082                	ret
    33f0:	06840413          	addi	s0,s0,104
    33f4:	bf71                	j	3390 <__sfp+0x26>
    33f6:	4591                	li	a1,4
    33f8:	854a                	mv	a0,s2
    33fa:	35c1                	jal	32ba <__sfmoreglue>
    33fc:	c088                	sw	a0,0(s1)
    33fe:	fd51                	bnez	a0,339a <__sfp+0x30>
    3400:	47b1                	li	a5,12
    3402:	00f92023          	sw	a5,0(s2)
    3406:	4401                	li	s0,0
    3408:	bfe9                	j	33e2 <__sfp+0x78>

0000340a <_fwalk_reent>:
_fwalk_reent():
    340a:	7179                	addi	sp,sp,-48
    340c:	d422                	sw	s0,40(sp)
    340e:	d04a                	sw	s2,32(sp)
    3410:	cc52                	sw	s4,24(sp)
    3412:	ca56                	sw	s5,20(sp)
    3414:	c85a                	sw	s6,16(sp)
    3416:	c65e                	sw	s7,12(sp)
    3418:	d606                	sw	ra,44(sp)
    341a:	d226                	sw	s1,36(sp)
    341c:	ce4e                	sw	s3,28(sp)
    341e:	8a2a                	mv	s4,a0
    3420:	8aae                	mv	s5,a1
    3422:	04850413          	addi	s0,a0,72
    3426:	4901                	li	s2,0
    3428:	4b05                	li	s6,1
    342a:	5bfd                	li	s7,-1
    342c:	ec09                	bnez	s0,3446 <_fwalk_reent+0x3c>
    342e:	50b2                	lw	ra,44(sp)
    3430:	5422                	lw	s0,40(sp)
    3432:	854a                	mv	a0,s2
    3434:	5492                	lw	s1,36(sp)
    3436:	5902                	lw	s2,32(sp)
    3438:	49f2                	lw	s3,28(sp)
    343a:	4a62                	lw	s4,24(sp)
    343c:	4ad2                	lw	s5,20(sp)
    343e:	4b42                	lw	s6,16(sp)
    3440:	4bb2                	lw	s7,12(sp)
    3442:	6145                	addi	sp,sp,48
    3444:	8082                	ret
    3446:	4404                	lw	s1,8(s0)
    3448:	00442983          	lw	s3,4(s0)
    344c:	19fd                	addi	s3,s3,-1
    344e:	0009d463          	bgez	s3,3456 <_fwalk_reent+0x4c>
    3452:	4000                	lw	s0,0(s0)
    3454:	bfe1                	j	342c <_fwalk_reent+0x22>
    3456:	00c4d783          	lhu	a5,12(s1)
    345a:	00fb7b63          	bgeu	s6,a5,3470 <_fwalk_reent+0x66>
    345e:	00e49783          	lh	a5,14(s1)
    3462:	01778763          	beq	a5,s7,3470 <_fwalk_reent+0x66>
    3466:	85a6                	mv	a1,s1
    3468:	8552                	mv	a0,s4
    346a:	9a82                	jalr	s5
    346c:	00a96933          	or	s2,s2,a0
    3470:	06848493          	addi	s1,s1,104
    3474:	bfe1                	j	344c <_fwalk_reent+0x42>

00003476 <malloc>:
malloc():
    3476:	1ffff797          	auipc	a5,0x1ffff
    347a:	78e78793          	addi	a5,a5,1934 # 20002c04 <_impure_ptr>
    347e:	85aa                	mv	a1,a0
    3480:	4388                	lw	a0,0(a5)
    3482:	a06d                	j	352c <_malloc_r>

00003484 <_free_r>:
_free_r():
    3484:	c1dd                	beqz	a1,352a <_free_r+0xa6>
    3486:	ffc5a783          	lw	a5,-4(a1)
    348a:	1141                	addi	sp,sp,-16
    348c:	c422                	sw	s0,8(sp)
    348e:	c606                	sw	ra,12(sp)
    3490:	c226                	sw	s1,4(sp)
    3492:	ffc58413          	addi	s0,a1,-4
    3496:	0007d363          	bgez	a5,349c <_free_r+0x18>
    349a:	943e                	add	s0,s0,a5
    349c:	84aa                	mv	s1,a0
    349e:	611000ef          	jal	ra,42ae <__malloc_lock>
    34a2:	81818793          	addi	a5,gp,-2024 # 20002c18 <__malloc_free_list>
    34a6:	439c                	lw	a5,0(a5)
    34a8:	ef81                	bnez	a5,34c0 <_free_r+0x3c>
    34aa:	00042223          	sw	zero,4(s0)
    34ae:	8081ac23          	sw	s0,-2024(gp) # 20002c18 <__malloc_free_list>
    34b2:	4422                	lw	s0,8(sp)
    34b4:	40b2                	lw	ra,12(sp)
    34b6:	8526                	mv	a0,s1
    34b8:	4492                	lw	s1,4(sp)
    34ba:	0141                	addi	sp,sp,16
    34bc:	5f50006f          	j	42b0 <__malloc_unlock>
    34c0:	00f47e63          	bgeu	s0,a5,34dc <_free_r+0x58>
    34c4:	4014                	lw	a3,0(s0)
    34c6:	00d40733          	add	a4,s0,a3
    34ca:	00e79663          	bne	a5,a4,34d6 <_free_r+0x52>
    34ce:	4398                	lw	a4,0(a5)
    34d0:	43dc                	lw	a5,4(a5)
    34d2:	9736                	add	a4,a4,a3
    34d4:	c018                	sw	a4,0(s0)
    34d6:	c05c                	sw	a5,4(s0)
    34d8:	bfd9                	j	34ae <_free_r+0x2a>
    34da:	87ba                	mv	a5,a4
    34dc:	43d8                	lw	a4,4(a5)
    34de:	c319                	beqz	a4,34e4 <_free_r+0x60>
    34e0:	fee47de3          	bgeu	s0,a4,34da <_free_r+0x56>
    34e4:	4394                	lw	a3,0(a5)
    34e6:	00d78633          	add	a2,a5,a3
    34ea:	00861f63          	bne	a2,s0,3508 <_free_r+0x84>
    34ee:	4010                	lw	a2,0(s0)
    34f0:	96b2                	add	a3,a3,a2
    34f2:	c394                	sw	a3,0(a5)
    34f4:	00d78633          	add	a2,a5,a3
    34f8:	fac71de3          	bne	a4,a2,34b2 <_free_r+0x2e>
    34fc:	4310                	lw	a2,0(a4)
    34fe:	4358                	lw	a4,4(a4)
    3500:	96b2                	add	a3,a3,a2
    3502:	c394                	sw	a3,0(a5)
    3504:	c3d8                	sw	a4,4(a5)
    3506:	b775                	j	34b2 <_free_r+0x2e>
    3508:	00c47563          	bgeu	s0,a2,3512 <_free_r+0x8e>
    350c:	47b1                	li	a5,12
    350e:	c09c                	sw	a5,0(s1)
    3510:	b74d                	j	34b2 <_free_r+0x2e>
    3512:	4010                	lw	a2,0(s0)
    3514:	00c406b3          	add	a3,s0,a2
    3518:	00d71663          	bne	a4,a3,3524 <_free_r+0xa0>
    351c:	4314                	lw	a3,0(a4)
    351e:	4358                	lw	a4,4(a4)
    3520:	96b2                	add	a3,a3,a2
    3522:	c014                	sw	a3,0(s0)
    3524:	c058                	sw	a4,4(s0)
    3526:	c3c0                	sw	s0,4(a5)
    3528:	b769                	j	34b2 <_free_r+0x2e>
    352a:	8082                	ret

0000352c <_malloc_r>:
_malloc_r():
    352c:	1101                	addi	sp,sp,-32
    352e:	ca26                	sw	s1,20(sp)
    3530:	00358493          	addi	s1,a1,3
    3534:	98f1                	andi	s1,s1,-4
    3536:	ce06                	sw	ra,28(sp)
    3538:	cc22                	sw	s0,24(sp)
    353a:	c84a                	sw	s2,16(sp)
    353c:	c64e                	sw	s3,12(sp)
    353e:	04a1                	addi	s1,s1,8
    3540:	47b1                	li	a5,12
    3542:	04f4f363          	bgeu	s1,a5,3588 <_malloc_r+0x5c>
    3546:	44b1                	li	s1,12
    3548:	04b4e263          	bltu	s1,a1,358c <_malloc_r+0x60>
    354c:	892a                	mv	s2,a0
    354e:	561000ef          	jal	ra,42ae <__malloc_lock>
    3552:	81818793          	addi	a5,gp,-2024 # 20002c18 <__malloc_free_list>
    3556:	4398                	lw	a4,0(a5)
    3558:	843a                	mv	s0,a4
    355a:	e039                	bnez	s0,35a0 <_malloc_r+0x74>
    355c:	81c18793          	addi	a5,gp,-2020 # 20002c1c <__malloc_sbrk_start>
    3560:	439c                	lw	a5,0(a5)
    3562:	e791                	bnez	a5,356e <_malloc_r+0x42>
    3564:	4581                	li	a1,0
    3566:	854a                	mv	a0,s2
    3568:	2f99                	jal	3cbe <_sbrk_r>
    356a:	80a1ae23          	sw	a0,-2020(gp) # 20002c1c <__malloc_sbrk_start>
    356e:	85a6                	mv	a1,s1
    3570:	854a                	mv	a0,s2
    3572:	27b1                	jal	3cbe <_sbrk_r>
    3574:	59fd                	li	s3,-1
    3576:	07351963          	bne	a0,s3,35e8 <_malloc_r+0xbc>
    357a:	47b1                	li	a5,12
    357c:	00f92023          	sw	a5,0(s2)
    3580:	854a                	mv	a0,s2
    3582:	52f000ef          	jal	ra,42b0 <__malloc_unlock>
    3586:	a029                	j	3590 <_malloc_r+0x64>
    3588:	fc04d0e3          	bgez	s1,3548 <_malloc_r+0x1c>
    358c:	47b1                	li	a5,12
    358e:	c11c                	sw	a5,0(a0)
    3590:	4501                	li	a0,0
    3592:	40f2                	lw	ra,28(sp)
    3594:	4462                	lw	s0,24(sp)
    3596:	44d2                	lw	s1,20(sp)
    3598:	4942                	lw	s2,16(sp)
    359a:	49b2                	lw	s3,12(sp)
    359c:	6105                	addi	sp,sp,32
    359e:	8082                	ret
    35a0:	401c                	lw	a5,0(s0)
    35a2:	8f85                	sub	a5,a5,s1
    35a4:	0207cf63          	bltz	a5,35e2 <_malloc_r+0xb6>
    35a8:	46ad                	li	a3,11
    35aa:	00f6f663          	bgeu	a3,a5,35b6 <_malloc_r+0x8a>
    35ae:	c01c                	sw	a5,0(s0)
    35b0:	943e                	add	s0,s0,a5
    35b2:	c004                	sw	s1,0(s0)
    35b4:	a031                	j	35c0 <_malloc_r+0x94>
    35b6:	405c                	lw	a5,4(s0)
    35b8:	02871363          	bne	a4,s0,35de <_malloc_r+0xb2>
    35bc:	80f1ac23          	sw	a5,-2024(gp) # 20002c18 <__malloc_free_list>
    35c0:	854a                	mv	a0,s2
    35c2:	4ef000ef          	jal	ra,42b0 <__malloc_unlock>
    35c6:	00b40513          	addi	a0,s0,11
    35ca:	00440793          	addi	a5,s0,4
    35ce:	9961                	andi	a0,a0,-8
    35d0:	40f50733          	sub	a4,a0,a5
    35d4:	df5d                	beqz	a4,3592 <_malloc_r+0x66>
    35d6:	943a                	add	s0,s0,a4
    35d8:	8f89                	sub	a5,a5,a0
    35da:	c01c                	sw	a5,0(s0)
    35dc:	bf5d                	j	3592 <_malloc_r+0x66>
    35de:	c35c                	sw	a5,4(a4)
    35e0:	b7c5                	j	35c0 <_malloc_r+0x94>
    35e2:	8722                	mv	a4,s0
    35e4:	4040                	lw	s0,4(s0)
    35e6:	bf95                	j	355a <_malloc_r+0x2e>
    35e8:	00350413          	addi	s0,a0,3
    35ec:	9871                	andi	s0,s0,-4
    35ee:	fc8502e3          	beq	a0,s0,35b2 <_malloc_r+0x86>
    35f2:	40a405b3          	sub	a1,s0,a0
    35f6:	854a                	mv	a0,s2
    35f8:	25d9                	jal	3cbe <_sbrk_r>
    35fa:	fb351ce3          	bne	a0,s3,35b2 <_malloc_r+0x86>
    35fe:	bfb5                	j	357a <_malloc_r+0x4e>

00003600 <__sfputc_r>:
__sfputc_r():
    3600:	461c                	lw	a5,8(a2)
    3602:	17fd                	addi	a5,a5,-1
    3604:	c61c                	sw	a5,8(a2)
    3606:	0007d963          	bgez	a5,3618 <__sfputc_r+0x18>
    360a:	4e18                	lw	a4,24(a2)
    360c:	00e7c563          	blt	a5,a4,3616 <__sfputc_r+0x16>
    3610:	47a9                	li	a5,10
    3612:	00f59363          	bne	a1,a5,3618 <__sfputc_r+0x18>
    3616:	a771                	j	3da2 <__swbuf_r>
    3618:	421c                	lw	a5,0(a2)
    361a:	852e                	mv	a0,a1
    361c:	00178713          	addi	a4,a5,1
    3620:	c218                	sw	a4,0(a2)
    3622:	00b78023          	sb	a1,0(a5)
    3626:	8082                	ret

00003628 <__sfputs_r>:
__sfputs_r():
    3628:	1101                	addi	sp,sp,-32
    362a:	cc22                	sw	s0,24(sp)
    362c:	ca26                	sw	s1,20(sp)
    362e:	c84a                	sw	s2,16(sp)
    3630:	c64e                	sw	s3,12(sp)
    3632:	c452                	sw	s4,8(sp)
    3634:	ce06                	sw	ra,28(sp)
    3636:	892a                	mv	s2,a0
    3638:	89ae                	mv	s3,a1
    363a:	8432                	mv	s0,a2
    363c:	00d604b3          	add	s1,a2,a3
    3640:	5a7d                	li	s4,-1
    3642:	00941463          	bne	s0,s1,364a <__sfputs_r+0x22>
    3646:	4501                	li	a0,0
    3648:	a809                	j	365a <__sfputs_r+0x32>
    364a:	00044583          	lbu	a1,0(s0)
    364e:	864e                	mv	a2,s3
    3650:	854a                	mv	a0,s2
    3652:	377d                	jal	3600 <__sfputc_r>
    3654:	0405                	addi	s0,s0,1
    3656:	ff4516e3          	bne	a0,s4,3642 <__sfputs_r+0x1a>
    365a:	40f2                	lw	ra,28(sp)
    365c:	4462                	lw	s0,24(sp)
    365e:	44d2                	lw	s1,20(sp)
    3660:	4942                	lw	s2,16(sp)
    3662:	49b2                	lw	s3,12(sp)
    3664:	4a22                	lw	s4,8(sp)
    3666:	6105                	addi	sp,sp,32
    3668:	8082                	ret

0000366a <_vfiprintf_r>:
_vfiprintf_r():
    366a:	7135                	addi	sp,sp,-160
    366c:	cd22                	sw	s0,152(sp)
    366e:	cb26                	sw	s1,148(sp)
    3670:	c94a                	sw	s2,144(sp)
    3672:	c74e                	sw	s3,140(sp)
    3674:	cf06                	sw	ra,156(sp)
    3676:	c552                	sw	s4,136(sp)
    3678:	c356                	sw	s5,132(sp)
    367a:	c15a                	sw	s6,128(sp)
    367c:	dede                	sw	s7,124(sp)
    367e:	dce2                	sw	s8,120(sp)
    3680:	dae6                	sw	s9,116(sp)
    3682:	89aa                	mv	s3,a0
    3684:	84ae                	mv	s1,a1
    3686:	8932                	mv	s2,a2
    3688:	8436                	mv	s0,a3
    368a:	c509                	beqz	a0,3694 <_vfiprintf_r+0x2a>
    368c:	4d1c                	lw	a5,24(a0)
    368e:	e399                	bnez	a5,3694 <_vfiprintf_r+0x2a>
    3690:	c71ff0ef          	jal	ra,3300 <__sinit>
    3694:	00003797          	auipc	a5,0x3
    3698:	53c78793          	addi	a5,a5,1340 # 6bd0 <__sf_fake_stdin>
    369c:	0cf49c63          	bne	s1,a5,3774 <_vfiprintf_r+0x10a>
    36a0:	0049a483          	lw	s1,4(s3)
    36a4:	00c4d783          	lhu	a5,12(s1)
    36a8:	8ba1                	andi	a5,a5,8
    36aa:	c7fd                	beqz	a5,3798 <_vfiprintf_r+0x12e>
    36ac:	489c                	lw	a5,16(s1)
    36ae:	c7ed                	beqz	a5,3798 <_vfiprintf_r+0x12e>
    36b0:	02000793          	li	a5,32
    36b4:	02f104a3          	sb	a5,41(sp)
    36b8:	03000793          	li	a5,48
    36bc:	d202                	sw	zero,36(sp)
    36be:	02f10523          	sb	a5,42(sp)
    36c2:	c622                	sw	s0,12(sp)
    36c4:	02500b93          	li	s7,37
    36c8:	00003a97          	auipc	s5,0x3
    36cc:	548a8a93          	addi	s5,s5,1352 # 6c10 <__sf_fake_stdout+0x20>
    36d0:	4c05                	li	s8,1
    36d2:	4b29                	li	s6,10
    36d4:	844a                	mv	s0,s2
    36d6:	00044783          	lbu	a5,0(s0)
    36da:	c399                	beqz	a5,36e0 <_vfiprintf_r+0x76>
    36dc:	0f779063          	bne	a5,s7,37bc <_vfiprintf_r+0x152>
    36e0:	41240cb3          	sub	s9,s0,s2
    36e4:	000c8d63          	beqz	s9,36fe <_vfiprintf_r+0x94>
    36e8:	86e6                	mv	a3,s9
    36ea:	864a                	mv	a2,s2
    36ec:	85a6                	mv	a1,s1
    36ee:	854e                	mv	a0,s3
    36f0:	3f25                	jal	3628 <__sfputs_r>
    36f2:	57fd                	li	a5,-1
    36f4:	1ef50863          	beq	a0,a5,38e4 <_vfiprintf_r+0x27a>
    36f8:	5692                	lw	a3,36(sp)
    36fa:	96e6                	add	a3,a3,s9
    36fc:	d236                	sw	a3,36(sp)
    36fe:	00044783          	lbu	a5,0(s0)
    3702:	1e078163          	beqz	a5,38e4 <_vfiprintf_r+0x27a>
    3706:	57fd                	li	a5,-1
    3708:	00140913          	addi	s2,s0,1
    370c:	c802                	sw	zero,16(sp)
    370e:	ce02                	sw	zero,28(sp)
    3710:	ca3e                	sw	a5,20(sp)
    3712:	cc02                	sw	zero,24(sp)
    3714:	040109a3          	sb	zero,83(sp)
    3718:	d482                	sw	zero,104(sp)
    371a:	00094583          	lbu	a1,0(s2)
    371e:	4615                	li	a2,5
    3720:	8556                	mv	a0,s5
    3722:	373000ef          	jal	ra,4294 <memchr>
    3726:	00190413          	addi	s0,s2,1
    372a:	47c2                	lw	a5,16(sp)
    372c:	e951                	bnez	a0,37c0 <_vfiprintf_r+0x156>
    372e:	0107f713          	andi	a4,a5,16
    3732:	c709                	beqz	a4,373c <_vfiprintf_r+0xd2>
    3734:	02000713          	li	a4,32
    3738:	04e109a3          	sb	a4,83(sp)
    373c:	0087f713          	andi	a4,a5,8
    3740:	c709                	beqz	a4,374a <_vfiprintf_r+0xe0>
    3742:	02b00713          	li	a4,43
    3746:	04e109a3          	sb	a4,83(sp)
    374a:	00094683          	lbu	a3,0(s2)
    374e:	02a00713          	li	a4,42
    3752:	06e68f63          	beq	a3,a4,37d0 <_vfiprintf_r+0x166>
    3756:	47f2                	lw	a5,28(sp)
    3758:	844a                	mv	s0,s2
    375a:	4681                	li	a3,0
    375c:	4625                	li	a2,9
    375e:	00044703          	lbu	a4,0(s0)
    3762:	00140593          	addi	a1,s0,1
    3766:	fd070713          	addi	a4,a4,-48
    376a:	0ae67863          	bgeu	a2,a4,381a <_vfiprintf_r+0x1b0>
    376e:	caad                	beqz	a3,37e0 <_vfiprintf_r+0x176>
    3770:	ce3e                	sw	a5,28(sp)
    3772:	a0bd                	j	37e0 <_vfiprintf_r+0x176>
    3774:	00003797          	auipc	a5,0x3
    3778:	47c78793          	addi	a5,a5,1148 # 6bf0 <__sf_fake_stdout>
    377c:	00f49563          	bne	s1,a5,3786 <_vfiprintf_r+0x11c>
    3780:	0089a483          	lw	s1,8(s3)
    3784:	b705                	j	36a4 <_vfiprintf_r+0x3a>
    3786:	00003797          	auipc	a5,0x3
    378a:	42a78793          	addi	a5,a5,1066 # 6bb0 <__sf_fake_stderr>
    378e:	f0f49be3          	bne	s1,a5,36a4 <_vfiprintf_r+0x3a>
    3792:	00c9a483          	lw	s1,12(s3)
    3796:	b739                	j	36a4 <_vfiprintf_r+0x3a>
    3798:	85a6                	mv	a1,s1
    379a:	854e                	mv	a0,s3
    379c:	2ddd                	jal	3e92 <__swsetup_r>
    379e:	d909                	beqz	a0,36b0 <_vfiprintf_r+0x46>
    37a0:	557d                	li	a0,-1
    37a2:	40fa                	lw	ra,156(sp)
    37a4:	446a                	lw	s0,152(sp)
    37a6:	44da                	lw	s1,148(sp)
    37a8:	494a                	lw	s2,144(sp)
    37aa:	49ba                	lw	s3,140(sp)
    37ac:	4a2a                	lw	s4,136(sp)
    37ae:	4a9a                	lw	s5,132(sp)
    37b0:	4b0a                	lw	s6,128(sp)
    37b2:	5bf6                	lw	s7,124(sp)
    37b4:	5c66                	lw	s8,120(sp)
    37b6:	5cd6                	lw	s9,116(sp)
    37b8:	610d                	addi	sp,sp,160
    37ba:	8082                	ret
    37bc:	0405                	addi	s0,s0,1
    37be:	bf21                	j	36d6 <_vfiprintf_r+0x6c>
    37c0:	41550533          	sub	a0,a0,s5
    37c4:	00ac1533          	sll	a0,s8,a0
    37c8:	8fc9                	or	a5,a5,a0
    37ca:	c83e                	sw	a5,16(sp)
    37cc:	8922                	mv	s2,s0
    37ce:	b7b1                	j	371a <_vfiprintf_r+0xb0>
    37d0:	4732                	lw	a4,12(sp)
    37d2:	00470693          	addi	a3,a4,4
    37d6:	4318                	lw	a4,0(a4)
    37d8:	c636                	sw	a3,12(sp)
    37da:	02074963          	bltz	a4,380c <_vfiprintf_r+0x1a2>
    37de:	ce3a                	sw	a4,28(sp)
    37e0:	00044703          	lbu	a4,0(s0)
    37e4:	02e00793          	li	a5,46
    37e8:	04f71f63          	bne	a4,a5,3846 <_vfiprintf_r+0x1dc>
    37ec:	00144703          	lbu	a4,1(s0)
    37f0:	02a00793          	li	a5,42
    37f4:	02f71b63          	bne	a4,a5,382a <_vfiprintf_r+0x1c0>
    37f8:	47b2                	lw	a5,12(sp)
    37fa:	0409                	addi	s0,s0,2
    37fc:	00478713          	addi	a4,a5,4
    3800:	439c                	lw	a5,0(a5)
    3802:	c63a                	sw	a4,12(sp)
    3804:	0207c163          	bltz	a5,3826 <_vfiprintf_r+0x1bc>
    3808:	ca3e                	sw	a5,20(sp)
    380a:	a835                	j	3846 <_vfiprintf_r+0x1dc>
    380c:	40e00733          	neg	a4,a4
    3810:	0027e793          	ori	a5,a5,2
    3814:	ce3a                	sw	a4,28(sp)
    3816:	c83e                	sw	a5,16(sp)
    3818:	b7e1                	j	37e0 <_vfiprintf_r+0x176>
    381a:	036787b3          	mul	a5,a5,s6
    381e:	4685                	li	a3,1
    3820:	842e                	mv	s0,a1
    3822:	97ba                	add	a5,a5,a4
    3824:	bf2d                	j	375e <_vfiprintf_r+0xf4>
    3826:	57fd                	li	a5,-1
    3828:	b7c5                	j	3808 <_vfiprintf_r+0x19e>
    382a:	0405                	addi	s0,s0,1
    382c:	ca02                	sw	zero,20(sp)
    382e:	4681                	li	a3,0
    3830:	4781                	li	a5,0
    3832:	4625                	li	a2,9
    3834:	00044703          	lbu	a4,0(s0)
    3838:	00140593          	addi	a1,s0,1
    383c:	fd070713          	addi	a4,a4,-48
    3840:	06e67863          	bgeu	a2,a4,38b0 <_vfiprintf_r+0x246>
    3844:	f2f1                	bnez	a3,3808 <_vfiprintf_r+0x19e>
    3846:	00044583          	lbu	a1,0(s0)
    384a:	460d                	li	a2,3
    384c:	00003517          	auipc	a0,0x3
    3850:	3cc50513          	addi	a0,a0,972 # 6c18 <__sf_fake_stdout+0x28>
    3854:	241000ef          	jal	ra,4294 <memchr>
    3858:	cd11                	beqz	a0,3874 <_vfiprintf_r+0x20a>
    385a:	00003797          	auipc	a5,0x3
    385e:	3be78793          	addi	a5,a5,958 # 6c18 <__sf_fake_stdout+0x28>
    3862:	8d1d                	sub	a0,a0,a5
    3864:	04000793          	li	a5,64
    3868:	00a797b3          	sll	a5,a5,a0
    386c:	4542                	lw	a0,16(sp)
    386e:	0405                	addi	s0,s0,1
    3870:	8d5d                	or	a0,a0,a5
    3872:	c82a                	sw	a0,16(sp)
    3874:	00044583          	lbu	a1,0(s0)
    3878:	4619                	li	a2,6
    387a:	00003517          	auipc	a0,0x3
    387e:	3a250513          	addi	a0,a0,930 # 6c1c <__sf_fake_stdout+0x2c>
    3882:	00140913          	addi	s2,s0,1
    3886:	02b10423          	sb	a1,40(sp)
    388a:	20b000ef          	jal	ra,4294 <memchr>
    388e:	c13d                	beqz	a0,38f4 <_vfiprintf_r+0x28a>
    3890:	ffffc797          	auipc	a5,0xffffc
    3894:	77078793          	addi	a5,a5,1904 # 0 <_sinit>
    3898:	e795                	bnez	a5,38c4 <_vfiprintf_r+0x25a>
    389a:	4742                	lw	a4,16(sp)
    389c:	47b2                	lw	a5,12(sp)
    389e:	10077713          	andi	a4,a4,256
    38a2:	cf09                	beqz	a4,38bc <_vfiprintf_r+0x252>
    38a4:	0791                	addi	a5,a5,4
    38a6:	c63e                	sw	a5,12(sp)
    38a8:	5792                	lw	a5,36(sp)
    38aa:	97d2                	add	a5,a5,s4
    38ac:	d23e                	sw	a5,36(sp)
    38ae:	b51d                	j	36d4 <_vfiprintf_r+0x6a>
    38b0:	036787b3          	mul	a5,a5,s6
    38b4:	4685                	li	a3,1
    38b6:	842e                	mv	s0,a1
    38b8:	97ba                	add	a5,a5,a4
    38ba:	bfad                	j	3834 <_vfiprintf_r+0x1ca>
    38bc:	079d                	addi	a5,a5,7
    38be:	9be1                	andi	a5,a5,-8
    38c0:	07a1                	addi	a5,a5,8
    38c2:	b7d5                	j	38a6 <_vfiprintf_r+0x23c>
    38c4:	0078                	addi	a4,sp,12
    38c6:	00000697          	auipc	a3,0x0
    38ca:	d6268693          	addi	a3,a3,-670 # 3628 <__sfputs_r>
    38ce:	8626                	mv	a2,s1
    38d0:	080c                	addi	a1,sp,16
    38d2:	854e                	mv	a0,s3
    38d4:	00000097          	auipc	ra,0x0
    38d8:	000000e7          	jalr	zero # 0 <_sinit>
    38dc:	57fd                	li	a5,-1
    38de:	8a2a                	mv	s4,a0
    38e0:	fcf514e3          	bne	a0,a5,38a8 <_vfiprintf_r+0x23e>
    38e4:	00c4d783          	lhu	a5,12(s1)
    38e8:	0407f793          	andi	a5,a5,64
    38ec:	ea079ae3          	bnez	a5,37a0 <_vfiprintf_r+0x136>
    38f0:	5512                	lw	a0,36(sp)
    38f2:	bd45                	j	37a2 <_vfiprintf_r+0x138>
    38f4:	0078                	addi	a4,sp,12
    38f6:	00000697          	auipc	a3,0x0
    38fa:	d3268693          	addi	a3,a3,-718 # 3628 <__sfputs_r>
    38fe:	8626                	mv	a2,s1
    3900:	080c                	addi	a1,sp,16
    3902:	854e                	mv	a0,s3
    3904:	2a01                	jal	3a14 <_printf_i>
    3906:	bfd9                	j	38dc <_vfiprintf_r+0x272>

00003908 <_printf_common>:
_printf_common():
    3908:	7179                	addi	sp,sp,-48
    390a:	ca56                	sw	s5,20(sp)
    390c:	499c                	lw	a5,16(a1)
    390e:	8aba                	mv	s5,a4
    3910:	4598                	lw	a4,8(a1)
    3912:	d422                	sw	s0,40(sp)
    3914:	d226                	sw	s1,36(sp)
    3916:	ce4e                	sw	s3,28(sp)
    3918:	cc52                	sw	s4,24(sp)
    391a:	d606                	sw	ra,44(sp)
    391c:	d04a                	sw	s2,32(sp)
    391e:	c85a                	sw	s6,16(sp)
    3920:	c65e                	sw	s7,12(sp)
    3922:	89aa                	mv	s3,a0
    3924:	842e                	mv	s0,a1
    3926:	84b2                	mv	s1,a2
    3928:	8a36                	mv	s4,a3
    392a:	00e7d363          	bge	a5,a4,3930 <_printf_common+0x28>
    392e:	87ba                	mv	a5,a4
    3930:	c09c                	sw	a5,0(s1)
    3932:	04344703          	lbu	a4,67(s0)
    3936:	c319                	beqz	a4,393c <_printf_common+0x34>
    3938:	0785                	addi	a5,a5,1
    393a:	c09c                	sw	a5,0(s1)
    393c:	401c                	lw	a5,0(s0)
    393e:	0207f793          	andi	a5,a5,32
    3942:	c781                	beqz	a5,394a <_printf_common+0x42>
    3944:	409c                	lw	a5,0(s1)
    3946:	0789                	addi	a5,a5,2
    3948:	c09c                	sw	a5,0(s1)
    394a:	00042903          	lw	s2,0(s0)
    394e:	00697913          	andi	s2,s2,6
    3952:	00091a63          	bnez	s2,3966 <_printf_common+0x5e>
    3956:	01940b13          	addi	s6,s0,25
    395a:	5bfd                	li	s7,-1
    395c:	445c                	lw	a5,12(s0)
    395e:	4098                	lw	a4,0(s1)
    3960:	8f99                	sub	a5,a5,a4
    3962:	04f94c63          	blt	s2,a5,39ba <_printf_common+0xb2>
    3966:	401c                	lw	a5,0(s0)
    3968:	04344683          	lbu	a3,67(s0)
    396c:	0207f793          	andi	a5,a5,32
    3970:	00d036b3          	snez	a3,a3
    3974:	eba5                	bnez	a5,39e4 <_printf_common+0xdc>
    3976:	04340613          	addi	a2,s0,67
    397a:	85d2                	mv	a1,s4
    397c:	854e                	mv	a0,s3
    397e:	9a82                	jalr	s5
    3980:	57fd                	li	a5,-1
    3982:	04f50363          	beq	a0,a5,39c8 <_printf_common+0xc0>
    3986:	401c                	lw	a5,0(s0)
    3988:	4611                	li	a2,4
    398a:	4098                	lw	a4,0(s1)
    398c:	8b99                	andi	a5,a5,6
    398e:	4454                	lw	a3,12(s0)
    3990:	4481                	li	s1,0
    3992:	00c79763          	bne	a5,a2,39a0 <_printf_common+0x98>
    3996:	40e684b3          	sub	s1,a3,a4
    399a:	0004d363          	bgez	s1,39a0 <_printf_common+0x98>
    399e:	4481                	li	s1,0
    39a0:	441c                	lw	a5,8(s0)
    39a2:	4818                	lw	a4,16(s0)
    39a4:	00f75463          	bge	a4,a5,39ac <_printf_common+0xa4>
    39a8:	8f99                	sub	a5,a5,a4
    39aa:	94be                	add	s1,s1,a5
    39ac:	4901                	li	s2,0
    39ae:	0469                	addi	s0,s0,26
    39b0:	5b7d                	li	s6,-1
    39b2:	05249863          	bne	s1,s2,3a02 <_printf_common+0xfa>
    39b6:	4501                	li	a0,0
    39b8:	a809                	j	39ca <_printf_common+0xc2>
    39ba:	4685                	li	a3,1
    39bc:	865a                	mv	a2,s6
    39be:	85d2                	mv	a1,s4
    39c0:	854e                	mv	a0,s3
    39c2:	9a82                	jalr	s5
    39c4:	01751e63          	bne	a0,s7,39e0 <_printf_common+0xd8>
    39c8:	557d                	li	a0,-1
    39ca:	50b2                	lw	ra,44(sp)
    39cc:	5422                	lw	s0,40(sp)
    39ce:	5492                	lw	s1,36(sp)
    39d0:	5902                	lw	s2,32(sp)
    39d2:	49f2                	lw	s3,28(sp)
    39d4:	4a62                	lw	s4,24(sp)
    39d6:	4ad2                	lw	s5,20(sp)
    39d8:	4b42                	lw	s6,16(sp)
    39da:	4bb2                	lw	s7,12(sp)
    39dc:	6145                	addi	sp,sp,48
    39de:	8082                	ret
    39e0:	0905                	addi	s2,s2,1
    39e2:	bfad                	j	395c <_printf_common+0x54>
    39e4:	00d40733          	add	a4,s0,a3
    39e8:	03000613          	li	a2,48
    39ec:	04c701a3          	sb	a2,67(a4)
    39f0:	04544703          	lbu	a4,69(s0)
    39f4:	00168793          	addi	a5,a3,1
    39f8:	97a2                	add	a5,a5,s0
    39fa:	0689                	addi	a3,a3,2
    39fc:	04e781a3          	sb	a4,67(a5)
    3a00:	bf9d                	j	3976 <_printf_common+0x6e>
    3a02:	4685                	li	a3,1
    3a04:	8622                	mv	a2,s0
    3a06:	85d2                	mv	a1,s4
    3a08:	854e                	mv	a0,s3
    3a0a:	9a82                	jalr	s5
    3a0c:	fb650ee3          	beq	a0,s6,39c8 <_printf_common+0xc0>
    3a10:	0905                	addi	s2,s2,1
    3a12:	b745                	j	39b2 <_printf_common+0xaa>

00003a14 <_printf_i>:
_printf_i():
    3a14:	7179                	addi	sp,sp,-48
    3a16:	d422                	sw	s0,40(sp)
    3a18:	d226                	sw	s1,36(sp)
    3a1a:	d04a                	sw	s2,32(sp)
    3a1c:	ce4e                	sw	s3,28(sp)
    3a1e:	d606                	sw	ra,44(sp)
    3a20:	cc52                	sw	s4,24(sp)
    3a22:	ca56                	sw	s5,20(sp)
    3a24:	c85a                	sw	s6,16(sp)
    3a26:	89b6                	mv	s3,a3
    3a28:	0185c683          	lbu	a3,24(a1)
    3a2c:	06900793          	li	a5,105
    3a30:	8932                	mv	s2,a2
    3a32:	84aa                	mv	s1,a0
    3a34:	842e                	mv	s0,a1
    3a36:	04358613          	addi	a2,a1,67
    3a3a:	02f68d63          	beq	a3,a5,3a74 <_printf_i+0x60>
    3a3e:	06d7e263          	bltu	a5,a3,3aa2 <_printf_i+0x8e>
    3a42:	05800793          	li	a5,88
    3a46:	18f68863          	beq	a3,a5,3bd6 <_printf_i+0x1c2>
    3a4a:	00d7ed63          	bltu	a5,a3,3a64 <_printf_i+0x50>
    3a4e:	22068163          	beqz	a3,3c70 <_printf_i+0x25c>
    3a52:	04300793          	li	a5,67
    3a56:	0af68f63          	beq	a3,a5,3b14 <_printf_i+0x100>
    3a5a:	04240a93          	addi	s5,s0,66
    3a5e:	04d40123          	sb	a3,66(s0)
    3a62:	a0d1                	j	3b26 <_printf_i+0x112>
    3a64:	06300793          	li	a5,99
    3a68:	0af68663          	beq	a3,a5,3b14 <_printf_i+0x100>
    3a6c:	06400793          	li	a5,100
    3a70:	fef695e3          	bne	a3,a5,3a5a <_printf_i+0x46>
    3a74:	401c                	lw	a5,0(s0)
    3a76:	4308                	lw	a0,0(a4)
    3a78:	0807f693          	andi	a3,a5,128
    3a7c:	00450593          	addi	a1,a0,4
    3a80:	c6cd                	beqz	a3,3b2a <_printf_i+0x116>
    3a82:	411c                	lw	a5,0(a0)
    3a84:	c30c                	sw	a1,0(a4)
    3a86:	0007d863          	bgez	a5,3a96 <_printf_i+0x82>
    3a8a:	02d00713          	li	a4,45
    3a8e:	40f007b3          	neg	a5,a5
    3a92:	04e401a3          	sb	a4,67(s0)
    3a96:	00003697          	auipc	a3,0x3
    3a9a:	18e68693          	addi	a3,a3,398 # 6c24 <__sf_fake_stdout+0x34>
    3a9e:	4729                	li	a4,10
    3aa0:	a875                	j	3b5c <_printf_i+0x148>
    3aa2:	07000793          	li	a5,112
    3aa6:	16f68463          	beq	a3,a5,3c0e <_printf_i+0x1fa>
    3aaa:	02d7e563          	bltu	a5,a3,3ad4 <_printf_i+0xc0>
    3aae:	06e00793          	li	a5,110
    3ab2:	18f68b63          	beq	a3,a5,3c48 <_printf_i+0x234>
    3ab6:	06f00793          	li	a5,111
    3aba:	faf690e3          	bne	a3,a5,3a5a <_printf_i+0x46>
    3abe:	400c                	lw	a1,0(s0)
    3ac0:	431c                	lw	a5,0(a4)
    3ac2:	0805f813          	andi	a6,a1,128
    3ac6:	00478513          	addi	a0,a5,4
    3aca:	06080863          	beqz	a6,3b3a <_printf_i+0x126>
    3ace:	c308                	sw	a0,0(a4)
    3ad0:	439c                	lw	a5,0(a5)
    3ad2:	a895                	j	3b46 <_printf_i+0x132>
    3ad4:	07500793          	li	a5,117
    3ad8:	fef683e3          	beq	a3,a5,3abe <_printf_i+0xaa>
    3adc:	07800793          	li	a5,120
    3ae0:	12f68b63          	beq	a3,a5,3c16 <_printf_i+0x202>
    3ae4:	07300793          	li	a5,115
    3ae8:	f6f699e3          	bne	a3,a5,3a5a <_printf_i+0x46>
    3aec:	431c                	lw	a5,0(a4)
    3aee:	41d0                	lw	a2,4(a1)
    3af0:	4581                	li	a1,0
    3af2:	00478693          	addi	a3,a5,4
    3af6:	c314                	sw	a3,0(a4)
    3af8:	0007aa83          	lw	s5,0(a5)
    3afc:	8556                	mv	a0,s5
    3afe:	796000ef          	jal	ra,4294 <memchr>
    3b02:	c501                	beqz	a0,3b0a <_printf_i+0xf6>
    3b04:	41550533          	sub	a0,a0,s5
    3b08:	c048                	sw	a0,4(s0)
    3b0a:	405c                	lw	a5,4(s0)
    3b0c:	c81c                	sw	a5,16(s0)
    3b0e:	040401a3          	sb	zero,67(s0)
    3b12:	a871                	j	3bae <_printf_i+0x19a>
    3b14:	431c                	lw	a5,0(a4)
    3b16:	04240a93          	addi	s5,s0,66
    3b1a:	00478693          	addi	a3,a5,4
    3b1e:	439c                	lw	a5,0(a5)
    3b20:	c314                	sw	a3,0(a4)
    3b22:	04f40123          	sb	a5,66(s0)
    3b26:	4785                	li	a5,1
    3b28:	b7d5                	j	3b0c <_printf_i+0xf8>
    3b2a:	0407f693          	andi	a3,a5,64
    3b2e:	411c                	lw	a5,0(a0)
    3b30:	c30c                	sw	a1,0(a4)
    3b32:	dab1                	beqz	a3,3a86 <_printf_i+0x72>
    3b34:	07c2                	slli	a5,a5,0x10
    3b36:	87c1                	srai	a5,a5,0x10
    3b38:	b7b9                	j	3a86 <_printf_i+0x72>
    3b3a:	0405f593          	andi	a1,a1,64
    3b3e:	c308                	sw	a0,0(a4)
    3b40:	d9c1                	beqz	a1,3ad0 <_printf_i+0xbc>
    3b42:	0007d783          	lhu	a5,0(a5)
    3b46:	06f00713          	li	a4,111
    3b4a:	0ee68763          	beq	a3,a4,3c38 <_printf_i+0x224>
    3b4e:	00003697          	auipc	a3,0x3
    3b52:	0d668693          	addi	a3,a3,214 # 6c24 <__sf_fake_stdout+0x34>
    3b56:	4729                	li	a4,10
    3b58:	040401a3          	sb	zero,67(s0)
    3b5c:	404c                	lw	a1,4(s0)
    3b5e:	c40c                	sw	a1,8(s0)
    3b60:	0005c563          	bltz	a1,3b6a <_printf_i+0x156>
    3b64:	4008                	lw	a0,0(s0)
    3b66:	996d                	andi	a0,a0,-5
    3b68:	c008                	sw	a0,0(s0)
    3b6a:	e399                	bnez	a5,3b70 <_printf_i+0x15c>
    3b6c:	8ab2                	mv	s5,a2
    3b6e:	cd91                	beqz	a1,3b8a <_printf_i+0x176>
    3b70:	8ab2                	mv	s5,a2
    3b72:	02e7f5b3          	remu	a1,a5,a4
    3b76:	1afd                	addi	s5,s5,-1
    3b78:	95b6                	add	a1,a1,a3
    3b7a:	0005c583          	lbu	a1,0(a1)
    3b7e:	00ba8023          	sb	a1,0(s5)
    3b82:	02e7d5b3          	divu	a1,a5,a4
    3b86:	0ae7ff63          	bgeu	a5,a4,3c44 <_printf_i+0x230>
    3b8a:	47a1                	li	a5,8
    3b8c:	00f71e63          	bne	a4,a5,3ba8 <_printf_i+0x194>
    3b90:	401c                	lw	a5,0(s0)
    3b92:	8b85                	andi	a5,a5,1
    3b94:	cb91                	beqz	a5,3ba8 <_printf_i+0x194>
    3b96:	4058                	lw	a4,4(s0)
    3b98:	481c                	lw	a5,16(s0)
    3b9a:	00e7c763          	blt	a5,a4,3ba8 <_printf_i+0x194>
    3b9e:	03000793          	li	a5,48
    3ba2:	fefa8fa3          	sb	a5,-1(s5)
    3ba6:	1afd                	addi	s5,s5,-1
    3ba8:	41560633          	sub	a2,a2,s5
    3bac:	c810                	sw	a2,16(s0)
    3bae:	874e                	mv	a4,s3
    3bb0:	86ca                	mv	a3,s2
    3bb2:	0070                	addi	a2,sp,12
    3bb4:	85a2                	mv	a1,s0
    3bb6:	8526                	mv	a0,s1
    3bb8:	3b81                	jal	3908 <_printf_common>
    3bba:	5a7d                	li	s4,-1
    3bbc:	0b451e63          	bne	a0,s4,3c78 <_printf_i+0x264>
    3bc0:	557d                	li	a0,-1
    3bc2:	50b2                	lw	ra,44(sp)
    3bc4:	5422                	lw	s0,40(sp)
    3bc6:	5492                	lw	s1,36(sp)
    3bc8:	5902                	lw	s2,32(sp)
    3bca:	49f2                	lw	s3,28(sp)
    3bcc:	4a62                	lw	s4,24(sp)
    3bce:	4ad2                	lw	s5,20(sp)
    3bd0:	4b42                	lw	s6,16(sp)
    3bd2:	6145                	addi	sp,sp,48
    3bd4:	8082                	ret
    3bd6:	04d582a3          	sb	a3,69(a1)
    3bda:	00003697          	auipc	a3,0x3
    3bde:	04a68693          	addi	a3,a3,74 # 6c24 <__sf_fake_stdout+0x34>
    3be2:	400c                	lw	a1,0(s0)
    3be4:	4308                	lw	a0,0(a4)
    3be6:	0805f813          	andi	a6,a1,128
    3bea:	411c                	lw	a5,0(a0)
    3bec:	0511                	addi	a0,a0,4
    3bee:	02080d63          	beqz	a6,3c28 <_printf_i+0x214>
    3bf2:	c308                	sw	a0,0(a4)
    3bf4:	0015f713          	andi	a4,a1,1
    3bf8:	c701                	beqz	a4,3c00 <_printf_i+0x1ec>
    3bfa:	0205e593          	ori	a1,a1,32
    3bfe:	c00c                	sw	a1,0(s0)
    3c00:	4741                	li	a4,16
    3c02:	fbb9                	bnez	a5,3b58 <_printf_i+0x144>
    3c04:	400c                	lw	a1,0(s0)
    3c06:	fdf5f593          	andi	a1,a1,-33
    3c0a:	c00c                	sw	a1,0(s0)
    3c0c:	b7b1                	j	3b58 <_printf_i+0x144>
    3c0e:	419c                	lw	a5,0(a1)
    3c10:	0207e793          	ori	a5,a5,32
    3c14:	c19c                	sw	a5,0(a1)
    3c16:	07800793          	li	a5,120
    3c1a:	04f402a3          	sb	a5,69(s0)
    3c1e:	00003697          	auipc	a3,0x3
    3c22:	01a68693          	addi	a3,a3,26 # 6c38 <__sf_fake_stdout+0x48>
    3c26:	bf75                	j	3be2 <_printf_i+0x1ce>
    3c28:	0405f813          	andi	a6,a1,64
    3c2c:	c308                	sw	a0,0(a4)
    3c2e:	fc0803e3          	beqz	a6,3bf4 <_printf_i+0x1e0>
    3c32:	07c2                	slli	a5,a5,0x10
    3c34:	83c1                	srli	a5,a5,0x10
    3c36:	bf7d                	j	3bf4 <_printf_i+0x1e0>
    3c38:	00003697          	auipc	a3,0x3
    3c3c:	fec68693          	addi	a3,a3,-20 # 6c24 <__sf_fake_stdout+0x34>
    3c40:	4721                	li	a4,8
    3c42:	bf19                	j	3b58 <_printf_i+0x144>
    3c44:	87ae                	mv	a5,a1
    3c46:	b735                	j	3b72 <_printf_i+0x15e>
    3c48:	4194                	lw	a3,0(a1)
    3c4a:	431c                	lw	a5,0(a4)
    3c4c:	49cc                	lw	a1,20(a1)
    3c4e:	0806f813          	andi	a6,a3,128
    3c52:	00478513          	addi	a0,a5,4
    3c56:	00080663          	beqz	a6,3c62 <_printf_i+0x24e>
    3c5a:	c308                	sw	a0,0(a4)
    3c5c:	439c                	lw	a5,0(a5)
    3c5e:	c38c                	sw	a1,0(a5)
    3c60:	a801                	j	3c70 <_printf_i+0x25c>
    3c62:	c308                	sw	a0,0(a4)
    3c64:	0406f693          	andi	a3,a3,64
    3c68:	439c                	lw	a5,0(a5)
    3c6a:	daf5                	beqz	a3,3c5e <_printf_i+0x24a>
    3c6c:	00b79023          	sh	a1,0(a5)
    3c70:	00042823          	sw	zero,16(s0)
    3c74:	8ab2                	mv	s5,a2
    3c76:	bf25                	j	3bae <_printf_i+0x19a>
    3c78:	4814                	lw	a3,16(s0)
    3c7a:	8656                	mv	a2,s5
    3c7c:	85ca                	mv	a1,s2
    3c7e:	8526                	mv	a0,s1
    3c80:	9982                	jalr	s3
    3c82:	f3450fe3          	beq	a0,s4,3bc0 <_printf_i+0x1ac>
    3c86:	401c                	lw	a5,0(s0)
    3c88:	8b89                	andi	a5,a5,2
    3c8a:	e78d                	bnez	a5,3cb4 <_printf_i+0x2a0>
    3c8c:	47b2                	lw	a5,12(sp)
    3c8e:	4448                	lw	a0,12(s0)
    3c90:	f2f559e3          	bge	a0,a5,3bc2 <_printf_i+0x1ae>
    3c94:	853e                	mv	a0,a5
    3c96:	b735                	j	3bc2 <_printf_i+0x1ae>
    3c98:	4685                	li	a3,1
    3c9a:	8656                	mv	a2,s5
    3c9c:	85ca                	mv	a1,s2
    3c9e:	8526                	mv	a0,s1
    3ca0:	9982                	jalr	s3
    3ca2:	f1650fe3          	beq	a0,s6,3bc0 <_printf_i+0x1ac>
    3ca6:	0a05                	addi	s4,s4,1
    3ca8:	445c                	lw	a5,12(s0)
    3caa:	4732                	lw	a4,12(sp)
    3cac:	8f99                	sub	a5,a5,a4
    3cae:	fefa45e3          	blt	s4,a5,3c98 <_printf_i+0x284>
    3cb2:	bfe9                	j	3c8c <_printf_i+0x278>
    3cb4:	4a01                	li	s4,0
    3cb6:	01940a93          	addi	s5,s0,25
    3cba:	5b7d                	li	s6,-1
    3cbc:	b7f5                	j	3ca8 <_printf_i+0x294>

00003cbe <_sbrk_r>:
_sbrk_r():
    3cbe:	1141                	addi	sp,sp,-16
    3cc0:	c422                	sw	s0,8(sp)
    3cc2:	842a                	mv	s0,a0
    3cc4:	852e                	mv	a0,a1
    3cc6:	2001ac23          	sw	zero,536(gp) # 20003618 <errno>
    3cca:	c606                	sw	ra,12(sp)
    3ccc:	a0eff0ef          	jal	ra,2eda <_sbrk>
    3cd0:	57fd                	li	a5,-1
    3cd2:	00f51763          	bne	a0,a5,3ce0 <_sbrk_r+0x22>
    3cd6:	21818793          	addi	a5,gp,536 # 20003618 <errno>
    3cda:	439c                	lw	a5,0(a5)
    3cdc:	c391                	beqz	a5,3ce0 <_sbrk_r+0x22>
    3cde:	c01c                	sw	a5,0(s0)
    3ce0:	40b2                	lw	ra,12(sp)
    3ce2:	4422                	lw	s0,8(sp)
    3ce4:	0141                	addi	sp,sp,16
    3ce6:	8082                	ret

00003ce8 <__sread>:
__sread():
    3ce8:	1141                	addi	sp,sp,-16
    3cea:	c422                	sw	s0,8(sp)
    3cec:	842e                	mv	s0,a1
    3cee:	00e59583          	lh	a1,14(a1)
    3cf2:	c606                	sw	ra,12(sp)
    3cf4:	2b7d                	jal	42b2 <_read_r>
    3cf6:	00054963          	bltz	a0,3d08 <__sread+0x20>
    3cfa:	487c                	lw	a5,84(s0)
    3cfc:	97aa                	add	a5,a5,a0
    3cfe:	c87c                	sw	a5,84(s0)
    3d00:	40b2                	lw	ra,12(sp)
    3d02:	4422                	lw	s0,8(sp)
    3d04:	0141                	addi	sp,sp,16
    3d06:	8082                	ret
    3d08:	00c45783          	lhu	a5,12(s0)
    3d0c:	777d                	lui	a4,0xfffff
    3d0e:	177d                	addi	a4,a4,-1
    3d10:	8ff9                	and	a5,a5,a4
    3d12:	00f41623          	sh	a5,12(s0)
    3d16:	b7ed                	j	3d00 <__sread+0x18>

00003d18 <__swrite>:
__swrite():
    3d18:	00c5d783          	lhu	a5,12(a1)
    3d1c:	1101                	addi	sp,sp,-32
    3d1e:	cc22                	sw	s0,24(sp)
    3d20:	ca26                	sw	s1,20(sp)
    3d22:	c84a                	sw	s2,16(sp)
    3d24:	c64e                	sw	s3,12(sp)
    3d26:	ce06                	sw	ra,28(sp)
    3d28:	1007f793          	andi	a5,a5,256
    3d2c:	84aa                	mv	s1,a0
    3d2e:	842e                	mv	s0,a1
    3d30:	8932                	mv	s2,a2
    3d32:	89b6                	mv	s3,a3
    3d34:	c791                	beqz	a5,3d40 <__swrite+0x28>
    3d36:	00e59583          	lh	a1,14(a1)
    3d3a:	4689                	li	a3,2
    3d3c:	4601                	li	a2,0
    3d3e:	2915                	jal	4172 <_lseek_r>
    3d40:	00c45783          	lhu	a5,12(s0)
    3d44:	777d                	lui	a4,0xfffff
    3d46:	177d                	addi	a4,a4,-1
    3d48:	8ff9                	and	a5,a5,a4
    3d4a:	00f41623          	sh	a5,12(s0)
    3d4e:	00e41583          	lh	a1,14(s0)
    3d52:	4462                	lw	s0,24(sp)
    3d54:	40f2                	lw	ra,28(sp)
    3d56:	86ce                	mv	a3,s3
    3d58:	864a                	mv	a2,s2
    3d5a:	49b2                	lw	s3,12(sp)
    3d5c:	4942                	lw	s2,16(sp)
    3d5e:	8526                	mv	a0,s1
    3d60:	44d2                	lw	s1,20(sp)
    3d62:	6105                	addi	sp,sp,32
    3d64:	a201                	j	3e64 <_write_r>

00003d66 <__sseek>:
__sseek():
    3d66:	1141                	addi	sp,sp,-16
    3d68:	c422                	sw	s0,8(sp)
    3d6a:	842e                	mv	s0,a1
    3d6c:	00e59583          	lh	a1,14(a1)
    3d70:	c606                	sw	ra,12(sp)
    3d72:	2101                	jal	4172 <_lseek_r>
    3d74:	57fd                	li	a5,-1
    3d76:	00c45703          	lhu	a4,12(s0)
    3d7a:	00f51b63          	bne	a0,a5,3d90 <__sseek+0x2a>
    3d7e:	77fd                	lui	a5,0xfffff
    3d80:	17fd                	addi	a5,a5,-1
    3d82:	8ff9                	and	a5,a5,a4
    3d84:	00f41623          	sh	a5,12(s0)
    3d88:	40b2                	lw	ra,12(sp)
    3d8a:	4422                	lw	s0,8(sp)
    3d8c:	0141                	addi	sp,sp,16
    3d8e:	8082                	ret
    3d90:	6785                	lui	a5,0x1
    3d92:	8fd9                	or	a5,a5,a4
    3d94:	00f41623          	sh	a5,12(s0)
    3d98:	c868                	sw	a0,84(s0)
    3d9a:	b7fd                	j	3d88 <__sseek+0x22>

00003d9c <__sclose>:
__sclose():
    3d9c:	00e59583          	lh	a1,14(a1)
    3da0:	a419                	j	3fa6 <_close_r>

00003da2 <__swbuf_r>:
__swbuf_r():
    3da2:	1101                	addi	sp,sp,-32
    3da4:	cc22                	sw	s0,24(sp)
    3da6:	ca26                	sw	s1,20(sp)
    3da8:	c84a                	sw	s2,16(sp)
    3daa:	ce06                	sw	ra,28(sp)
    3dac:	c64e                	sw	s3,12(sp)
    3dae:	84aa                	mv	s1,a0
    3db0:	892e                	mv	s2,a1
    3db2:	8432                	mv	s0,a2
    3db4:	c509                	beqz	a0,3dbe <__swbuf_r+0x1c>
    3db6:	4d1c                	lw	a5,24(a0)
    3db8:	e399                	bnez	a5,3dbe <__swbuf_r+0x1c>
    3dba:	d46ff0ef          	jal	ra,3300 <__sinit>
    3dbe:	00003797          	auipc	a5,0x3
    3dc2:	e1278793          	addi	a5,a5,-494 # 6bd0 <__sf_fake_stdin>
    3dc6:	06f41963          	bne	s0,a5,3e38 <__swbuf_r+0x96>
    3dca:	40c0                	lw	s0,4(s1)
    3dcc:	4c1c                	lw	a5,24(s0)
    3dce:	c41c                	sw	a5,8(s0)
    3dd0:	00c45783          	lhu	a5,12(s0)
    3dd4:	8ba1                	andi	a5,a5,8
    3dd6:	c3c9                	beqz	a5,3e58 <__swbuf_r+0xb6>
    3dd8:	481c                	lw	a5,16(s0)
    3dda:	cfbd                	beqz	a5,3e58 <__swbuf_r+0xb6>
    3ddc:	481c                	lw	a5,16(s0)
    3dde:	4008                	lw	a0,0(s0)
    3de0:	0ff97993          	andi	s3,s2,255
    3de4:	0ff97913          	andi	s2,s2,255
    3de8:	8d1d                	sub	a0,a0,a5
    3dea:	485c                	lw	a5,20(s0)
    3dec:	00f54663          	blt	a0,a5,3df8 <__swbuf_r+0x56>
    3df0:	85a2                	mv	a1,s0
    3df2:	8526                	mv	a0,s1
    3df4:	2e21                	jal	410c <_fflush_r>
    3df6:	e52d                	bnez	a0,3e60 <__swbuf_r+0xbe>
    3df8:	441c                	lw	a5,8(s0)
    3dfa:	0505                	addi	a0,a0,1
    3dfc:	17fd                	addi	a5,a5,-1
    3dfe:	c41c                	sw	a5,8(s0)
    3e00:	401c                	lw	a5,0(s0)
    3e02:	00178713          	addi	a4,a5,1
    3e06:	c018                	sw	a4,0(s0)
    3e08:	01378023          	sb	s3,0(a5)
    3e0c:	485c                	lw	a5,20(s0)
    3e0e:	00a78963          	beq	a5,a0,3e20 <__swbuf_r+0x7e>
    3e12:	00c45783          	lhu	a5,12(s0)
    3e16:	8b85                	andi	a5,a5,1
    3e18:	cb81                	beqz	a5,3e28 <__swbuf_r+0x86>
    3e1a:	47a9                	li	a5,10
    3e1c:	00f91663          	bne	s2,a5,3e28 <__swbuf_r+0x86>
    3e20:	85a2                	mv	a1,s0
    3e22:	8526                	mv	a0,s1
    3e24:	24e5                	jal	410c <_fflush_r>
    3e26:	ed0d                	bnez	a0,3e60 <__swbuf_r+0xbe>
    3e28:	40f2                	lw	ra,28(sp)
    3e2a:	4462                	lw	s0,24(sp)
    3e2c:	854a                	mv	a0,s2
    3e2e:	44d2                	lw	s1,20(sp)
    3e30:	4942                	lw	s2,16(sp)
    3e32:	49b2                	lw	s3,12(sp)
    3e34:	6105                	addi	sp,sp,32
    3e36:	8082                	ret
    3e38:	00003797          	auipc	a5,0x3
    3e3c:	db878793          	addi	a5,a5,-584 # 6bf0 <__sf_fake_stdout>
    3e40:	00f41463          	bne	s0,a5,3e48 <__swbuf_r+0xa6>
    3e44:	4480                	lw	s0,8(s1)
    3e46:	b759                	j	3dcc <__swbuf_r+0x2a>
    3e48:	00003797          	auipc	a5,0x3
    3e4c:	d6878793          	addi	a5,a5,-664 # 6bb0 <__sf_fake_stderr>
    3e50:	f6f41ee3          	bne	s0,a5,3dcc <__swbuf_r+0x2a>
    3e54:	44c0                	lw	s0,12(s1)
    3e56:	bf9d                	j	3dcc <__swbuf_r+0x2a>
    3e58:	85a2                	mv	a1,s0
    3e5a:	8526                	mv	a0,s1
    3e5c:	281d                	jal	3e92 <__swsetup_r>
    3e5e:	dd3d                	beqz	a0,3ddc <__swbuf_r+0x3a>
    3e60:	597d                	li	s2,-1
    3e62:	b7d9                	j	3e28 <__swbuf_r+0x86>

00003e64 <_write_r>:
_write_r():
    3e64:	1141                	addi	sp,sp,-16
    3e66:	c422                	sw	s0,8(sp)
    3e68:	842a                	mv	s0,a0
    3e6a:	852e                	mv	a0,a1
    3e6c:	85b2                	mv	a1,a2
    3e6e:	8636                	mv	a2,a3
    3e70:	2001ac23          	sw	zero,536(gp) # 20003618 <errno>
    3e74:	c606                	sw	ra,12(sp)
    3e76:	83cff0ef          	jal	ra,2eb2 <_write>
    3e7a:	57fd                	li	a5,-1
    3e7c:	00f51763          	bne	a0,a5,3e8a <_write_r+0x26>
    3e80:	21818793          	addi	a5,gp,536 # 20003618 <errno>
    3e84:	439c                	lw	a5,0(a5)
    3e86:	c391                	beqz	a5,3e8a <_write_r+0x26>
    3e88:	c01c                	sw	a5,0(s0)
    3e8a:	40b2                	lw	ra,12(sp)
    3e8c:	4422                	lw	s0,8(sp)
    3e8e:	0141                	addi	sp,sp,16
    3e90:	8082                	ret

00003e92 <__swsetup_r>:
__swsetup_r():
    3e92:	1141                	addi	sp,sp,-16
    3e94:	1ffff797          	auipc	a5,0x1ffff
    3e98:	d7078793          	addi	a5,a5,-656 # 20002c04 <_impure_ptr>
    3e9c:	c226                	sw	s1,4(sp)
    3e9e:	4384                	lw	s1,0(a5)
    3ea0:	c422                	sw	s0,8(sp)
    3ea2:	c04a                	sw	s2,0(sp)
    3ea4:	c606                	sw	ra,12(sp)
    3ea6:	892a                	mv	s2,a0
    3ea8:	842e                	mv	s0,a1
    3eaa:	c491                	beqz	s1,3eb6 <__swsetup_r+0x24>
    3eac:	4c9c                	lw	a5,24(s1)
    3eae:	e781                	bnez	a5,3eb6 <__swsetup_r+0x24>
    3eb0:	8526                	mv	a0,s1
    3eb2:	c4eff0ef          	jal	ra,3300 <__sinit>
    3eb6:	00003797          	auipc	a5,0x3
    3eba:	d1a78793          	addi	a5,a5,-742 # 6bd0 <__sf_fake_stdin>
    3ebe:	02f41c63          	bne	s0,a5,3ef6 <__swsetup_r+0x64>
    3ec2:	40c0                	lw	s0,4(s1)
    3ec4:	00c41703          	lh	a4,12(s0)
    3ec8:	01071793          	slli	a5,a4,0x10
    3ecc:	83c1                	srli	a5,a5,0x10
    3ece:	0087f693          	andi	a3,a5,8
    3ed2:	eebd                	bnez	a3,3f50 <__swsetup_r+0xbe>
    3ed4:	0107f693          	andi	a3,a5,16
    3ed8:	ee9d                	bnez	a3,3f16 <__swsetup_r+0x84>
    3eda:	47a5                	li	a5,9
    3edc:	00f92023          	sw	a5,0(s2)
    3ee0:	04076713          	ori	a4,a4,64
    3ee4:	00e41623          	sh	a4,12(s0)
    3ee8:	557d                	li	a0,-1
    3eea:	40b2                	lw	ra,12(sp)
    3eec:	4422                	lw	s0,8(sp)
    3eee:	4492                	lw	s1,4(sp)
    3ef0:	4902                	lw	s2,0(sp)
    3ef2:	0141                	addi	sp,sp,16
    3ef4:	8082                	ret
    3ef6:	00003797          	auipc	a5,0x3
    3efa:	cfa78793          	addi	a5,a5,-774 # 6bf0 <__sf_fake_stdout>
    3efe:	00f41463          	bne	s0,a5,3f06 <__swsetup_r+0x74>
    3f02:	4480                	lw	s0,8(s1)
    3f04:	b7c1                	j	3ec4 <__swsetup_r+0x32>
    3f06:	00003797          	auipc	a5,0x3
    3f0a:	caa78793          	addi	a5,a5,-854 # 6bb0 <__sf_fake_stderr>
    3f0e:	faf41be3          	bne	s0,a5,3ec4 <__swsetup_r+0x32>
    3f12:	44c0                	lw	s0,12(s1)
    3f14:	bf45                	j	3ec4 <__swsetup_r+0x32>
    3f16:	8b91                	andi	a5,a5,4
    3f18:	c795                	beqz	a5,3f44 <__swsetup_r+0xb2>
    3f1a:	584c                	lw	a1,52(s0)
    3f1c:	c991                	beqz	a1,3f30 <__swsetup_r+0x9e>
    3f1e:	04440793          	addi	a5,s0,68
    3f22:	00f58563          	beq	a1,a5,3f2c <__swsetup_r+0x9a>
    3f26:	854a                	mv	a0,s2
    3f28:	d5cff0ef          	jal	ra,3484 <_free_r>
    3f2c:	02042a23          	sw	zero,52(s0)
    3f30:	00c45783          	lhu	a5,12(s0)
    3f34:	00042223          	sw	zero,4(s0)
    3f38:	fdb7f793          	andi	a5,a5,-37
    3f3c:	00f41623          	sh	a5,12(s0)
    3f40:	481c                	lw	a5,16(s0)
    3f42:	c01c                	sw	a5,0(s0)
    3f44:	00c45783          	lhu	a5,12(s0)
    3f48:	0087e793          	ori	a5,a5,8
    3f4c:	00f41623          	sh	a5,12(s0)
    3f50:	481c                	lw	a5,16(s0)
    3f52:	ef81                	bnez	a5,3f6a <__swsetup_r+0xd8>
    3f54:	00c45783          	lhu	a5,12(s0)
    3f58:	20000713          	li	a4,512
    3f5c:	2807f793          	andi	a5,a5,640
    3f60:	00e78563          	beq	a5,a4,3f6a <__swsetup_r+0xd8>
    3f64:	85a2                	mv	a1,s0
    3f66:	854a                	mv	a0,s2
    3f68:	2479                	jal	41f6 <__smakebuf_r>
    3f6a:	00c45783          	lhu	a5,12(s0)
    3f6e:	0017f713          	andi	a4,a5,1
    3f72:	c705                	beqz	a4,3f9a <__swsetup_r+0x108>
    3f74:	485c                	lw	a5,20(s0)
    3f76:	00042423          	sw	zero,8(s0)
    3f7a:	40f007b3          	neg	a5,a5
    3f7e:	cc1c                	sw	a5,24(s0)
    3f80:	481c                	lw	a5,16(s0)
    3f82:	4501                	li	a0,0
    3f84:	f3bd                	bnez	a5,3eea <__swsetup_r+0x58>
    3f86:	00c41783          	lh	a5,12(s0)
    3f8a:	0807f713          	andi	a4,a5,128
    3f8e:	df31                	beqz	a4,3eea <__swsetup_r+0x58>
    3f90:	0407e793          	ori	a5,a5,64
    3f94:	00f41623          	sh	a5,12(s0)
    3f98:	bf81                	j	3ee8 <__swsetup_r+0x56>
    3f9a:	8b89                	andi	a5,a5,2
    3f9c:	4701                	li	a4,0
    3f9e:	e391                	bnez	a5,3fa2 <__swsetup_r+0x110>
    3fa0:	4858                	lw	a4,20(s0)
    3fa2:	c418                	sw	a4,8(s0)
    3fa4:	bff1                	j	3f80 <__swsetup_r+0xee>

00003fa6 <_close_r>:
_close_r():
    3fa6:	1141                	addi	sp,sp,-16
    3fa8:	c422                	sw	s0,8(sp)
    3faa:	842a                	mv	s0,a0
    3fac:	852e                	mv	a0,a1
    3fae:	2001ac23          	sw	zero,536(gp) # 20003618 <errno>
    3fb2:	c606                	sw	ra,12(sp)
    3fb4:	2eb5                	jal	4330 <_close>
    3fb6:	57fd                	li	a5,-1
    3fb8:	00f51763          	bne	a0,a5,3fc6 <_close_r+0x20>
    3fbc:	21818793          	addi	a5,gp,536 # 20003618 <errno>
    3fc0:	439c                	lw	a5,0(a5)
    3fc2:	c391                	beqz	a5,3fc6 <_close_r+0x20>
    3fc4:	c01c                	sw	a5,0(s0)
    3fc6:	40b2                	lw	ra,12(sp)
    3fc8:	4422                	lw	s0,8(sp)
    3fca:	0141                	addi	sp,sp,16
    3fcc:	8082                	ret

00003fce <__sflush_r>:
__sflush_r():
    3fce:	00c5d783          	lhu	a5,12(a1)
    3fd2:	1101                	addi	sp,sp,-32
    3fd4:	cc22                	sw	s0,24(sp)
    3fd6:	ca26                	sw	s1,20(sp)
    3fd8:	ce06                	sw	ra,28(sp)
    3fda:	c84a                	sw	s2,16(sp)
    3fdc:	c64e                	sw	s3,12(sp)
    3fde:	0087f713          	andi	a4,a5,8
    3fe2:	84aa                	mv	s1,a0
    3fe4:	842e                	mv	s0,a1
    3fe6:	ef79                	bnez	a4,40c4 <__sflush_r+0xf6>
    3fe8:	41d8                	lw	a4,4(a1)
    3fea:	00e04d63          	bgtz	a4,4004 <__sflush_r+0x36>
    3fee:	41b8                	lw	a4,64(a1)
    3ff0:	00e04a63          	bgtz	a4,4004 <__sflush_r+0x36>
    3ff4:	4501                	li	a0,0
    3ff6:	40f2                	lw	ra,28(sp)
    3ff8:	4462                	lw	s0,24(sp)
    3ffa:	44d2                	lw	s1,20(sp)
    3ffc:	4942                	lw	s2,16(sp)
    3ffe:	49b2                	lw	s3,12(sp)
    4000:	6105                	addi	sp,sp,32
    4002:	8082                	ret
    4004:	5458                	lw	a4,44(s0)
    4006:	d77d                	beqz	a4,3ff4 <__sflush_r+0x26>
    4008:	0004a903          	lw	s2,0(s1)
    400c:	01379693          	slli	a3,a5,0x13
    4010:	0004a023          	sw	zero,0(s1)
    4014:	0606de63          	bgez	a3,4090 <__sflush_r+0xc2>
    4018:	4870                	lw	a2,84(s0)
    401a:	00c45783          	lhu	a5,12(s0)
    401e:	8b91                	andi	a5,a5,4
    4020:	c799                	beqz	a5,402e <__sflush_r+0x60>
    4022:	405c                	lw	a5,4(s0)
    4024:	8e1d                	sub	a2,a2,a5
    4026:	585c                	lw	a5,52(s0)
    4028:	c399                	beqz	a5,402e <__sflush_r+0x60>
    402a:	403c                	lw	a5,64(s0)
    402c:	8e1d                	sub	a2,a2,a5
    402e:	545c                	lw	a5,44(s0)
    4030:	500c                	lw	a1,32(s0)
    4032:	4681                	li	a3,0
    4034:	8526                	mv	a0,s1
    4036:	9782                	jalr	a5
    4038:	57fd                	li	a5,-1
    403a:	00c45703          	lhu	a4,12(s0)
    403e:	00f51d63          	bne	a0,a5,4058 <__sflush_r+0x8a>
    4042:	4094                	lw	a3,0(s1)
    4044:	47f5                	li	a5,29
    4046:	06d7e963          	bltu	a5,a3,40b8 <__sflush_r+0xea>
    404a:	204007b7          	lui	a5,0x20400
    404e:	0785                	addi	a5,a5,1
    4050:	00d7d7b3          	srl	a5,a5,a3
    4054:	8b85                	andi	a5,a5,1
    4056:	c3ad                	beqz	a5,40b8 <__sflush_r+0xea>
    4058:	481c                	lw	a5,16(s0)
    405a:	00042223          	sw	zero,4(s0)
    405e:	c01c                	sw	a5,0(s0)
    4060:	01371793          	slli	a5,a4,0x13
    4064:	0007d863          	bgez	a5,4074 <__sflush_r+0xa6>
    4068:	57fd                	li	a5,-1
    406a:	00f51463          	bne	a0,a5,4072 <__sflush_r+0xa4>
    406e:	409c                	lw	a5,0(s1)
    4070:	e391                	bnez	a5,4074 <__sflush_r+0xa6>
    4072:	c868                	sw	a0,84(s0)
    4074:	584c                	lw	a1,52(s0)
    4076:	0124a023          	sw	s2,0(s1)
    407a:	ddad                	beqz	a1,3ff4 <__sflush_r+0x26>
    407c:	04440793          	addi	a5,s0,68
    4080:	00f58563          	beq	a1,a5,408a <__sflush_r+0xbc>
    4084:	8526                	mv	a0,s1
    4086:	bfeff0ef          	jal	ra,3484 <_free_r>
    408a:	02042a23          	sw	zero,52(s0)
    408e:	b79d                	j	3ff4 <__sflush_r+0x26>
    4090:	500c                	lw	a1,32(s0)
    4092:	4601                	li	a2,0
    4094:	4685                	li	a3,1
    4096:	8526                	mv	a0,s1
    4098:	9702                	jalr	a4
    409a:	57fd                	li	a5,-1
    409c:	862a                	mv	a2,a0
    409e:	f6f51ee3          	bne	a0,a5,401a <__sflush_r+0x4c>
    40a2:	409c                	lw	a5,0(s1)
    40a4:	dbbd                	beqz	a5,401a <__sflush_r+0x4c>
    40a6:	4775                	li	a4,29
    40a8:	00e78563          	beq	a5,a4,40b2 <__sflush_r+0xe4>
    40ac:	4759                	li	a4,22
    40ae:	04e79463          	bne	a5,a4,40f6 <__sflush_r+0x128>
    40b2:	0124a023          	sw	s2,0(s1)
    40b6:	bf3d                	j	3ff4 <__sflush_r+0x26>
    40b8:	04076713          	ori	a4,a4,64
    40bc:	00e41623          	sh	a4,12(s0)
    40c0:	557d                	li	a0,-1
    40c2:	bf15                	j	3ff6 <__sflush_r+0x28>
    40c4:	0105a983          	lw	s3,16(a1)
    40c8:	f20986e3          	beqz	s3,3ff4 <__sflush_r+0x26>
    40cc:	0005a903          	lw	s2,0(a1)
    40d0:	8b8d                	andi	a5,a5,3
    40d2:	0135a023          	sw	s3,0(a1)
    40d6:	41390933          	sub	s2,s2,s3
    40da:	4701                	li	a4,0
    40dc:	e391                	bnez	a5,40e0 <__sflush_r+0x112>
    40de:	49d8                	lw	a4,20(a1)
    40e0:	c418                	sw	a4,8(s0)
    40e2:	f12059e3          	blez	s2,3ff4 <__sflush_r+0x26>
    40e6:	541c                	lw	a5,40(s0)
    40e8:	500c                	lw	a1,32(s0)
    40ea:	86ca                	mv	a3,s2
    40ec:	864e                	mv	a2,s3
    40ee:	8526                	mv	a0,s1
    40f0:	9782                	jalr	a5
    40f2:	00a04963          	bgtz	a0,4104 <__sflush_r+0x136>
    40f6:	00c45783          	lhu	a5,12(s0)
    40fa:	0407e793          	ori	a5,a5,64
    40fe:	00f41623          	sh	a5,12(s0)
    4102:	bf7d                	j	40c0 <__sflush_r+0xf2>
    4104:	99aa                	add	s3,s3,a0
    4106:	40a90933          	sub	s2,s2,a0
    410a:	bfe1                	j	40e2 <__sflush_r+0x114>

0000410c <_fflush_r>:
_fflush_r():
    410c:	499c                	lw	a5,16(a1)
    410e:	c3a5                	beqz	a5,416e <_fflush_r+0x62>
    4110:	1101                	addi	sp,sp,-32
    4112:	cc22                	sw	s0,24(sp)
    4114:	ce06                	sw	ra,28(sp)
    4116:	842a                	mv	s0,a0
    4118:	c519                	beqz	a0,4126 <_fflush_r+0x1a>
    411a:	4d1c                	lw	a5,24(a0)
    411c:	e789                	bnez	a5,4126 <_fflush_r+0x1a>
    411e:	c62e                	sw	a1,12(sp)
    4120:	9e0ff0ef          	jal	ra,3300 <__sinit>
    4124:	45b2                	lw	a1,12(sp)
    4126:	00003797          	auipc	a5,0x3
    412a:	aaa78793          	addi	a5,a5,-1366 # 6bd0 <__sf_fake_stdin>
    412e:	00f59b63          	bne	a1,a5,4144 <_fflush_r+0x38>
    4132:	404c                	lw	a1,4(s0)
    4134:	00c59783          	lh	a5,12(a1)
    4138:	c795                	beqz	a5,4164 <_fflush_r+0x58>
    413a:	8522                	mv	a0,s0
    413c:	4462                	lw	s0,24(sp)
    413e:	40f2                	lw	ra,28(sp)
    4140:	6105                	addi	sp,sp,32
    4142:	b571                	j	3fce <__sflush_r>
    4144:	00003797          	auipc	a5,0x3
    4148:	aac78793          	addi	a5,a5,-1364 # 6bf0 <__sf_fake_stdout>
    414c:	00f59463          	bne	a1,a5,4154 <_fflush_r+0x48>
    4150:	440c                	lw	a1,8(s0)
    4152:	b7cd                	j	4134 <_fflush_r+0x28>
    4154:	00003797          	auipc	a5,0x3
    4158:	a5c78793          	addi	a5,a5,-1444 # 6bb0 <__sf_fake_stderr>
    415c:	fcf59ce3          	bne	a1,a5,4134 <_fflush_r+0x28>
    4160:	444c                	lw	a1,12(s0)
    4162:	bfc9                	j	4134 <_fflush_r+0x28>
    4164:	40f2                	lw	ra,28(sp)
    4166:	4462                	lw	s0,24(sp)
    4168:	4501                	li	a0,0
    416a:	6105                	addi	sp,sp,32
    416c:	8082                	ret
    416e:	4501                	li	a0,0
    4170:	8082                	ret

00004172 <_lseek_r>:
_lseek_r():
    4172:	1141                	addi	sp,sp,-16
    4174:	c422                	sw	s0,8(sp)
    4176:	842a                	mv	s0,a0
    4178:	852e                	mv	a0,a1
    417a:	85b2                	mv	a1,a2
    417c:	8636                	mv	a2,a3
    417e:	2001ac23          	sw	zero,536(gp) # 20003618 <errno>
    4182:	c606                	sw	ra,12(sp)
    4184:	2ac1                	jal	4354 <_lseek>
    4186:	57fd                	li	a5,-1
    4188:	00f51763          	bne	a0,a5,4196 <_lseek_r+0x24>
    418c:	21818793          	addi	a5,gp,536 # 20003618 <errno>
    4190:	439c                	lw	a5,0(a5)
    4192:	c391                	beqz	a5,4196 <_lseek_r+0x24>
    4194:	c01c                	sw	a5,0(s0)
    4196:	40b2                	lw	ra,12(sp)
    4198:	4422                	lw	s0,8(sp)
    419a:	0141                	addi	sp,sp,16
    419c:	8082                	ret

0000419e <__swhatbuf_r>:
__swhatbuf_r():
    419e:	7119                	addi	sp,sp,-128
    41a0:	daa6                	sw	s1,116(sp)
    41a2:	84ae                	mv	s1,a1
    41a4:	00e59583          	lh	a1,14(a1)
    41a8:	dca2                	sw	s0,120(sp)
    41aa:	de86                	sw	ra,124(sp)
    41ac:	8432                	mv	s0,a2
    41ae:	0005dc63          	bgez	a1,41c6 <__swhatbuf_r+0x28>
    41b2:	00c4d783          	lhu	a5,12(s1)
    41b6:	0006a023          	sw	zero,0(a3)
    41ba:	0807f793          	andi	a5,a5,128
    41be:	e39d                	bnez	a5,41e4 <__swhatbuf_r+0x46>
    41c0:	40000793          	li	a5,1024
    41c4:	a015                	j	41e8 <__swhatbuf_r+0x4a>
    41c6:	0830                	addi	a2,sp,24
    41c8:	c636                	sw	a3,12(sp)
    41ca:	2a11                	jal	42de <_fstat_r>
    41cc:	46b2                	lw	a3,12(sp)
    41ce:	fe0542e3          	bltz	a0,41b2 <__swhatbuf_r+0x14>
    41d2:	4772                	lw	a4,28(sp)
    41d4:	67bd                	lui	a5,0xf
    41d6:	8ff9                	and	a5,a5,a4
    41d8:	7779                	lui	a4,0xffffe
    41da:	97ba                	add	a5,a5,a4
    41dc:	0017b793          	seqz	a5,a5
    41e0:	c29c                	sw	a5,0(a3)
    41e2:	bff9                	j	41c0 <__swhatbuf_r+0x22>
    41e4:	04000793          	li	a5,64
    41e8:	c01c                	sw	a5,0(s0)
    41ea:	50f6                	lw	ra,124(sp)
    41ec:	5466                	lw	s0,120(sp)
    41ee:	54d6                	lw	s1,116(sp)
    41f0:	4501                	li	a0,0
    41f2:	6109                	addi	sp,sp,128
    41f4:	8082                	ret

000041f6 <__smakebuf_r>:
__smakebuf_r():
    41f6:	00c5d783          	lhu	a5,12(a1)
    41fa:	1101                	addi	sp,sp,-32
    41fc:	cc22                	sw	s0,24(sp)
    41fe:	ce06                	sw	ra,28(sp)
    4200:	ca26                	sw	s1,20(sp)
    4202:	c84a                	sw	s2,16(sp)
    4204:	8b89                	andi	a5,a5,2
    4206:	842e                	mv	s0,a1
    4208:	cf89                	beqz	a5,4222 <__smakebuf_r+0x2c>
    420a:	04740793          	addi	a5,s0,71
    420e:	c01c                	sw	a5,0(s0)
    4210:	c81c                	sw	a5,16(s0)
    4212:	4785                	li	a5,1
    4214:	c85c                	sw	a5,20(s0)
    4216:	40f2                	lw	ra,28(sp)
    4218:	4462                	lw	s0,24(sp)
    421a:	44d2                	lw	s1,20(sp)
    421c:	4942                	lw	s2,16(sp)
    421e:	6105                	addi	sp,sp,32
    4220:	8082                	ret
    4222:	0074                	addi	a3,sp,12
    4224:	0030                	addi	a2,sp,8
    4226:	84aa                	mv	s1,a0
    4228:	3f9d                	jal	419e <__swhatbuf_r>
    422a:	45a2                	lw	a1,8(sp)
    422c:	892a                	mv	s2,a0
    422e:	8526                	mv	a0,s1
    4230:	afcff0ef          	jal	ra,352c <_malloc_r>
    4234:	ed01                	bnez	a0,424c <__smakebuf_r+0x56>
    4236:	00c41783          	lh	a5,12(s0)
    423a:	2007f713          	andi	a4,a5,512
    423e:	ff61                	bnez	a4,4216 <__smakebuf_r+0x20>
    4240:	9bf1                	andi	a5,a5,-4
    4242:	0027e793          	ori	a5,a5,2
    4246:	00f41623          	sh	a5,12(s0)
    424a:	b7c1                	j	420a <__smakebuf_r+0x14>
    424c:	fffff797          	auipc	a5,0xfffff
    4250:	06478793          	addi	a5,a5,100 # 32b0 <_cleanup_r>
    4254:	d49c                	sw	a5,40(s1)
    4256:	00c45783          	lhu	a5,12(s0)
    425a:	c008                	sw	a0,0(s0)
    425c:	c808                	sw	a0,16(s0)
    425e:	0807e793          	ori	a5,a5,128
    4262:	00f41623          	sh	a5,12(s0)
    4266:	47a2                	lw	a5,8(sp)
    4268:	c85c                	sw	a5,20(s0)
    426a:	47b2                	lw	a5,12(sp)
    426c:	cf89                	beqz	a5,4286 <__smakebuf_r+0x90>
    426e:	00e41583          	lh	a1,14(s0)
    4272:	8526                	mv	a0,s1
    4274:	2851                	jal	4308 <_isatty_r>
    4276:	c901                	beqz	a0,4286 <__smakebuf_r+0x90>
    4278:	00c45783          	lhu	a5,12(s0)
    427c:	9bf1                	andi	a5,a5,-4
    427e:	0017e793          	ori	a5,a5,1
    4282:	00f41623          	sh	a5,12(s0)
    4286:	00c45783          	lhu	a5,12(s0)
    428a:	00f96933          	or	s2,s2,a5
    428e:	01241623          	sh	s2,12(s0)
    4292:	b751                	j	4216 <__smakebuf_r+0x20>

00004294 <memchr>:
memchr():
    4294:	0ff5f593          	andi	a1,a1,255
    4298:	962a                	add	a2,a2,a0
    429a:	00c51463          	bne	a0,a2,42a2 <memchr+0xe>
    429e:	4501                	li	a0,0
    42a0:	8082                	ret
    42a2:	00054783          	lbu	a5,0(a0)
    42a6:	feb78de3          	beq	a5,a1,42a0 <memchr+0xc>
    42aa:	0505                	addi	a0,a0,1
    42ac:	b7fd                	j	429a <memchr+0x6>

000042ae <__malloc_lock>:
__malloc_lock():
    42ae:	8082                	ret

000042b0 <__malloc_unlock>:
__malloc_unlock():
    42b0:	8082                	ret

000042b2 <_read_r>:
_read_r():
    42b2:	1141                	addi	sp,sp,-16
    42b4:	c422                	sw	s0,8(sp)
    42b6:	842a                	mv	s0,a0
    42b8:	852e                	mv	a0,a1
    42ba:	85b2                	mv	a1,a2
    42bc:	8636                	mv	a2,a3
    42be:	2001ac23          	sw	zero,536(gp) # 20003618 <errno>
    42c2:	c606                	sw	ra,12(sp)
    42c4:	2871                	jal	4360 <_read>
    42c6:	57fd                	li	a5,-1
    42c8:	00f51763          	bne	a0,a5,42d6 <_read_r+0x24>
    42cc:	21818793          	addi	a5,gp,536 # 20003618 <errno>
    42d0:	439c                	lw	a5,0(a5)
    42d2:	c391                	beqz	a5,42d6 <_read_r+0x24>
    42d4:	c01c                	sw	a5,0(s0)
    42d6:	40b2                	lw	ra,12(sp)
    42d8:	4422                	lw	s0,8(sp)
    42da:	0141                	addi	sp,sp,16
    42dc:	8082                	ret

000042de <_fstat_r>:
_fstat_r():
    42de:	1141                	addi	sp,sp,-16
    42e0:	c422                	sw	s0,8(sp)
    42e2:	842a                	mv	s0,a0
    42e4:	852e                	mv	a0,a1
    42e6:	85b2                	mv	a1,a2
    42e8:	2001ac23          	sw	zero,536(gp) # 20003618 <errno>
    42ec:	c606                	sw	ra,12(sp)
    42ee:	20b9                	jal	433c <_fstat>
    42f0:	57fd                	li	a5,-1
    42f2:	00f51763          	bne	a0,a5,4300 <_fstat_r+0x22>
    42f6:	21818793          	addi	a5,gp,536 # 20003618 <errno>
    42fa:	439c                	lw	a5,0(a5)
    42fc:	c391                	beqz	a5,4300 <_fstat_r+0x22>
    42fe:	c01c                	sw	a5,0(s0)
    4300:	40b2                	lw	ra,12(sp)
    4302:	4422                	lw	s0,8(sp)
    4304:	0141                	addi	sp,sp,16
    4306:	8082                	ret

00004308 <_isatty_r>:
_isatty_r():
    4308:	1141                	addi	sp,sp,-16
    430a:	c422                	sw	s0,8(sp)
    430c:	842a                	mv	s0,a0
    430e:	852e                	mv	a0,a1
    4310:	2001ac23          	sw	zero,536(gp) # 20003618 <errno>
    4314:	c606                	sw	ra,12(sp)
    4316:	280d                	jal	4348 <_isatty>
    4318:	57fd                	li	a5,-1
    431a:	00f51763          	bne	a0,a5,4328 <_isatty_r+0x20>
    431e:	21818793          	addi	a5,gp,536 # 20003618 <errno>
    4322:	439c                	lw	a5,0(a5)
    4324:	c391                	beqz	a5,4328 <_isatty_r+0x20>
    4326:	c01c                	sw	a5,0(s0)
    4328:	40b2                	lw	ra,12(sp)
    432a:	4422                	lw	s0,8(sp)
    432c:	0141                	addi	sp,sp,16
    432e:	8082                	ret

00004330 <_close>:
_close():
    4330:	05800793          	li	a5,88
    4334:	20f1ac23          	sw	a5,536(gp) # 20003618 <errno>
    4338:	557d                	li	a0,-1
    433a:	8082                	ret

0000433c <_fstat>:
_fstat():
    433c:	05800793          	li	a5,88
    4340:	20f1ac23          	sw	a5,536(gp) # 20003618 <errno>
    4344:	557d                	li	a0,-1
    4346:	8082                	ret

00004348 <_isatty>:
_isatty():
    4348:	05800793          	li	a5,88
    434c:	20f1ac23          	sw	a5,536(gp) # 20003618 <errno>
    4350:	4501                	li	a0,0
    4352:	8082                	ret

00004354 <_lseek>:
_lseek():
    4354:	05800793          	li	a5,88
    4358:	20f1ac23          	sw	a5,536(gp) # 20003618 <errno>
    435c:	557d                	li	a0,-1
    435e:	8082                	ret

00004360 <_read>:
_read():
    4360:	05800793          	li	a5,88
    4364:	20f1ac23          	sw	a5,536(gp) # 20003618 <errno>
    4368:	557d                	li	a0,-1
    436a:	8082                	ret

0000436c <gsc_ssd1306_ascii_1206>:
	...
    437c:	403f 0000 0000 0000 0000 0030 0040 0030     ?@........0.@.0.
    438c:	0040 0000 0009 c00b 003d c00b 003d 0009     @.......=...=...
    439c:	c018 4024 e07f 4022 8031 0000 0018 c024     ..$@.."@1.....$.
    43ac:	001b 800d 4032 8001 8003 401c 4027 801c     ....2@.....@'@..
    43bc:	4007 4000 0010 0060 0000 0000 0000 0000     .@.@..`.........
    43cc:	0000 0000 0000 801f 4020 2040 0000 2040     ........ @@ ..@ 
    43dc:	4020 801f 0000 0000 0009 0006 801f 0006      @..............
    43ec:	0009 0000 0004 0004 803f 0004 0004 0000     ........?.......
    43fc:	1000 6000 0000 0000 0000 0000 0004 0004     ...`............
    440c:	0004 0004 0004 0000 0000 4000 0000 0000     ...........@....
    441c:	0000 0000 2000 c001 0006 0038 0040 0000     ..... ....8.@...
    442c:	801f 4020 4020 4020 801f 0000 0000 4010     .. @ @ @.......@
    443c:	c03f 4000 0000 0000 c018 4021 4022 4024     ?..@......!@"@$@
    444c:	4018 0000 8010 4020 4024 4024 801b 0000     .@.... @$@$@....
    445c:	0002 000d 0011 c03f 4001 0000 803c 4024     ......?..@..<.$@
    446c:	4024 4024 8023 0000 801f 4024 4024 4034     $@$@#.....$@$@4@
    447c:	8003 0000 0030 0020 c027 0038 0020 0000     ....0. .'.8. ...
    448c:	801b 4024 4024 4024 801b 0000 001c c022     ..$@$@$@......".
    449c:	4022 4022 801f 0000 0000 0000 4008 0000     "@"@.........@..
	...
    44b4:	6004 0000 0000 0000 0000 0004 000a 0011     .`..............
    44c4:	8020 4040 0009 0009 0009 0009 0009 0000      .@@............
    44d4:	0000 4040 8020 0011 000a 0004 0018 0020     ..@@ ......... .
    44e4:	4023 0024 0018 0000 801f 4020 4027 4029     #@$....... @'@)@
    44f4:	401f 0000 4000 c007 0039 000f c001 4000     .@...@..9......@
    4504:	4020 c03f 4024 4024 801b 0000 801f 4020      @?.$@$@...... @
    4514:	4020 4020 8030 0000 4020 c03f 4020 4020      @ @0... @?. @ @
    4524:	801f 0000 4020 c03f 4024 402e c030 0000     .... @?.$@.@0...
    4534:	4020 c03f 4024 002e 0030 0000 000f 8010      @?.$@..0.......
    4544:	4020 4022 8033 0002 4020 c03f 0004 0004      @"@3... @?.....
    4554:	c03f 4020 4020 4020 c03f 4020 4020 0000     ?. @ @ @?. @ @..
    4564:	6000 2020 2020 c03f 0020 0020 4020 c03f     .`    ?. . . @?.
    4574:	4024 000b c030 4020 4020 c03f 4020 4000     $@..0. @ @?. @.@
    4584:	4000 c000 c03f 003c c003 003c c03f 0000     .@..?.<...<.?...
    4594:	4020 c03f 400c 0023 c03f 0020 801f 4020      @?..@#.?. ... @
    45a4:	4020 4020 801f 0000 4020 c03f 4024 0024      @ @.... @?.$@$.
    45b4:	0018 0000 801f 4021 4021 e020 a01f 0000     ......!@!@ .....
    45c4:	4020 c03f 4024 0026 c019 4000 c018 4024      @?.$@&....@..$@
    45d4:	4024 4022 8031 0000 0030 4020 c03f 4020     $@"@1...0. @?. @
    45e4:	0030 0000 0020 803f 4000 4000 803f 0020     0... .?..@.@?. .
    45f4:	0020 003e c001 0007 0038 0020 0038 c007      .>.....8. .8...
    4604:	003c c007 0038 0000 4020 c039 0006 c039     <...8... @9...9.
    4614:	4020 0000 0020 4038 c007 4038 0020 0000      @.. .8@..8@ ...
    4624:	4030 c021 4026 4038 c020 0000 0000 0000     0@!.&@8@ .......
    4634:	e07f 2040 2040 0000 0000 0070 000c 8003     ..@ @ ....p.....
    4644:	4000 0000 0000 2040 2040 e07f 0000 0000     .@....@ @ ......
    4654:	0000 0020 0040 0020 0000 0000 1000 1000     .. .@. .........
    4664:	1000 1000 1000 1000 0000 0000 0040 0000     ............@...
    4674:	0000 0000 0000 8002 4005 4005 c003 4000     .........@.@...@
    4684:	0020 c03f 4004 4004 8003 0000 0000 8003      .?..@.@........
    4694:	4004 4004 4006 0000 0000 8003 4004 4024     .@.@.@.......@$@
    46a4:	c03f 4000 0000 8003 4005 4005 4003 0000     ?..@.....@.@.@..
    46b4:	0000 4004 c01f 4024 4024 0020 0000 e002     ...@..$@$@ .....
    46c4:	5005 5005 5006 2004 4020 c03f 4004 0004     .P.P.P.  @?..@..
    46d4:	c003 4000 0000 4004 c027 4000 0000 0000     ...@...@'..@....
    46e4:	1000 1000 1004 e027 0000 0000 4020 c03f     ......'..... @?.
    46f4:	4001 0007 c004 4004 4020 4020 c03f 4000     .@.....@ @ @?..@
    4704:	4000 0000 c007 0004 c007 0004 c003 0000     .@..............
    4714:	4004 c007 4004 0004 c003 4000 0000 8003     .@...@.....@....
    4724:	4004 4004 8003 0000 1004 f007 5004 4004     .@.@.........P.@
    4734:	8003 0000 0000 8003 4004 5004 f007 1000     .........@.P....
    4744:	4004 c007 4002 0004 0004 0000 0000 4006     .@...@.........@
    4754:	4005 4005 c004 0000 0000 0004 801f 4004     .@.@...........@
    4764:	4000 0000 0004 8007 4000 4004 c007 4000     .@.......@.@...@
    4774:	0004 0007 c004 8001 0006 0004 0006 c001     ................
    4784:	0007 c001 0006 0000 4004 c006 0001 c006     .........@......
    4794:	4004 0000 1004 1007 e004 8001 0006 0004     .@..............
    47a4:	0000 4004 c005 4006 4004 0000 0000 0000     ...@...@.@......
    47b4:	0004 e07b 2040 0000 0000 0000 0000 f0ff     ..{.@ ..........
    47c4:	0000 0000 0000 2040 e07b 0004 0000 0000     ......@ {.......
    47d4:	0040 0080 0040 0020 0020 0040               @...@. . .@.

000047e0 <gsc_ssd1306_ascii_1608>:
	...
    47f4:	0000 cc1f 0c00 0000 0000 0000 0000 0008     ................
    4804:	0030 0060 0008 0030 0060 0000 2002 fc03     0.`...0.`.... ..
    4814:	201e 2002 fc03 201e 2002 0000 0000 180e     . . ... . ......
    4824:	0411 ff3f 8410 780c 0000 0000 000f 8410     ..?....x........
    4834:	380f c000 7807 8418 7800 0000 7800 840f     .8...x...x...x..
    4844:	c410 2411 980e e400 8400 0800 0008 0068     ...$..........h.
    4854:	0070 0000 0000 0000 0000 0000 0000 0000     p...............
    4864:	0000 e007 1818 0420 0240 0000 0000 0240     ...... .@.....@.
    4874:	0420 1818 e007 0000 0000 0000 4002 4002      ............@.@
    4884:	8001 f00f 8001 4002 4002 0000 8000 8000     .......@.@......
    4894:	8000 f80f 8000 8000 8000 0000 0100 0d00     ................
    48a4:	0e00 0000 0000 0000 0000 0000 0000 8000     ................
    48b4:	8000 8000 8000 8000 8000 8000 0000 0c00     ................
    48c4:	0c00 0000 0000 0000 0000 0000 0000 0600     ................
    48d4:	1800 6000 8001 0006 0018 0020 0000 f007     ...`...... .....
    48e4:	0808 0410 0410 0808 f007 0000 0000 0408     ................
    48f4:	0408 fc1f 0400 0400 0000 0000 0000 0c0e     ................
    4904:	1410 2410 4410 8411 0c0e 0000 0000 180c     ...$.D..........
    4914:	0410 0411 0411 8812 700c 0000 0000 e000     .........p......
    4924:	2003 2404 2408 fc1f 2400 0000 0000 981f     . .$.$...$......
    4934:	8410 0411 0411 8810 7010 0000 0000 f007     .........p......
    4944:	8808 0411 0411 8818 7000 0000 0000 001c     .........p......
    4954:	0010 fc10 0013 001c 0010 0000 0000 380e     ...............8
    4964:	4411 8410 8410 4411 380e 0000 0000 0007     .D.....D.8......
    4974:	8c08 4410 4410 8808 f007 0000 0000 0000     ...D.D..........
    4984:	0000 0c03 0c03 0000 0000 0000 0000 0000     ................
    4994:	0100 0601 0000 0000 0000 0000 0000 8000     ................
    49a4:	4001 2002 1004 0808 0410 0000 2002 2002     .@. ......... . 
    49b4:	2002 2002 2002 2002 2002 0000 0000 0410     . . . . . ......
    49c4:	0808 1004 2002 4001 8000 0000 0000 000e     ..... .@........
    49d4:	0012 0c10 6c10 8010 000f 0000 e003 180c     .....l..........
    49e4:	e413 2414 c417 2808 d007 0000 0400 3c00     ...$...(.......<
    49f4:	c403 401c 4007 e400 1c00 0400 0410 fc1f     ...@.@..........
    4a04:	0411 0411 0411 880e 7000 0000 e003 180c     .........p......
    4a14:	0410 0410 0410 0810 101c 0000 0410 fc1f     ................
    4a24:	0410 0410 0410 0808 f007 0000 0410 fc1f     ................
    4a34:	0411 0411 c417 0410 1808 0000 0410 fc1f     ................
    4a44:	0411 0011 c017 0010 0008 0000 e003 180c     ................
    4a54:	0410 0410 4410 781c 4000 0000 0410 fc1f     .....D.x.@......
    4a64:	8410 8000 8000 8410 fc1f 0410 0000 0410     ................
    4a74:	0410 fc1f 0410 0410 0000 0000 0300 0100     ................
    4a84:	0110 0110 fe1f 0010 0010 0000 0410 fc1f     ................
    4a94:	0411 8003 6414 1c18 0410 0000 0410 fc1f     .....d..........
    4aa4:	0410 0400 0400 0400 0c00 0000 0410 fc1f     ................
    4ab4:	001f fc00 001f fc1f 0410 0000 0410 fc1f     ................
    4ac4:	040c 0003 e000 1810 fc1f 0010 f007 0808     ................
    4ad4:	0410 0410 0410 0808 f007 0000 0410 fc1f     ................
    4ae4:	8410 8010 8010 8010 000f 0000 f007 1808     ................
    4af4:	2410 2410 1c10 0a08 f207 0000 0410 fc1f     .$.$............
    4b04:	0411 0011 c011 3011 0c0e 0400 0000 1c0e     .......0........
    4b14:	0411 8410 8410 4410 381c 0000 0018 0010     .......D.8......
    4b24:	0410 fc1f 0410 0010 0018 0000 0010 f81f     ................
    4b34:	0410 0400 0400 0410 f81f 0010 0010 001e     ................
    4b44:	e011 1c00 7000 8013 001c 0010 c01f 3c10     .....p.........<
    4b54:	e000 001f e000 3c10 c01f 0000 0410 0c18     .......<........
    4b64:	3416 c001 c001 3416 0c18 0410 0010 001c     .4.....4........
    4b74:	0413 fc00 0413 001c 0010 0000 0408 1c10     ................
    4b84:	6410 8410 0413 041c 1810 0000 0000 0000     .d..............
    4b94:	0000 fe7f 0240 0240 0240 0000 0000 0030     ....@.@.@.....0.
    4ba4:	000c 8003 6000 1c00 0300 0000 0000 0240     .....`........@.
    4bb4:	0240 0240 fe7f 0000 0000 0000 0000 0000     @.@.............
    4bc4:	0020 0040 0040 0040 0020 0000 0100 0100      .@.@.@. .......
    4bd4:	0100 0100 0100 0100 0100 0100 0000 0040     ..............@.
    4be4:	0040 0020 0000 0000 0000 0000 0000 9800     @. .............
    4bf4:	2401 4401 4401 4401 fc00 0400 0010 fc1f     .$.D.D.D........
    4c04:	8800 0401 0401 8800 7000 0000 0000 7000     .........p.....p
    4c14:	8800 0401 0401 0401 8800 0000 0000 7000     ...............p
    4c24:	8800 0401 0401 0811 fc1f 0400 0000 f800     ................
    4c34:	4401 4401 4401 4401 c800 0000 0000 0401     .D.D.D.D........
    4c44:	0401 fc0f 0411 0411 0011 0018 0000 d600     ................
    4c54:	2901 2901 2901 c901 0601 0000 0410 fc1f     .).).)..........
    4c64:	8400 0001 0001 0401 fc00 0400 0000 0401     ................
    4c74:	0419 fc19 0400 0400 0000 0000 0000 0300     ................
    4c84:	0100 0101 0119 fe19 0000 0000 0410 fc1f     ................
    4c94:	2400 4000 b401 0c01 0401 0000 0000 0410     .$.@............
    4ca4:	0410 fc1f 0400 0400 0000 0000 0401 fc01     ................
    4cb4:	0401 0001 fc01 0401 0001 fc00 0401 fc01     ................
    4cc4:	8400 0001 0001 0401 fc00 0400 0000 f800     ................
    4cd4:	0401 0401 0401 0401 f800 0000 0101 ff01     ................
    4ce4:	8500 0401 0401 8800 7000 0000 0000 7000     .........p.....p
    4cf4:	8800 0401 0401 0501 ff01 0100 0401 0401     ................
    4d04:	fc01 8400 0401 0001 8001 0000 0000 cc00     ................
    4d14:	2401 2401 2401 2401 9801 0000 0000 0001     .$.$.$.$........
    4d24:	0001 f807 0401 0401 0000 0000 0001 f801     ................
    4d34:	0400 0400 0400 0801 fc01 0400 0001 8001     ................
    4d44:	7001 0c00 1000 6001 8001 0001 f001 0c01     .p.....`........
    4d54:	3000 c001 3000 0c01 f001 0001 0000 0401     .0...0..........
    4d64:	8c01 7400 7001 8c01 0401 0000 0101 8101     ...t.p..........
    4d74:	7101 0e00 1800 6001 8001 0001 0000 8401     .q.....`........
    4d84:	0c01 3401 4401 8401 0c01 0000 0000 0000     ...4.D..........
    4d94:	0000 0000 0001 fc3e 0240 0240 0000 0000     ......>.@.@.....
    4da4:	0000 0000 ffff 0000 0000 0000 0000 0240     ..............@.
    4db4:	0240 fc3e 0001 0000 0000 0000 0000 0060     @.>...........`.
    4dc4:	0080 0080 0040 0040 0020 0020               ....@.@. . .

00004dd0 <gsc_ssd1306_ascii_2412>:
	...
    4e00:	0000 0f00 3880 fe0f 0f38 3880 0000 0000     .....8..8..8....
	...
    4e1c:	0000 0001 0600 0000 000c 3800 0000 0031     ...........8..1.
    4e2c:	0600 0000 000c 3800 0000 0030 0000 0000     .......8..0.....
    4e3c:	0000 0000 8061 6700 07f8 80f9 6100 0080     ....a..g.....a..
    4e4c:	8061 6100 0080 8061 6700 07f8 80f9 6100     a..a..a..g.....a
    4e5c:	0080 0000 0000 0000 0000 c001 03e0 f0e0     ................
    4e6c:	3006 0408 0818 ff1f 04fe 080e 8707 03f0     .0..............
    4e7c:	e081 0000 0000 0000 f001 0600 000c 0404     ................
    4e8c:	0608 700c f901 00c0 000e 3b00 00e0 18ec     ...p.......;....
    4e9c:	0807 0408 180c 0300 00e0 0000 0100 00e0     ................
    4eac:	f007 f803 0418 081c 1704 0708 d0e1 c003     ................
    4ebc:	00e0 b023 3c00 0008 0820 0000 0010 0000     ..#..<.. .......
    4ecc:	0000 0100 0000 0031 3200 0000 001c 0000     ......1..2......
	...
    4f00:	007f ff01 07c0 f080 000c 1018 0400 0020     .............. .
    4f10:	0002 0000 0000 2000 0200 0010 0c04 1800     ....... ........
    4f20:	8007 01f0 c0ff 7f00 0000 0000 0000 0000     ................
	...
    4f3c:	0042 6600 0000 0066 3c00 0000 0018 ff03     B..f..f..<......
    4f4c:	00c0 0018 3c00 0000 0066 6600 0000 0042     .....<..f..f..B.
    4f5c:	0000 0000 0008 0800 0000 0008 0800 0000     ................
    4f6c:	0008 ff01 00c0 0008 0800 0000 0008 0800     ................
    4f7c:	0000 0008 0000 0000 0100 0000 0031 3200     ............1..2
    4f8c:	0000 001c 0000 0000 0000 0000 0000 0000     ................
	...
    4fa8:	0008 0800 0000 0008 0800 0000 0008 0800     ................
    4fb8:	0000 0008 0800 0000 0008 0800 0000 0000     ................
	...
    4fd0:	0038 3800 0000 0038 0000 0000 0000 0000     8..8..8.........
	...
    4ff0:	0600 0000 001c 7000 0100 0080 000e 3800     .......p.......8
    5000:	0000 00c0 0007 1c00 0000 0030 0000 0000     ..........0.....
    5010:	0000 0000 807f ff01 03e0 7080 0006 0418     ...........p....
    5020:	0800 0004 0608 1800 8003 0170 e0ff 7f00     ..........p.....
    5030:	0080 0000 0000 0000 0000 0001 0108 0800     ................
    5040:	0001 0308 f8ff ff07 00f8 0800 0000 0008     ................
    5050:	0800 0000 0000 0000 0000 0100 38c0 c002     .............8..
    5060:	0458 9800 0104 0418 1802 0404 0618 181c     X...............
    5070:	f803 0118 f8e0 0000 0000 0000 0000 0100     ................
    5080:	e0c0 c003 04f0 0800 0804 0408 0808 1806     ................
    5090:	0308 18f4 e701 00f0 e001 0000 0000 0000     ................
    50a0:	0000 0000 0003 0d00 0000 0011 6100 0000     .............a..
    50b0:	0881 0103 0708 f8ff ff0f 00f8 0801 0100     ................
    50c0:	0008 0000 0000 0000 e000 fc07 06d0 0808     ................
    50d0:	1006 0608 0810 1006 0608 3818 0f06 06f0     ...........8....
    50e0:	c007 0000 0000 0000 0000 0000 803f ff01     ............?...
    50f0:	03e0 3084 0802 0418 0810 1004 0408 0810     ...0............
    5100:	1807 0310 f00f 0700 00c0 0000 0000 0000     ................
    5110:	0000 c003 0700 0000 0006 0600 f800 0706     ................
    5120:	06f8 0018 e006 0700 0000 0006 0000 0000     ................
    5130:	0000 0100 e0e1 f703 06f0 1034 1804 0408     ..........4.....
    5140:	0818 0c04 0408 080c 1606 0318 f0f3 c101     ................
    5150:	00e0 0000 0000 0000 00f8 fc03 0330 3806     ............0..8
    5160:	0204 0408 0802 0204 0408 1004 0803 01f0     ................
    5170:	c0ff 7f00 0000 0000 0000 0000 0000 0000     ................
	...
    5188:	3870 7000 0038 3870 0000 0000 0000 0000     p8.p8.p8........
	...
    51ac:	1a30 3000 001c 0000 0000 0000 0000 0000     0..0............
	...
    51c4:	0000 0800 0000 0014 2200 0000 0041 8000     ........."..A...
    51d4:	0180 4000 0002 0420 1000 0008 0008 0000     ...@.. .........
    51e4:	0000 0000 0021 2100 0000 0021 2100 0000     ....!..!..!..!..
    51f4:	0021 2100 0000 0021 2100 0000 0021 2100     !..!..!..!..!..!
	...
    520c:	0000 0008 0408 1000 0002 0120 4000 8000     .......... ..@..
    521c:	0080 0041 2200 0000 0014 0800 0000 0000     ..A.."..........
    522c:	0000 0300 00c0 c004 0400 0000 0008 0838     ..............8.
    523c:	380f 0808 0838 0010 300c 0700 00e0 c003     .8..8....0......
	...
    5254:	803f ff00 03e0 7080 0f02 0610 8870 c004     ?......p....p...
    5264:	0488 0883 7f04 0288 90c0 0103 0020 40fe     ............ ..@
    5274:	0000 0008 1800 0100 00f8 083e c201 0700     ..........>.....
    5284:	0002 e207 0000 00fe 1f00 00c8 f801 0000     ................
    5294:	0038 0800 0004 0708 f8ff ff07 04f8 0808     8...............
    52a4:	0804 0408 0808 0804 0608 0818 f403 0118     ................
    52b4:	f0e7 0100 00e0 0000 0000 0000 803f ff01     ............?...
    52c4:	03e0 7080 0002 0418 0800 0004 0408 0800     ...p............
    52d4:	0004 0610 2000 8007 00c0 0000 0004 0708     ..... ..........
    52e4:	f8ff ff07 04f8 0800 0004 0408 0800 0004     ................
    52f4:	0218 1000 8003 0170 e0ff 7f00 0080 0000     ......p.........
    5304:	0004 0708 f8ff ff07 04f8 0808 0804 0408     ................
    5314:	0808 0804 0408 083e 0004 0608 1800 0001     ......>.........
    5324:	0060 0000 0004 0708 f8ff ff07 04f8 0808     `...............
    5334:	0804 0400 0008 0804 0400 003e 0006 0600     ..........>.....
    5344:	0000 8001 0000 0000 0000 0000 803f ff01     ............?...
    5354:	03e0 7080 0006 0418 0800 0204 0408 0802     ...p............
    5364:	0302 07f0 f083 0200 0000 0002 0004 0708     ................
    5374:	f8ff ff07 04f8 0808 0800 0000 0008 0800     ................
    5384:	0000 0008 0804 0708 f8ff ff07 04f8 0800     ................
    5394:	0000 0000 0000 0004 0408 0800 0004 0708     ................
    53a4:	f8ff ff07 04f8 0800 0004 0408 0800 0000     ................
	...
    53bc:	0600 0000 0007 0100 0004 0401 0100 0004     ................
    53cc:	0703 feff ff07 04fc 0000 0004 0400 0000     ................
    53dc:	0004 0708 f8ff ff07 04f8 080c 1800 0000     ................
    53ec:	003e c704 0580 c803 0006 04f8 3800 0004     >............8..
    53fc:	0018 0800 0004 0708 f8ff ff07 04f8 0800     ................
    540c:	0000 0008 0800 0000 0008 0800 0000 0008     ................
    541c:	1800 0000 0060 0000 0004 0708 f8ff 8007     ....`...........
    542c:	0708 00fc 7f00 00c0 f803 0700 00c0 0078     ..............x.
    543c:	8007 0708 f8ff ff07 04f8 0800 0004 0708     ................
    544c:	f8ff 0007 0308 00c0 e000 0000 0038 1e00     ............8...
    545c:	0000 0007 0100 04c0 f000 ff07 04f8 0000     ................
    546c:	0000 0000 807f ff01 03e0 7080 0006 0418     ...........p....
    547c:	0800 0004 0608 1800 0003 0130 e0ff 7f00     ..........0.....
    548c:	0080 0000 0004 0708 f8ff ff07 04f8 0804     ................
    549c:	0404 0400 0004 0404 0400 0004 0c06 0300     ................
    54ac:	00f8 f001 0000 0000 0000 0000 807f ff01     ................
    54bc:	03e0 7080 0006 0488 8800 0004 06c8 3c00     ...p...........<
    54cc:	0003 013e e6ff 7f00 0084 0000 0004 0708     ..>.............
    54dc:	f8ff ff07 04f8 0808 0804 0400 000c 0f04     ................
    54ec:	0400 c00b 1006 03f0 38f0 e001 0008 0800     .........8......
    54fc:	0000 0100 f8e0 f003 0630 1030 1804 0408     ........0.0.....
    550c:	0818 0c04 0408 080c 0602 0218 f007 8107     ................
    551c:	00e0 0000 8001 0600 0000 0004 0400 0000     ................
    552c:	0004 0708 f8ff ff07 04f8 0800 0004 0400     ................
    553c:	0000 0006 0100 0080 0004 0700 e0ff ff07     ................
    554c:	04f0 1800 0000 0008 0800 0000 0008 0800     ................
    555c:	0000 0408 1000 ff07 04e0 0000 0004 0600     ................
    556c:	0000 e007 0700 00fe 1f04 00e0 f801 0000     ................
    557c:	0038 e001 3e04 0700 00c0 0006 0400 0000     8....>..........
    558c:	0004 0700 00e0 ff07 04c0 f81f 0700 07c0     ................
    559c:	00f8 ff07 0480 f83f 0700 04c0 00f8 0007     ......?.........
    55ac:	0400 0000 0000 0400 0800 0006 0718 78c0     ...............x
    55bc:	f105 00c8 003e 1f00 0480 e863 8007 06f8     ....>.....c.....
    55cc:	1800 0004 0008 0000 0004 0600 0000 8007     ................
    55dc:	0700 08e0 7c04 0008 f81f 0700 00f8 0818     .....|..........
    55ec:	e004 0708 0000 0006 0400 0000 0000 0100     ................
    55fc:	0800 0006 0438 f800 0304 04e8 080f 7c04     ....8..........|
    560c:	0508 08f0 c007 0708 1800 0004 0060 0000     ............`...
	...
    5628:	0000 3f00 feff 0020 2002 0200 0020 2002     ...?.. .. .. .. 
    5638:	0200 0020 0002 0000 0000 0000 0000 0008     .. .............
    5648:	0700 0000 c000 0000 0038 0600 0000 c001     ........8.......
    5658:	0000 0030 0e00 0000 0001 0000 0000 0000     ..0.............
    5668:	0000 0020 2002 0200 0020 2002 0200 0020     .. .. .. .. .. .
    5678:	3f02 feff 0000 0000 0000 0000 0000 0000     .?..............
	...
    5690:	0800 0000 0010 3000 0000 0020 3000 0000     .......0.. ..0..
    56a0:	0010 0800 0000 0000 0000 0000 0000 0001     ................
    56b0:	0100 0000 0001 0100 0000 0001 0100 0000     ................
    56c0:	0001 0100 0000 0001 0100 0000 0001 0100     ................
	...
    56d8:	2000 0000 0020 1000 0000 0010 0000 0000     . .. ...........
	...
    56f8:	f000 1900 00f8 181b 2200 0008 0826 2400     ........."..&..$
    5708:	0008 1024 3f00 00f8 f81f 0000 0008 1800     ..$..?..........
    5718:	0000 0400 0000 ff07 0ff8 f0ff 1800 0018     ................
    5728:	0810 2000 0008 0820 3000 0018 f01f 0f00     ... .. ..0......
    5738:	00c0 0000 0000 0000 c007 1f00 00f0 3018     ...............0
    5748:	2000 0008 0820 2000 0008 083c 1c00 0010     . .. .. ..<.....
    5758:	6000 0000 0000 0000 0000 0000 c007 1f00     .`..............
    5768:	00f0 1838 2000 0008 0820 2000 0408 1010     ..8.. .. .. ....
    5778:	ff07 0ff8 f0ff 0000 0010 0000 0000 0000     ................
    5788:	0000 0700 00c0 f01f 1200 0030 1822 2200     ..........0.".."
    5798:	0008 0822 3200 0008 101e 0e00 0020 0000     .."..2...... ...
    57a8:	0000 0000 0020 2000 0008 0820 ff01 03f8     .... .. .. .....
    57b8:	f8ff 2006 0408 0820 2004 0708 0020 0003     ... .. .. .. ...
	...
    57d0:	0e00 0e00 006e f31f 3100 00b1 b120 2000     ....n....1.. .. 
    57e0:	00b1 9131 1f00 0013 1e2e 2000 000e 0030     ..1........ ..0.
    57f0:	0000 0400 0800 ff07 0ff8 f8ff 1000 0008     ................
    5800:	0020 2000 0000 0820 3f00 00f8 f81f 0000      .. .. ..?......
    5810:	0008 0000 0000 0000 0000 2000 0008 0820     ........... .. .
    5820:	2000 0608 f83f 3f06 00f8 0800 0000 0008     . ..?..?........
    5830:	0800 0000 0000 0000 0000 0000 0000 0000     ................
    5840:	0003 0300 2000 0001 0120 2000 0603 fe3f     ..... .. .. ..?.
    5850:	3f06 00fc 0000 0000 0000 0000 0000 0400     .?..............
    5860:	0800 ff07 0ff8 f8ff 0100 0088 0003 2f00     .............../
    5870:	00c0 f838 2000 0038 0820 0000 0008 0000     ..8.. 8. .......
    5880:	0000 0000 0000 0004 0408 0800 0004 0708     ................
    5890:	f8ff ff0f 00f8 0800 0000 0008 0800 0000     ................
    58a0:	0000 0000 2000 0008 f83f 3f00 00f8 0810     ..... ..?..?....
    58b0:	2000 0000 f83f 3f00 00f8 0810 2000 0000     . ..?..?..... ..
    58c0:	f83f 3f00 00f8 0800 0000 0000 0820 3f00     ?..?........ ..?
    58d0:	00f8 f83f 1000 0008 0010 2000 0000 0820     ..?........ .. .
    58e0:	3f00 00f8 f81f 0000 0008 0000 0000 0000     .?..............
    58f0:	c007 0f00 00f0 3018 3000 0008 0820 2000     .......0.0.. .. 
    5900:	0008 0830 1800 0030 f00f 0700 00c0 0000     ..0...0.........
    5910:	0000 0000 0120 3f00 00ff ff3f 1000 0011     .... ..?..?.....
    5920:	0920 2000 0008 0820 3000 0038 f01f 0f00      .. .. ..08.....
    5930:	00c0 0000 0000 0000 c007 1f00 00f0 1838     ..............8.
    5940:	2000 0008 0820 2000 0009 1110 1f00 00ff     . .. .. ........
    5950:	ff3f 0000 0001 0000 2000 0008 0820 2000     ?........ .. .. 
    5960:	0008 f83f 3f00 00f8 0808 1000 0008 0820     ..?..?........ .
    5970:	2000 0000 0030 3000 0000 0000 0000 0000     . ..0..0........
    5980:	0000 0c00 0078 181e 3300 0008 0823 2100     ....x....3..#..!
    5990:	0008 8821 2100 0098 f030 3800 0060 0000     ..!..!..0..8`...
    59a0:	0000 0000 0020 2000 0000 0020 ff00 03f0     .... .. .. .....
    59b0:	f8ff 2000 0008 0820 2000 0008 3000 0000     ... .. .. ...0..
	...
    59c8:	0020 3f00 00f0 f87f 0000 0018 0800 0000      ..?............
    59d8:	0008 1020 3f00 00f8 f07f 0000 0010 0000     .. ..?..........
    59e8:	0000 0000 0020 3000 0000 003c 3f00 0080     .... ..0..<..?..
    59f8:	f023 0000 0078 7000 2300 0080 003c 3000     #...x..p.#..<..0
    5a08:	0000 0020 2000 0000 003c 3f00 00e0 f823     .. .. ..<..?..#.
    5a18:	0000 00e0 0027 3e00 0000 e03f 2100 00f8     ....'..>..?..!..
    5a28:	e001 3e00 0000 0020 0000 0000 0820 2000     ...>.. ..... .. 
    5a38:	0008 3838 3e00 0068 8027 0300 00c8 f82c     ..88.>h.'.....,.
    5a48:	3800 0038 1820 2000 0008 0000 0000 0000     .88. .. ........
    5a58:	0020 3000 0003 013c 3f00 0083 ec23 0000      ..0..<..?..#...
    5a68:	0070 8023 3c00 0000 0020 2000 0000 0000     p.#..<.. .. ....
    5a78:	0000 0000 0000 3800 0008 3820 2000 00f8     .......8.. 8. ..
    5a88:	e823 2f00 0088 083e 3800 0008 1820 0000     #../..>..8.. ...
    5a98:	0070 0000 0000 0000 0000 0000 0000 0000     p...............
    5aa8:	0000 0000 0008 1400 1f00 fcf7 0030 2006     ............0.. 
    5ab8:	0200 0000 0000 0000 0000 0000 0000 0000     ................
	...
    5ad0:	0000 ffff 00ff 0000 0000 0000 0000 0000     ................
	...
    5ae8:	0000 0020 3002 0600 f71f 00fc 0014 0800     .. ..0..........
	...
    5b08:	0000 1800 0000 0060 4000 0000 0040 2000     ......`..@..@.. 
    5b18:	0000 0010 0800 0000 0004 0400 0000 000c     ................
    5b28:	1000 0000 7373 3164 3033 3a36 7720 6972     ....ssd1306: wri
    5b38:	6574 6220 7479 2065 6166 6c69 6465 0a2e     te byte failed..
    5b48:	0000 0000 7373 3164 3033 3a36 7720 6972     ....ssd1306: wri
    5b58:	6574 6320 6d6f 616d 646e 6620 6961 656c     te command faile
    5b68:	2e64 000a 7373 3164 3033 3a36 7220 7365     d...ssd1306: res
    5b78:	7465 6720 6970 206f 6564 6e69 7469 6620     et gpio deinit f
    5b88:	6961 656c 2e64 000a 7373 3164 3033 3a36     ailed...ssd1306:
    5b98:	7320 6970 6320 646d 6420 7461 2061 7067      spi cmd data gp
    5ba8:	6f69 6420 6965 696e 2074 6166 6c69 6465     io deinit failed
    5bb8:	0a2e 0000 7373 3164 3033 3a36 6920 6369     ....ssd1306: iic
    5bc8:	6420 6965 696e 2074 6166 6c69 6465 0a2e      deinit failed..
    5bd8:	0000 0000 7373 3164 3033 3a36 7320 6970     ....ssd1306: spi
    5be8:	6420 6965 696e 2074 6166 6c69 6465 0a2e      deinit failed..
    5bf8:	0000 0000 7373 3164 3033 3a36 6c20 6665     ....ssd1306: lef
    5c08:	2074 726f 7420 706f 6920 2073 6e69 6176     t or top is inva
    5c18:	696c 2e64 000a 0000 7373 3164 3033 3a36     lid.....ssd1306:
    5c28:	7220 6769 7468 6f20 2072 6f62 7474 6d6f      right or bottom
    5c38:	6920 2073 6e69 6176 696c 2e64 000a 0000      is invalid.....
    5c48:	7373 3164 3033 3a36 6c20 6665 2074 203e     ssd1306: left > 
    5c58:	6972 6867 2074 726f 7420 706f 3e20 6220     right or top > b
    5c68:	746f 6f74 2e6d 000a 3333 3fd3 3333 4053     ottom...33.?33S@
    5c78:	ae14 3f47 0000 42aa 0000 c220 6f53 6f6c     ..G?...B.. .Solo
    5c88:	6f6d 206e 7953 7473 6365 2068 5353 3144     mon Systech SSD1
    5c98:	3033 0036 6f53 6f6c 6f6d 206e 7953 7473     306.Solomon Syst
    5ca8:	6365 0068 4949 2043 5053 0049 7373 3164     ech.IIC SPI.ssd1
    5cb8:	3033 3a36 6920 6369 695f 696e 2074 7369     306: iic_init is
    5cc8:	6e20 6c75 2e6c 000a 7373 3164 3033 3a36      null...ssd1306:
    5cd8:	6920 6369 645f 6965 696e 2074 7369 6e20      iic_deinit is n
    5ce8:	6c75 2e6c 000a 0000 7373 3164 3033 3a36     ull.....ssd1306:
    5cf8:	6920 6369 775f 6972 6574 6920 2073 756e      iic_write is nu
    5d08:	6c6c 0a2e 0000 0000 7373 3164 3033 3a36     ll......ssd1306:
    5d18:	7320 6970 695f 696e 2074 7369 6e20 6c75      spi_init is nul
    5d28:	2e6c 000a 7373 3164 3033 3a36 7320 6970     l...ssd1306: spi
    5d38:	645f 6965 696e 2074 7369 6e20 6c75 2e6c     _deinit is null.
    5d48:	000a 0000 7373 3164 3033 3a36 7320 6970     ....ssd1306: spi
    5d58:	775f 6972 6574 635f 646d 6920 2073 756e     _write_cmd is nu
    5d68:	6c6c 0a2e 0000 0000 7373 3164 3033 3a36     ll......ssd1306:
    5d78:	6420 6c65 7961 6d5f 2073 7369 6e20 6c75      delay_ms is nul
    5d88:	2e6c 000a 7373 3164 3033 3a36 7320 6970     l...ssd1306: spi
    5d98:	635f 646d 645f 7461 5f61 7067 6f69 695f     _cmd_data_gpio_i
    5da8:	696e 2074 7369 6e20 6c75 2e6c 000a 0000     nit is null.....
    5db8:	7373 3164 3033 3a36 7320 6970 635f 646d     ssd1306: spi_cmd
    5dc8:	645f 7461 5f61 7067 6f69 645f 6965 696e     _data_gpio_deini
    5dd8:	2074 7369 6e20 6c75 2e6c 000a 7373 3164     t is null...ssd1
    5de8:	3033 3a36 7320 6970 635f 646d 645f 7461     306: spi_cmd_dat
    5df8:	5f61 7067 6f69 775f 6972 6574 6920 2073     a_gpio_write is 
    5e08:	756e 6c6c 0a2e 0000 7373 3164 3033 3a36     null....ssd1306:
    5e18:	7220 7365 7465 675f 6970 5f6f 6e69 7469      reset_gpio_init
    5e28:	6920 2073 756e 6c6c 0a2e 0000 7373 3164      is null....ssd1
    5e38:	3033 3a36 7220 7365 7465 675f 6970 5f6f     306: reset_gpio_
    5e48:	6564 6e69 7469 6920 2073 756e 6c6c 0a2e     deinit is null..
    5e58:	0000 0000 7373 3164 3033 3a36 7220 7365     ....ssd1306: res
    5e68:	7465 675f 6970 5f6f 7277 7469 2065 7369     et_gpio_write is
    5e78:	6e20 6c75 2e6c 000a 7373 3164 3033 3a36      null...ssd1306:
    5e88:	7320 6970 6320 646d 6420 7461 2061 7067      spi cmd data gp
    5e98:	6f69 6920 696e 2074 6166 6c69 6465 0a2e     io init failed..
    5ea8:	0000 0000 7373 3164 3033 3a36 7220 7365     ....ssd1306: res
    5eb8:	7465 6720 6970 206f 6e69 7469 6620 6961     et gpio init fai
    5ec8:	656c 2e64 000a 0000 7373 3164 3033 3a36     led.....ssd1306:
    5ed8:	7220 7365 7465 6720 6970 206f 7277 7469      reset gpio writ
    5ee8:	2065 6166 6c69 6465 0a2e 0000 7373 3164     e failed....ssd1
    5ef8:	3033 3a36 6920 6369 6920 696e 2074 6166     306: iic init fa
    5f08:	6c69 6465 0a2e 0000 7373 3164 3033 3a36     iled....ssd1306:
    5f18:	7320 6970 6920 696e 2074 6166 6c69 6465      spi init failed
    5f28:	0a2e 0000 7373 3164 3033 3a36 6920 746e     ....ssd1306: int
    5f38:	7265 6166 6563 6920 2073 6e69 6176 696c     erface is invali
    5f48:	2e64 000a 7373 3164 3033 3a36 7320 6174     d...ssd1306: sta
    5f58:	7472 6120 6464 2072 7369 6920 766e 6c61     rt addr is inval
    5f68:	6469 0a2e 0000 0000 7373 3164 3033 3a36     id......ssd1306:
    5f78:	6520 646e 6120 6464 2072 7369 6920 766e      end addr is inv
    5f88:	6c61 6469 0a2e 0000 7373 3164 3033 3a36     alid....ssd1306:
    5f98:	6f20 6373 6c69 616c 6f74 2072 7266 7165      oscillator freq
    5fa8:	6575 636e 2079 7369 6920 766e 6c61 6469     uency is invalid
    5fb8:	0a2e 0000 7373 3164 3033 3a36 6320 6f6c     ....ssd1306: clo
    5fc8:	6b63 6420 7669 6469 2065 7369 6920 766e     ck divide is inv
    5fd8:	6c61 6469 0a2e 0000 7373 3164 3033 3a36     alid....ssd1306:
    5fe8:	6f20 6666 6573 2074 7369 6920 766e 6c61      offset is inval
    5ff8:	6469 0a2e 0000 0000 7373 3164 3033 3a36     id......ssd1306:
    6008:	6c20 6e69 2065 7369 6920 766e 6c61 6469      line is invalid
    6018:	0a2e 0000 7373 3164 3033 3a36 6620 6172     ....ssd1306: fra
    6028:	656d 2073 7369 6920 766e 6c61 6469 0a2e     mes is invalid..
    6038:	0000 0000 7373 3164 3033 3a36 7320 6174     ....ssd1306: sta
    6048:	7472 705f 6761 5f65 6461 7264 6920 2073     rt_page_addr is 
    6058:	6e69 6176 696c 2e64 000a 0000 7373 3164     invalid.....ssd1
    6068:	3033 3a36 6520 646e 705f 6761 5f65 6461     306: end_page_ad
    6078:	7264 6920 2073 6e69 6176 696c 2e64 000a     dr is invalid...
    6088:	7373 3164 3033 3a36 6120 6464 2072 7369     ssd1306: addr is
    6098:	6920 766e 6c61 6469 0a2e 0000 7373 3164      invalid....ssd1
    60a8:	3033 3a36 6d20 6c75 6974 6c70 7865 6920     306: multiplex i
    60b8:	2073 6f74 206f 6d73 6c61 2e6c 000a 0000     s too small.....
    60c8:	7373 3164 3033 3a36 6d20 6c75 6974 6c70     ssd1306: multipl
    60d8:	7865 6920 2073 6f74 206f 616c 6772 2e65     ex is too large.
    60e8:	000a 0000 7373 3164 3033 3a36 7020 6168     ....ssd1306: pha
    60f8:	6573 2031 6570 6972 646f 6920 2073 6e69     se1 period is in
    6108:	6176 696c 2e64 000a 7373 3164 3033 3a36     valid...ssd1306:
    6118:	7020 6168 6573 2032 6570 6972 646f 6920      phase2 period i
    6128:	2073 6e69 6176 696c 2e64 000a 7373 3164     s invalid...ssd1
    6138:	3033 3a36 7320 6174 7472 7020 6761 2065     306: start page 
    6148:	6461 7264 6920 2073 6e69 6176 696c 2e64     addr is invalid.
    6158:	000a 0000 7373 3164 3033 3a36 6520 646e     ....ssd1306: end
    6168:	7020 6761 2065 6461 7264 6920 2073 6e69      page addr is in
    6178:	6176 696c 2e64 000a 7373 3164 3033 3a36     valid...ssd1306:
    6188:	7220 776f 2073 7369 6920 766e 6c61 6469      rows is invalid
    6198:	0a2e 0000 7373 3164 3033 3a36 7820 6f20     ....ssd1306: x o
    61a8:	2072 2079 7369 6920 766e 6c61 6469 0a2e     r y is invalid..
    61b8:	0000 0000 7373 3164 3033 3a36 6720 7465     ....ssd1306: get
    61c8:	6920 666e 206f 6166 6c69 6465 0a2e 0000      info failed....
    61d8:	7373 3164 3033 3a36 6320 6968 2070 7369     ssd1306: chip is
    61e8:	2520 2e73 000a 0000 7373 3164 3033 3a36      %s.....ssd1306:
    61f8:	6d20 6e61 6675 6361 7574 6572 2072 7369      manufacturer is
    6208:	2520 2e73 000a 0000 7373 3164 3033 3a36      %s.....ssd1306:
    6218:	6920 746e 7265 6166 6563 6920 2073 7325      interface is %s
    6228:	0a2e 0000 7373 3164 3033 3a36 6420 6972     ....ssd1306: dri
    6238:	6576 2072 6576 7372 6f69 206e 7369 2520     ver version is %
    6248:	2e64 6425 0a2e 0000 7373 3164 3033 3a36     d.%d....ssd1306:
    6258:	6d20 6e69 7320 7075 6c70 2079 6f76 746c      min supply volt
    6268:	6761 2065 7369 2520 2e30 6631 2e56 000a     age is %0.1fV...
    6278:	7373 3164 3033 3a36 6d20 7861 7320 7075     ssd1306: max sup
    6288:	6c70 2079 6f76 746c 6761 2065 7369 2520     ply voltage is %
    6298:	2e30 6631 2e56 000a 7373 3164 3033 3a36     0.1fV...ssd1306:
    62a8:	6d20 7861 6320 7275 6572 746e 6920 2073      max current is 
    62b8:	3025 322e 6d66 2e41 000a 0000 7373 3164     %0.2fmA.....ssd1
    62c8:	3033 3a36 6d20 7861 7420 6d65 6570 6172     306: max tempera
    62d8:	7574 6572 6920 2073 3025 312e 4366 0a2e     ture is %0.1fC..
    62e8:	0000 0000 7373 3164 3033 3a36 6d20 6e69     ....ssd1306: min
    62f8:	7420 6d65 6570 6172 7574 6572 6920 2073      temperature is 
    6308:	3025 312e 4366 0a2e 0000 0000 7373 3164     %0.1fC......ssd1
    6318:	3033 3a36 7320 7465 6920 746e 7265 6166     306: set interfa
    6328:	6563 6620 6961 656c 2e64 000a 7373 3164     ce failed...ssd1
    6338:	3033 3a36 7320 7465 6120 6464 2072 6166     306: set addr fa
    6348:	6c69 6465 0a2e 0000 7373 3164 3033 3a36     iled....ssd1306:
    6358:	6920 696e 2074 6166 6c69 6465 0a2e 0000      init failed....
    6368:	7373 3164 3033 3a36 7320 7465 6420 7369     ssd1306: set dis
    6378:	6c70 7961 6620 6961 656c 2e64 000a 0000     play failed.....
    6388:	7373 3164 3033 3a36 7320 7465 6320 6c6f     ssd1306: set col
    6398:	6d75 206e 6461 7264 7365 2073 6172 676e     umn address rang
    63a8:	2065 6166 6c69 6465 0a2e 0000 7373 3164     e failed....ssd1
    63b8:	3033 3a36 7320 7465 7020 6761 2065 6461     306: set page ad
    63c8:	7264 7365 2073 6172 676e 2065 6166 6c69     dress range fail
    63d8:	6465 0a2e 0000 0000 7373 3164 3033 3a36     ed......ssd1306:
    63e8:	7320 7465 6c20 776f 6320 6c6f 6d75 206e      set low column 
    63f8:	7473 7261 2074 6461 7264 7365 2073 6166     start address fa
    6408:	6c69 6465 0a2e 0000 7373 3164 3033 3a36     iled....ssd1306:
    6418:	7320 7465 6820 6769 2068 6f63 756c 6e6d      set high column
    6428:	7320 6174 7472 6120 6464 6572 7373 6620      start address f
    6438:	6961 656c 2e64 000a 7373 3164 3033 3a36     ailed...ssd1306:
    6448:	7320 7465 6420 7369 6c70 7961 7320 6174      set display sta
    6458:	7472 6c20 6e69 2065 6166 6c69 6465 0a2e     rt line failed..
    6468:	0000 0000 7373 3164 3033 3a36 7320 7465     ....ssd1306: set
    6478:	6620 6461 2065 6c62 6e69 696b 676e 6620      fade blinking f
    6488:	6961 656c 2e64 000a 7373 3164 3033 3a36     ailed...ssd1306:
    6498:	7320 7465 6420 6165 7463 7669 7461 2065      set deactivate 
    64a8:	6373 6f72 6c6c 6620 6961 656c 2e64 000a     scroll failed...
    64b8:	7373 3164 3033 3a36 7320 7465 7320 7465     ssd1306: set set
    64c8:	7a20 6f6f 206d 6e69 6620 6961 656c 2e64      zoom in failed.
    64d8:	000a 0000 7373 3164 3033 3a36 7320 7465     ....ssd1306: set
    64e8:	6320 6e6f 7274 7361 2074 6166 6c69 6465      contrast failed
    64f8:	0a2e 0000 7373 3164 3033 3a36 7320 7465     ....ssd1306: set
    6508:	7320 6765 656d 746e 7220 6d65 7061 6620      segment remap f
    6518:	6961 656c 2e64 000a 7373 3164 3033 3a36     ailed...ssd1306:
    6528:	7320 7465 7320 6163 206e 6964 6572 7463      set scan direct
    6538:	6f69 206e 6166 6c69 6465 0a2e 0000 0000     ion failed......
    6548:	7373 3164 3033 3a36 7320 7465 6420 7369     ssd1306: set dis
    6558:	6c70 7961 6d20 646f 2065 6166 6c69 6465     play mode failed
    6568:	0a2e 0000 7373 3164 3033 3a36 7320 7465     ....ssd1306: set
    6578:	6d20 6c75 6974 6c70 7865 7220 7461 6f69      multiplex ratio
    6588:	6620 6961 656c 2e64 000a 0000 7373 3164      failed.....ssd1
    6598:	3033 3a36 7320 7465 6420 7369 6c70 7961     306: set display
    65a8:	6f20 6666 6573 2074 6166 6c69 6465 0a2e      offset failed..
    65b8:	0000 0000 7373 3164 3033 3a36 7320 7465     ....ssd1306: set
    65c8:	6420 7369 6c70 7961 6320 6f6c 6b63 6620      display clock f
    65d8:	6961 656c 2e64 000a 7373 3164 3033 3a36     ailed...ssd1306:
    65e8:	7320 7465 7020 6572 6320 6168 6772 2065      set pre charge 
    65f8:	6570 6972 646f 6620 6961 656c 2e64 000a     period failed...
    6608:	7373 3164 3033 3a36 7320 7465 6320 6d6f     ssd1306: set com
    6618:	7020 6e69 2073 6168 6472 6177 6572 6320      pins hardware c
    6628:	6e6f 2066 6166 6c69 6465 0a2e 0000 0000     onf failed......
    6638:	7373 3164 3033 3a36 7320 7465 6420 7365     ssd1306: set des
    6648:	6c65 6365 2074 656c 6576 206c 6166 6c69     elect level fail
    6658:	6465 0a2e 0000 0000 7373 3164 3033 3a36     ed......ssd1306:
    6668:	7320 7465 6d20 6d65 726f 2079 6461 7264      set memory addr
    6678:	7365 6973 676e 6c20 7665 6c65 6620 6961     essing level fai
    6688:	656c 2e64 000a 0000 7373 3164 3033 3a36     led.....ssd1306:
    6698:	7320 7465 6320 6168 6772 2065 7570 706d      set charge pump
    66a8:	6620 6961 656c 2e64 000a 0000 7373 3164      failed.....ssd1
    66b8:	3033 3a36 7320 7465 6520 746e 7269 2065     306: set entire 
    66c8:	6964 7073 616c 2079 6166 6c69 6465 0a2e     display failed..
    66d8:	0000 0000 7373 3164 3033 3a36 6320 656c     ....ssd1306: cle
    66e8:	7261 6620 6961 656c 2e64 000a 7373 3164     ar failed...ssd1
    66f8:	3033 3a36 7320 6174 7472 6420 7369 6c70     306: start displ
    6708:	7961 7420 7365 2e74 000a 0000 7373 3164     ay test.....ssd1
    6718:	3033 3a36 6620 6e6f 2074 3231 7420 7365     306: font 12 tes
    6728:	2e74 000a 7373 3164 3033 3a36 6720 6172     t...ssd1306: gra
    6738:	206d 7277 7469 2065 7473 6972 676e 6620     m write string f
    6748:	6961 656c 2e64 000a 7373 3164 3033 3a36     ailed...ssd1306:
    6758:	6620 6e6f 2074 3631 7420 7365 2e74 000a      font 16 test...
    6768:	7373 3164 3033 3a36 6620 6e6f 2074 3432     ssd1306: font 24
    6778:	7420 7365 2e74 000a 7373 3164 3033 3a36      test...ssd1306:
    6788:	7220 6365 6174 676e 656c 7420 7365 2e74      rectangle test.
    6798:	000a 0000 7373 3164 3033 3a36 6720 6172     ....ssd1306: gra
    67a8:	206d 6966 6c6c 7220 6365 2074 6166 6c69     m fill rect fail
    67b8:	6465 0a2e 0000 0000 7373 3164 3033 3a36     ed......ssd1306:
    67c8:	7220 6e61 2064 6f70 6e69 2074 6574 7473      rand point test
    67d8:	0a2e 0000 7373 3164 3033 3a36 6720 6172     ....ssd1306: gra
    67e8:	206d 7277 7469 2065 6f70 6e69 2074 6166     m write point fa
    67f8:	6c69 6465 0a2e 0000 7373 3164 3033 3a36     iled....ssd1306:
    6808:	7020 6369 7574 6572 7420 7365 2e74 000a      picture test...
    6818:	7373 3164 3033 3a36 6720 6172 206d 7264     ssd1306: gram dr
    6828:	7761 7020 6369 7574 6572 6620 6961 656c     aw picture faile
    6838:	2e64 000a 7373 3164 3033 3a36 6720 6172     d...ssd1306: gra
    6848:	6870 6369 6120 6363 6c65 7265 7461 6f69     phic acceleratio
    6858:	206e 6574 7473 0a2e 0000 0000 7373 3164     n test......ssd1
    6868:	3033 3a36 7220 6769 7468 6820 726f 7a69     306: right horiz
    6878:	6e6f 6174 206c 6373 6f72 6c6c 0a2e 0000     ontal scroll....
    6888:	7373 3164 3033 3a36 7320 7465 7220 6769     ssd1306: set rig
    6898:	7468 6820 726f 7a69 6e6f 6174 206c 6373     ht horizontal sc
    68a8:	6f72 6c6c 6620 6961 656c 2e64 000a 0000     roll failed.....
    68b8:	7373 3164 3033 3a36 6120 7463 7669 7461     ssd1306: activat
    68c8:	2065 6373 6f72 6c6c 6620 6961 656c 2e64     e scroll failed.
    68d8:	000a 0000 7373 3164 3033 3a36 6c20 6665     ....ssd1306: lef
    68e8:	2074 6f68 6972 6f7a 746e 6c61 7320 7263     t horizontal scr
    68f8:	6c6f 2e6c 000a 0000 7373 3164 3033 3a36     oll.....ssd1306:
    6908:	7320 7465 6c20 6665 2074 6f68 6972 6f7a      set left horizo
    6918:	746e 6c61 7320 7263 6c6f 206c 6166 6c69     ntal scroll fail
    6928:	6465 0a2e 0000 0000 7373 3164 3033 3a36     ed......ssd1306:
    6938:	7620 7265 6974 6163 206c 6972 6867 2074      vertical right 
    6948:	6f68 6972 6f7a 746e 6c61 7320 7263 6c6f     horizontal scrol
    6958:	2e6c 000a 7373 3164 3033 3a36 7320 7465     l...ssd1306: set
    6968:	7620 7265 6974 6163 206c 6972 6867 2074      vertical right 
    6978:	6f68 6972 6f7a 746e 6c61 7320 7263 6c6f     horizontal scrol
    6988:	206c 6166 6c69 6465 0a2e 0000 7373 3164     l failed....ssd1
    6998:	3033 3a36 7620 7265 6974 6163 206c 656c     306: vertical le
    69a8:	7466 6820 726f 7a69 6e6f 6174 206c 6373     ft horizontal sc
    69b8:	6f72 6c6c 0a2e 0000 7373 3164 3033 3a36     roll....ssd1306:
    69c8:	7320 7465 7620 7265 6974 6163 206c 656c      set vertical le
    69d8:	7466 6820 726f 7a69 6e6f 6174 206c 6373     ft horizontal sc
    69e8:	6f72 6c6c 6620 6961 656c 2e64 000a 0000     roll failed.....
    69f8:	7373 3164 3033 3a36 6120 7664 6e61 6563     ssd1306: advance
    6a08:	6720 6172 6870 6369 7420 7365 2e74 000a      graphic test...
    6a18:	7373 3164 3033 3a36 7a20 6f6f 206d 6e69     ssd1306: zoom in
    6a28:	0a2e 0000 7373 3164 3033 3a36 6620 6461     ....ssd1306: fad
    6a38:	2065 6f6d 6564 0a2e 0000 0000 7373 3164     e mode......ssd1
    6a48:	3033 3a36 6620 6e69 7369 2068 6964 7073     306: finish disp
    6a58:	616c 2079 6574 7473 0a2e 0000 696c 6462     lay test....libd
    6a68:	6972 6576 0072 0000 4241 6143 6362 0000     river...ABCabc..
    6a78:	3231 3f33 2321 2524 0000 0000 7325 0000     123?!#$%....%s..
    6a88:	c082 ffff c0aa ffff c0d2 ffff c0ea ffff     ................
    6a98:	c104 ffff c114 ffff c13c ffff c164 ffff     ........<...d...
    6aa8:	c17c ffff c196 ffff                         |.......

00006ab0 <__clz_tab>:
    6ab0:	0100 0202 0303 0303 0404 0404 0404 0404     ................
    6ac0:	0505 0505 0505 0505 0505 0505 0505 0505     ................
    6ad0:	0606 0606 0606 0606 0606 0606 0606 0606     ................
    6ae0:	0606 0606 0606 0606 0606 0606 0606 0606     ................
    6af0:	0707 0707 0707 0707 0707 0707 0707 0707     ................
    6b00:	0707 0707 0707 0707 0707 0707 0707 0707     ................
    6b10:	0707 0707 0707 0707 0707 0707 0707 0707     ................
    6b20:	0707 0707 0707 0707 0707 0707 0707 0707     ................
    6b30:	0808 0808 0808 0808 0808 0808 0808 0808     ................
    6b40:	0808 0808 0808 0808 0808 0808 0808 0808     ................
    6b50:	0808 0808 0808 0808 0808 0808 0808 0808     ................
    6b60:	0808 0808 0808 0808 0808 0808 0808 0808     ................
    6b70:	0808 0808 0808 0808 0808 0808 0808 0808     ................
    6b80:	0808 0808 0808 0808 0808 0808 0808 0808     ................
    6b90:	0808 0808 0808 0808 0808 0808 0808 0808     ................
    6ba0:	0808 0808 0808 0808 0808 0808 0808 0808     ................

00006bb0 <__sf_fake_stderr>:
	...

00006bd0 <__sf_fake_stdin>:
	...

00006bf0 <__sf_fake_stdout>:
	...
    6c10:	2d23 2b30 0020 0000 6c68 004c 6665 4567     #-0+ ...hlL.efgE
    6c20:	4746 0000 3130 3332 3534 3736 3938 4241     FG..0123456789AB
    6c30:	4443 4645 0000 0000 3130 3332 3534 3736     CDEF....01234567
    6c40:	3938 6261 6463 6665 0000 0000               89abcdef....

00006c4c <_global_impure_ptr>:
    6c4c:	2b9c 2000                                   .+. 
